
09_U14L3A1.axf:     file format elf32-littlearm


Disassembly of section .isr_vector:

08000000 <g_pfnVectors>:
 8000000:	20005000 	andcs	r5, r0, r0
 8000004:	08001075 	stmdaeq	r0, {r0, r2, r4, r5, r6, ip}
 8000008:	080010c5 	stmdaeq	r0, {r0, r2, r6, r7, ip}
 800000c:	080010c5 	stmdaeq	r0, {r0, r2, r6, r7, ip}
 8000010:	080010c5 	stmdaeq	r0, {r0, r2, r6, r7, ip}
 8000014:	080010c5 	stmdaeq	r0, {r0, r2, r6, r7, ip}
 8000018:	080010c5 	stmdaeq	r0, {r0, r2, r6, r7, ip}
	...
 800002c:	080010c5 	stmdaeq	r0, {r0, r2, r6, r7, ip}
 8000030:	080010c5 	stmdaeq	r0, {r0, r2, r6, r7, ip}
 8000034:	00000000 	andeq	r0, r0, r0
 8000038:	080010c5 	stmdaeq	r0, {r0, r2, r6, r7, ip}
 800003c:	080010c5 	stmdaeq	r0, {r0, r2, r6, r7, ip}
 8000040:	080010c5 	stmdaeq	r0, {r0, r2, r6, r7, ip}
 8000044:	080010c5 	stmdaeq	r0, {r0, r2, r6, r7, ip}
 8000048:	080010c5 	stmdaeq	r0, {r0, r2, r6, r7, ip}
 800004c:	080010c5 	stmdaeq	r0, {r0, r2, r6, r7, ip}
 8000050:	080010c5 	stmdaeq	r0, {r0, r2, r6, r7, ip}
 8000054:	080010c5 	stmdaeq	r0, {r0, r2, r6, r7, ip}
 8000058:	08000411 	stmdaeq	r0, {r0, r4, sl}
 800005c:	08000435 	stmdaeq	r0, {r0, r2, r4, r5, sl}
 8000060:	08000459 	stmdaeq	r0, {r0, r3, r4, r6, sl}
 8000064:	0800047d 	stmdaeq	r0, {r0, r2, r3, r4, r5, r6, sl}
 8000068:	080004a1 	stmdaeq	r0, {r0, r5, r7, sl}
 800006c:	080010c5 	stmdaeq	r0, {r0, r2, r6, r7, ip}
 8000070:	080010c5 	stmdaeq	r0, {r0, r2, r6, r7, ip}
 8000074:	080010c5 	stmdaeq	r0, {r0, r2, r6, r7, ip}
 8000078:	080010c5 	stmdaeq	r0, {r0, r2, r6, r7, ip}
 800007c:	080010c5 	stmdaeq	r0, {r0, r2, r6, r7, ip}
 8000080:	080010c5 	stmdaeq	r0, {r0, r2, r6, r7, ip}
 8000084:	080010c5 	stmdaeq	r0, {r0, r2, r6, r7, ip}
 8000088:	080010c5 	stmdaeq	r0, {r0, r2, r6, r7, ip}
 800008c:	080010c5 	stmdaeq	r0, {r0, r2, r6, r7, ip}
 8000090:	080010c5 	stmdaeq	r0, {r0, r2, r6, r7, ip}
 8000094:	080010c5 	stmdaeq	r0, {r0, r2, r6, r7, ip}
 8000098:	080010c5 	stmdaeq	r0, {r0, r2, r6, r7, ip}
 800009c:	080004c5 	stmdaeq	r0, {r0, r2, r6, r7, sl}
 80000a0:	080010c5 	stmdaeq	r0, {r0, r2, r6, r7, ip}
 80000a4:	080010c5 	stmdaeq	r0, {r0, r2, r6, r7, ip}
 80000a8:	080010c5 	stmdaeq	r0, {r0, r2, r6, r7, ip}
 80000ac:	080010c5 	stmdaeq	r0, {r0, r2, r6, r7, ip}
 80000b0:	080010c5 	stmdaeq	r0, {r0, r2, r6, r7, ip}
 80000b4:	080010c5 	stmdaeq	r0, {r0, r2, r6, r7, ip}
 80000b8:	080010c5 	stmdaeq	r0, {r0, r2, r6, r7, ip}
 80000bc:	080010c5 	stmdaeq	r0, {r0, r2, r6, r7, ip}
 80000c0:	080010c5 	stmdaeq	r0, {r0, r2, r6, r7, ip}
 80000c4:	080010c5 	stmdaeq	r0, {r0, r2, r6, r7, ip}
 80000c8:	080010c5 	stmdaeq	r0, {r0, r2, r6, r7, ip}
 80000cc:	080010c5 	stmdaeq	r0, {r0, r2, r6, r7, ip}
 80000d0:	080010c5 	stmdaeq	r0, {r0, r2, r6, r7, ip}
 80000d4:	080010c5 	stmdaeq	r0, {r0, r2, r6, r7, ip}
 80000d8:	080010c5 	stmdaeq	r0, {r0, r2, r6, r7, ip}
 80000dc:	080010c5 	stmdaeq	r0, {r0, r2, r6, r7, ip}
 80000e0:	0800056d 	stmdaeq	r0, {r0, r2, r3, r5, r6, r8, sl}
 80000e4:	080010c5 	stmdaeq	r0, {r0, r2, r6, r7, ip}
 80000e8:	00000000 	andeq	r0, r0, r0
 80000ec:	080010c5 	stmdaeq	r0, {r0, r2, r6, r7, ip}
 80000f0:	080010c5 	stmdaeq	r0, {r0, r2, r6, r7, ip}
 80000f4:	080010c5 	stmdaeq	r0, {r0, r2, r6, r7, ip}
 80000f8:	080010c5 	stmdaeq	r0, {r0, r2, r6, r7, ip}
 80000fc:	080010c5 	stmdaeq	r0, {r0, r2, r6, r7, ip}
 8000100:	080010c5 	stmdaeq	r0, {r0, r2, r6, r7, ip}
 8000104:	080010c5 	stmdaeq	r0, {r0, r2, r6, r7, ip}
 8000108:	080010c5 	stmdaeq	r0, {r0, r2, r6, r7, ip}
 800010c:	080010c5 	stmdaeq	r0, {r0, r2, r6, r7, ip}
 8000110:	080010c5 	stmdaeq	r0, {r0, r2, r6, r7, ip}
 8000114:	080010c5 	stmdaeq	r0, {r0, r2, r6, r7, ip}
 8000118:	080010c5 	stmdaeq	r0, {r0, r2, r6, r7, ip}
 800011c:	080010c5 	stmdaeq	r0, {r0, r2, r6, r7, ip}
 8000120:	080010c5 	stmdaeq	r0, {r0, r2, r6, r7, ip}
 8000124:	080010c5 	stmdaeq	r0, {r0, r2, r6, r7, ip}
 8000128:	080010c5 	stmdaeq	r0, {r0, r2, r6, r7, ip}
 800012c:	080010c5 	stmdaeq	r0, {r0, r2, r6, r7, ip}

Disassembly of section .text:

08000130 <__do_global_dtors_aux>:
 8000130:	b510      	push	{r4, lr}
 8000132:	4c05      	ldr	r4, [pc, #20]	@ (8000148 <__do_global_dtors_aux+0x18>)
 8000134:	7823      	ldrb	r3, [r4, #0]
 8000136:	b933      	cbnz	r3, 8000146 <__do_global_dtors_aux+0x16>
 8000138:	4b04      	ldr	r3, [pc, #16]	@ (800014c <__do_global_dtors_aux+0x1c>)
 800013a:	b113      	cbz	r3, 8000142 <__do_global_dtors_aux+0x12>
 800013c:	4804      	ldr	r0, [pc, #16]	@ (8000150 <__do_global_dtors_aux+0x20>)
 800013e:	f3af 8000 	nop.w
 8000142:	2301      	movs	r3, #1
 8000144:	7023      	strb	r3, [r4, #0]
 8000146:	bd10      	pop	{r4, pc}
 8000148:	20000008 	andcs	r0, r0, r8
 800014c:	00000000 	andeq	r0, r0, r0
 8000150:	08001110 	stmdaeq	r0, {r4, r8, ip}

08000154 <frame_dummy>:
 8000154:	b508      	push	{r3, lr}
 8000156:	4b03      	ldr	r3, [pc, #12]	@ (8000164 <frame_dummy+0x10>)
 8000158:	b11b      	cbz	r3, 8000162 <frame_dummy+0xe>
 800015a:	4903      	ldr	r1, [pc, #12]	@ (8000168 <frame_dummy+0x14>)
 800015c:	4803      	ldr	r0, [pc, #12]	@ (800016c <frame_dummy+0x18>)
 800015e:	f3af 8000 	nop.w
 8000162:	bd08      	pop	{r3, pc}
 8000164:	00000000 	andeq	r0, r0, r0
 8000168:	2000000c 	andcs	r0, r0, ip
 800016c:	08001110 	stmdaeq	r0, {r4, r8, ip}

08000170 <MEXTI_uddtUpdate>:
 8000170:	b580      	push	{r7, lr}
 8000172:	b086      	sub	sp, #24
 8000174:	af00      	add	r7, sp, #0
 8000176:	6078      	str	r0, [r7, #4]
 8000178:	2300      	movs	r3, #0
 800017a:	75fb      	strb	r3, [r7, #23]
 800017c:	687b      	ldr	r3, [r7, #4]
 800017e:	2b00      	cmp	r3, #0
 8000180:	f000 80cf 	beq.w	8000322 <MEXTI_uddtUpdate+0x1b2>
 8000184:	2308      	movs	r3, #8
 8000186:	747b      	strb	r3, [r7, #17]
 8000188:	687b      	ldr	r3, [r7, #4]
 800018a:	7a1b      	ldrb	r3, [r3, #8]
 800018c:	743b      	strb	r3, [r7, #16]
 800018e:	687b      	ldr	r3, [r7, #4]
 8000190:	685b      	ldr	r3, [r3, #4]
 8000192:	60fb      	str	r3, [r7, #12]
 8000194:	f107 030c 	add.w	r3, r7, #12
 8000198:	4618      	mov	r0, r3
 800019a:	f000 fab7 	bl	800070c <MGPIO_uddtInitPin>
 800019e:	4603      	mov	r3, r0
 80001a0:	75fb      	strb	r3, [r7, #23]
 80001a2:	7dfb      	ldrb	r3, [r7, #23]
 80001a4:	2b01      	cmp	r3, #1
 80001a6:	d001      	beq.n	80001ac <MEXTI_uddtUpdate+0x3c>
 80001a8:	7dfb      	ldrb	r3, [r7, #23]
 80001aa:	e0bd      	b.n	8000328 <MEXTI_uddtUpdate+0x1b8>
 80001ac:	687b      	ldr	r3, [r7, #4]
 80001ae:	781b      	ldrb	r3, [r3, #0]
 80001b0:	089b      	lsrs	r3, r3, #2
 80001b2:	75bb      	strb	r3, [r7, #22]
 80001b4:	687b      	ldr	r3, [r7, #4]
 80001b6:	781b      	ldrb	r3, [r3, #0]
 80001b8:	f003 0303 	and.w	r3, r3, #3
 80001bc:	b2db      	uxtb	r3, r3
 80001be:	009b      	lsls	r3, r3, #2
 80001c0:	757b      	strb	r3, [r7, #21]
 80001c2:	4a5b      	ldr	r2, [pc, #364]	@ (8000330 <MEXTI_uddtUpdate+0x1c0>)
 80001c4:	7dbb      	ldrb	r3, [r7, #22]
 80001c6:	3302      	adds	r3, #2
 80001c8:	f852 2023 	ldr.w	r2, [r2, r3, lsl #2]
 80001cc:	7d7b      	ldrb	r3, [r7, #21]
 80001ce:	210f      	movs	r1, #15
 80001d0:	fa01 f303 	lsl.w	r3, r1, r3
 80001d4:	43db      	mvns	r3, r3
 80001d6:	4618      	mov	r0, r3
 80001d8:	4955      	ldr	r1, [pc, #340]	@ (8000330 <MEXTI_uddtUpdate+0x1c0>)
 80001da:	7dbb      	ldrb	r3, [r7, #22]
 80001dc:	4002      	ands	r2, r0
 80001de:	3302      	adds	r3, #2
 80001e0:	f841 2023 	str.w	r2, [r1, r3, lsl #2]
 80001e4:	4a52      	ldr	r2, [pc, #328]	@ (8000330 <MEXTI_uddtUpdate+0x1c0>)
 80001e6:	7dbb      	ldrb	r3, [r7, #22]
 80001e8:	3302      	adds	r3, #2
 80001ea:	f852 2023 	ldr.w	r2, [r2, r3, lsl #2]
 80001ee:	687b      	ldr	r3, [r7, #4]
 80001f0:	685b      	ldr	r3, [r3, #4]
 80001f2:	4950      	ldr	r1, [pc, #320]	@ (8000334 <MEXTI_uddtUpdate+0x1c4>)
 80001f4:	428b      	cmp	r3, r1
 80001f6:	d016      	beq.n	8000226 <MEXTI_uddtUpdate+0xb6>
 80001f8:	687b      	ldr	r3, [r7, #4]
 80001fa:	685b      	ldr	r3, [r3, #4]
 80001fc:	494e      	ldr	r1, [pc, #312]	@ (8000338 <MEXTI_uddtUpdate+0x1c8>)
 80001fe:	428b      	cmp	r3, r1
 8000200:	d00f      	beq.n	8000222 <MEXTI_uddtUpdate+0xb2>
 8000202:	687b      	ldr	r3, [r7, #4]
 8000204:	685b      	ldr	r3, [r3, #4]
 8000206:	494d      	ldr	r1, [pc, #308]	@ (800033c <MEXTI_uddtUpdate+0x1cc>)
 8000208:	428b      	cmp	r3, r1
 800020a:	d008      	beq.n	800021e <MEXTI_uddtUpdate+0xae>
 800020c:	687b      	ldr	r3, [r7, #4]
 800020e:	685b      	ldr	r3, [r3, #4]
 8000210:	494b      	ldr	r1, [pc, #300]	@ (8000340 <MEXTI_uddtUpdate+0x1d0>)
 8000212:	428b      	cmp	r3, r1
 8000214:	d101      	bne.n	800021a <MEXTI_uddtUpdate+0xaa>
 8000216:	2303      	movs	r3, #3
 8000218:	e006      	b.n	8000228 <MEXTI_uddtUpdate+0xb8>
 800021a:	2300      	movs	r3, #0
 800021c:	e004      	b.n	8000228 <MEXTI_uddtUpdate+0xb8>
 800021e:	2302      	movs	r3, #2
 8000220:	e002      	b.n	8000228 <MEXTI_uddtUpdate+0xb8>
 8000222:	2301      	movs	r3, #1
 8000224:	e000      	b.n	8000228 <MEXTI_uddtUpdate+0xb8>
 8000226:	2300      	movs	r3, #0
 8000228:	7d79      	ldrb	r1, [r7, #21]
 800022a:	408b      	lsls	r3, r1
 800022c:	4618      	mov	r0, r3
 800022e:	4940      	ldr	r1, [pc, #256]	@ (8000330 <MEXTI_uddtUpdate+0x1c0>)
 8000230:	7dbb      	ldrb	r3, [r7, #22]
 8000232:	4302      	orrs	r2, r0
 8000234:	3302      	adds	r3, #2
 8000236:	f841 2023 	str.w	r2, [r1, r3, lsl #2]
 800023a:	4b42      	ldr	r3, [pc, #264]	@ (8000344 <MEXTI_uddtUpdate+0x1d4>)
 800023c:	689b      	ldr	r3, [r3, #8]
 800023e:	687a      	ldr	r2, [r7, #4]
 8000240:	7812      	ldrb	r2, [r2, #0]
 8000242:	4611      	mov	r1, r2
 8000244:	2201      	movs	r2, #1
 8000246:	408a      	lsls	r2, r1
 8000248:	43d2      	mvns	r2, r2
 800024a:	4611      	mov	r1, r2
 800024c:	4a3d      	ldr	r2, [pc, #244]	@ (8000344 <MEXTI_uddtUpdate+0x1d4>)
 800024e:	400b      	ands	r3, r1
 8000250:	6093      	str	r3, [r2, #8]
 8000252:	4b3c      	ldr	r3, [pc, #240]	@ (8000344 <MEXTI_uddtUpdate+0x1d4>)
 8000254:	68db      	ldr	r3, [r3, #12]
 8000256:	687a      	ldr	r2, [r7, #4]
 8000258:	7812      	ldrb	r2, [r2, #0]
 800025a:	4611      	mov	r1, r2
 800025c:	2201      	movs	r2, #1
 800025e:	408a      	lsls	r2, r1
 8000260:	43d2      	mvns	r2, r2
 8000262:	4611      	mov	r1, r2
 8000264:	4a37      	ldr	r2, [pc, #220]	@ (8000344 <MEXTI_uddtUpdate+0x1d4>)
 8000266:	400b      	ands	r3, r1
 8000268:	60d3      	str	r3, [r2, #12]
 800026a:	687b      	ldr	r3, [r7, #4]
 800026c:	7b1b      	ldrb	r3, [r3, #12]
 800026e:	2b01      	cmp	r3, #1
 8000270:	d10b      	bne.n	800028a <MEXTI_uddtUpdate+0x11a>
 8000272:	4b34      	ldr	r3, [pc, #208]	@ (8000344 <MEXTI_uddtUpdate+0x1d4>)
 8000274:	689b      	ldr	r3, [r3, #8]
 8000276:	687a      	ldr	r2, [r7, #4]
 8000278:	7812      	ldrb	r2, [r2, #0]
 800027a:	4611      	mov	r1, r2
 800027c:	2201      	movs	r2, #1
 800027e:	408a      	lsls	r2, r1
 8000280:	4611      	mov	r1, r2
 8000282:	4a30      	ldr	r2, [pc, #192]	@ (8000344 <MEXTI_uddtUpdate+0x1d4>)
 8000284:	430b      	orrs	r3, r1
 8000286:	6093      	str	r3, [r2, #8]
 8000288:	e02c      	b.n	80002e4 <MEXTI_uddtUpdate+0x174>
 800028a:	687b      	ldr	r3, [r7, #4]
 800028c:	7b1b      	ldrb	r3, [r3, #12]
 800028e:	2b00      	cmp	r3, #0
 8000290:	d10b      	bne.n	80002aa <MEXTI_uddtUpdate+0x13a>
 8000292:	4b2c      	ldr	r3, [pc, #176]	@ (8000344 <MEXTI_uddtUpdate+0x1d4>)
 8000294:	68db      	ldr	r3, [r3, #12]
 8000296:	687a      	ldr	r2, [r7, #4]
 8000298:	7812      	ldrb	r2, [r2, #0]
 800029a:	4611      	mov	r1, r2
 800029c:	2201      	movs	r2, #1
 800029e:	408a      	lsls	r2, r1
 80002a0:	4611      	mov	r1, r2
 80002a2:	4a28      	ldr	r2, [pc, #160]	@ (8000344 <MEXTI_uddtUpdate+0x1d4>)
 80002a4:	430b      	orrs	r3, r1
 80002a6:	60d3      	str	r3, [r2, #12]
 80002a8:	e01c      	b.n	80002e4 <MEXTI_uddtUpdate+0x174>
 80002aa:	687b      	ldr	r3, [r7, #4]
 80002ac:	7b1b      	ldrb	r3, [r3, #12]
 80002ae:	2b02      	cmp	r3, #2
 80002b0:	d116      	bne.n	80002e0 <MEXTI_uddtUpdate+0x170>
 80002b2:	4b24      	ldr	r3, [pc, #144]	@ (8000344 <MEXTI_uddtUpdate+0x1d4>)
 80002b4:	689b      	ldr	r3, [r3, #8]
 80002b6:	687a      	ldr	r2, [r7, #4]
 80002b8:	7812      	ldrb	r2, [r2, #0]
 80002ba:	4611      	mov	r1, r2
 80002bc:	2201      	movs	r2, #1
 80002be:	408a      	lsls	r2, r1
 80002c0:	4611      	mov	r1, r2
 80002c2:	4a20      	ldr	r2, [pc, #128]	@ (8000344 <MEXTI_uddtUpdate+0x1d4>)
 80002c4:	430b      	orrs	r3, r1
 80002c6:	6093      	str	r3, [r2, #8]
 80002c8:	4b1e      	ldr	r3, [pc, #120]	@ (8000344 <MEXTI_uddtUpdate+0x1d4>)
 80002ca:	68db      	ldr	r3, [r3, #12]
 80002cc:	687a      	ldr	r2, [r7, #4]
 80002ce:	7812      	ldrb	r2, [r2, #0]
 80002d0:	4611      	mov	r1, r2
 80002d2:	2201      	movs	r2, #1
 80002d4:	408a      	lsls	r2, r1
 80002d6:	4611      	mov	r1, r2
 80002d8:	4a1a      	ldr	r2, [pc, #104]	@ (8000344 <MEXTI_uddtUpdate+0x1d4>)
 80002da:	430b      	orrs	r3, r1
 80002dc:	60d3      	str	r3, [r2, #12]
 80002de:	e001      	b.n	80002e4 <MEXTI_uddtUpdate+0x174>
 80002e0:	2304      	movs	r3, #4
 80002e2:	75fb      	strb	r3, [r7, #23]
 80002e4:	687b      	ldr	r3, [r7, #4]
 80002e6:	781b      	ldrb	r3, [r3, #0]
 80002e8:	4619      	mov	r1, r3
 80002ea:	687b      	ldr	r3, [r7, #4]
 80002ec:	691b      	ldr	r3, [r3, #16]
 80002ee:	4a16      	ldr	r2, [pc, #88]	@ (8000348 <MEXTI_uddtUpdate+0x1d8>)
 80002f0:	f842 3021 	str.w	r3, [r2, r1, lsl #2]
 80002f4:	687b      	ldr	r3, [r7, #4]
 80002f6:	7b5b      	ldrb	r3, [r3, #13]
 80002f8:	2b01      	cmp	r3, #1
 80002fa:	d105      	bne.n	8000308 <MEXTI_uddtUpdate+0x198>
 80002fc:	6878      	ldr	r0, [r7, #4]
 80002fe:	f000 f861 	bl	80003c4 <MEXTI_uddtUnmaskLine>
 8000302:	4603      	mov	r3, r0
 8000304:	75fb      	strb	r3, [r7, #23]
 8000306:	e00e      	b.n	8000326 <MEXTI_uddtUpdate+0x1b6>
 8000308:	687b      	ldr	r3, [r7, #4]
 800030a:	7b5b      	ldrb	r3, [r3, #13]
 800030c:	2b00      	cmp	r3, #0
 800030e:	d105      	bne.n	800031c <MEXTI_uddtUpdate+0x1ac>
 8000310:	6878      	ldr	r0, [r7, #4]
 8000312:	f000 f831 	bl	8000378 <MEXTI_uddtMaskLine>
 8000316:	4603      	mov	r3, r0
 8000318:	75fb      	strb	r3, [r7, #23]
 800031a:	e004      	b.n	8000326 <MEXTI_uddtUpdate+0x1b6>
 800031c:	2304      	movs	r3, #4
 800031e:	75fb      	strb	r3, [r7, #23]
 8000320:	e001      	b.n	8000326 <MEXTI_uddtUpdate+0x1b6>
 8000322:	2302      	movs	r3, #2
 8000324:	75fb      	strb	r3, [r7, #23]
 8000326:	7dfb      	ldrb	r3, [r7, #23]
 8000328:	4618      	mov	r0, r3
 800032a:	3718      	adds	r7, #24
 800032c:	46bd      	mov	sp, r7
 800032e:	bd80      	pop	{r7, pc}
 8000330:	40010000 	andmi	r0, r1, r0
 8000334:	40010800 	andmi	r0, r1, r0, lsl #16
 8000338:	40010c00 	andmi	r0, r1, r0, lsl #24
 800033c:	40011000 	andmi	r1, r1, r0
 8000340:	40011400 	andmi	r1, r1, r0, lsl #8
 8000344:	40010400 	andmi	r0, r1, r0, lsl #8
 8000348:	20000024 	andcs	r0, r0, r4, lsr #32

0800034c <MEXTI_uddtInit>:
 800034c:	b580      	push	{r7, lr}
 800034e:	b084      	sub	sp, #16
 8000350:	af00      	add	r7, sp, #0
 8000352:	6078      	str	r0, [r7, #4]
 8000354:	2300      	movs	r3, #0
 8000356:	73fb      	strb	r3, [r7, #15]
 8000358:	687b      	ldr	r3, [r7, #4]
 800035a:	2b00      	cmp	r3, #0
 800035c:	d005      	beq.n	800036a <MEXTI_uddtInit+0x1e>
 800035e:	6878      	ldr	r0, [r7, #4]
 8000360:	f7ff ff06 	bl	8000170 <MEXTI_uddtUpdate>
 8000364:	4603      	mov	r3, r0
 8000366:	73fb      	strb	r3, [r7, #15]
 8000368:	e001      	b.n	800036e <MEXTI_uddtInit+0x22>
 800036a:	2302      	movs	r3, #2
 800036c:	73fb      	strb	r3, [r7, #15]
 800036e:	7bfb      	ldrb	r3, [r7, #15]
 8000370:	4618      	mov	r0, r3
 8000372:	3710      	adds	r7, #16
 8000374:	46bd      	mov	sp, r7
 8000376:	bd80      	pop	{r7, pc}

08000378 <MEXTI_uddtMaskLine>:
 8000378:	b580      	push	{r7, lr}
 800037a:	b084      	sub	sp, #16
 800037c:	af00      	add	r7, sp, #0
 800037e:	6078      	str	r0, [r7, #4]
 8000380:	2300      	movs	r3, #0
 8000382:	73fb      	strb	r3, [r7, #15]
 8000384:	687b      	ldr	r3, [r7, #4]
 8000386:	2b00      	cmp	r3, #0
 8000388:	d013      	beq.n	80003b2 <MEXTI_uddtMaskLine+0x3a>
 800038a:	4b0d      	ldr	r3, [pc, #52]	@ (80003c0 <MEXTI_uddtMaskLine+0x48>)
 800038c:	681b      	ldr	r3, [r3, #0]
 800038e:	687a      	ldr	r2, [r7, #4]
 8000390:	7812      	ldrb	r2, [r2, #0]
 8000392:	4611      	mov	r1, r2
 8000394:	2201      	movs	r2, #1
 8000396:	408a      	lsls	r2, r1
 8000398:	43d2      	mvns	r2, r2
 800039a:	4611      	mov	r1, r2
 800039c:	4a08      	ldr	r2, [pc, #32]	@ (80003c0 <MEXTI_uddtMaskLine+0x48>)
 800039e:	400b      	ands	r3, r1
 80003a0:	6013      	str	r3, [r2, #0]
 80003a2:	687b      	ldr	r3, [r7, #4]
 80003a4:	7a5b      	ldrb	r3, [r3, #9]
 80003a6:	4618      	mov	r0, r3
 80003a8:	f000 faec 	bl	8000984 <MNVIC_uddtDisableIRQ>
 80003ac:	4603      	mov	r3, r0
 80003ae:	73fb      	strb	r3, [r7, #15]
 80003b0:	e001      	b.n	80003b6 <MEXTI_uddtMaskLine+0x3e>
 80003b2:	2302      	movs	r3, #2
 80003b4:	73fb      	strb	r3, [r7, #15]
 80003b6:	7bfb      	ldrb	r3, [r7, #15]
 80003b8:	4618      	mov	r0, r3
 80003ba:	3710      	adds	r7, #16
 80003bc:	46bd      	mov	sp, r7
 80003be:	bd80      	pop	{r7, pc}
 80003c0:	40010400 	andmi	r0, r1, r0, lsl #8

080003c4 <MEXTI_uddtUnmaskLine>:
 80003c4:	b580      	push	{r7, lr}
 80003c6:	b084      	sub	sp, #16
 80003c8:	af00      	add	r7, sp, #0
 80003ca:	6078      	str	r0, [r7, #4]
 80003cc:	2300      	movs	r3, #0
 80003ce:	73fb      	strb	r3, [r7, #15]
 80003d0:	687b      	ldr	r3, [r7, #4]
 80003d2:	2b00      	cmp	r3, #0
 80003d4:	d012      	beq.n	80003fc <MEXTI_uddtUnmaskLine+0x38>
 80003d6:	4b0d      	ldr	r3, [pc, #52]	@ (800040c <MEXTI_uddtUnmaskLine+0x48>)
 80003d8:	681b      	ldr	r3, [r3, #0]
 80003da:	687a      	ldr	r2, [r7, #4]
 80003dc:	7812      	ldrb	r2, [r2, #0]
 80003de:	4611      	mov	r1, r2
 80003e0:	2201      	movs	r2, #1
 80003e2:	408a      	lsls	r2, r1
 80003e4:	4611      	mov	r1, r2
 80003e6:	4a09      	ldr	r2, [pc, #36]	@ (800040c <MEXTI_uddtUnmaskLine+0x48>)
 80003e8:	430b      	orrs	r3, r1
 80003ea:	6013      	str	r3, [r2, #0]
 80003ec:	687b      	ldr	r3, [r7, #4]
 80003ee:	7a5b      	ldrb	r3, [r3, #9]
 80003f0:	4618      	mov	r0, r3
 80003f2:	f000 faa3 	bl	800093c <MNVIC_uddtEnableIRQ>
 80003f6:	4603      	mov	r3, r0
 80003f8:	73fb      	strb	r3, [r7, #15]
 80003fa:	e001      	b.n	8000400 <MEXTI_uddtUnmaskLine+0x3c>
 80003fc:	2302      	movs	r3, #2
 80003fe:	73fb      	strb	r3, [r7, #15]
 8000400:	7bfb      	ldrb	r3, [r7, #15]
 8000402:	4618      	mov	r0, r3
 8000404:	3710      	adds	r7, #16
 8000406:	46bd      	mov	sp, r7
 8000408:	bd80      	pop	{r7, pc}
 800040a:	bf00      	nop
 800040c:	40010400 	andmi	r0, r1, r0, lsl #8

08000410 <EXTI0_IRQHandler>:
 8000410:	b580      	push	{r7, lr}
 8000412:	af00      	add	r7, sp, #0
 8000414:	4b05      	ldr	r3, [pc, #20]	@ (800042c <EXTI0_IRQHandler+0x1c>)
 8000416:	695b      	ldr	r3, [r3, #20]
 8000418:	4a04      	ldr	r2, [pc, #16]	@ (800042c <EXTI0_IRQHandler+0x1c>)
 800041a:	f043 0301 	orr.w	r3, r3, #1
 800041e:	6153      	str	r3, [r2, #20]
 8000420:	4b03      	ldr	r3, [pc, #12]	@ (8000430 <EXTI0_IRQHandler+0x20>)
 8000422:	681b      	ldr	r3, [r3, #0]
 8000424:	4798      	blx	r3
 8000426:	bf00      	nop
 8000428:	bd80      	pop	{r7, pc}
 800042a:	bf00      	nop
 800042c:	40010400 	andmi	r0, r1, r0, lsl #8
 8000430:	20000024 	andcs	r0, r0, r4, lsr #32

08000434 <EXTI1_IRQHandler>:
 8000434:	b580      	push	{r7, lr}
 8000436:	af00      	add	r7, sp, #0
 8000438:	4b05      	ldr	r3, [pc, #20]	@ (8000450 <EXTI1_IRQHandler+0x1c>)
 800043a:	695b      	ldr	r3, [r3, #20]
 800043c:	4a04      	ldr	r2, [pc, #16]	@ (8000450 <EXTI1_IRQHandler+0x1c>)
 800043e:	f043 0302 	orr.w	r3, r3, #2
 8000442:	6153      	str	r3, [r2, #20]
 8000444:	4b03      	ldr	r3, [pc, #12]	@ (8000454 <EXTI1_IRQHandler+0x20>)
 8000446:	685b      	ldr	r3, [r3, #4]
 8000448:	4798      	blx	r3
 800044a:	bf00      	nop
 800044c:	bd80      	pop	{r7, pc}
 800044e:	bf00      	nop
 8000450:	40010400 	andmi	r0, r1, r0, lsl #8
 8000454:	20000024 	andcs	r0, r0, r4, lsr #32

08000458 <EXTI2_IRQHandler>:
 8000458:	b580      	push	{r7, lr}
 800045a:	af00      	add	r7, sp, #0
 800045c:	4b05      	ldr	r3, [pc, #20]	@ (8000474 <EXTI2_IRQHandler+0x1c>)
 800045e:	695b      	ldr	r3, [r3, #20]
 8000460:	4a04      	ldr	r2, [pc, #16]	@ (8000474 <EXTI2_IRQHandler+0x1c>)
 8000462:	f043 0304 	orr.w	r3, r3, #4
 8000466:	6153      	str	r3, [r2, #20]
 8000468:	4b03      	ldr	r3, [pc, #12]	@ (8000478 <EXTI2_IRQHandler+0x20>)
 800046a:	689b      	ldr	r3, [r3, #8]
 800046c:	4798      	blx	r3
 800046e:	bf00      	nop
 8000470:	bd80      	pop	{r7, pc}
 8000472:	bf00      	nop
 8000474:	40010400 	andmi	r0, r1, r0, lsl #8
 8000478:	20000024 	andcs	r0, r0, r4, lsr #32

0800047c <EXTI3_IRQHandler>:
 800047c:	b580      	push	{r7, lr}
 800047e:	af00      	add	r7, sp, #0
 8000480:	4b05      	ldr	r3, [pc, #20]	@ (8000498 <EXTI3_IRQHandler+0x1c>)
 8000482:	695b      	ldr	r3, [r3, #20]
 8000484:	4a04      	ldr	r2, [pc, #16]	@ (8000498 <EXTI3_IRQHandler+0x1c>)
 8000486:	f043 0308 	orr.w	r3, r3, #8
 800048a:	6153      	str	r3, [r2, #20]
 800048c:	4b03      	ldr	r3, [pc, #12]	@ (800049c <EXTI3_IRQHandler+0x20>)
 800048e:	68db      	ldr	r3, [r3, #12]
 8000490:	4798      	blx	r3
 8000492:	bf00      	nop
 8000494:	bd80      	pop	{r7, pc}
 8000496:	bf00      	nop
 8000498:	40010400 	andmi	r0, r1, r0, lsl #8
 800049c:	20000024 	andcs	r0, r0, r4, lsr #32

080004a0 <EXTI4_IRQHandler>:
 80004a0:	b580      	push	{r7, lr}
 80004a2:	af00      	add	r7, sp, #0
 80004a4:	4b05      	ldr	r3, [pc, #20]	@ (80004bc <EXTI4_IRQHandler+0x1c>)
 80004a6:	695b      	ldr	r3, [r3, #20]
 80004a8:	4a04      	ldr	r2, [pc, #16]	@ (80004bc <EXTI4_IRQHandler+0x1c>)
 80004aa:	f043 0310 	orr.w	r3, r3, #16
 80004ae:	6153      	str	r3, [r2, #20]
 80004b0:	4b03      	ldr	r3, [pc, #12]	@ (80004c0 <EXTI4_IRQHandler+0x20>)
 80004b2:	691b      	ldr	r3, [r3, #16]
 80004b4:	4798      	blx	r3
 80004b6:	bf00      	nop
 80004b8:	bd80      	pop	{r7, pc}
 80004ba:	bf00      	nop
 80004bc:	40010400 	andmi	r0, r1, r0, lsl #8
 80004c0:	20000024 	andcs	r0, r0, r4, lsr #32

080004c4 <EXTI9_5_IRQHandler>:
 80004c4:	b580      	push	{r7, lr}
 80004c6:	af00      	add	r7, sp, #0
 80004c8:	4b26      	ldr	r3, [pc, #152]	@ (8000564 <EXTI9_5_IRQHandler+0xa0>)
 80004ca:	695b      	ldr	r3, [r3, #20]
 80004cc:	f003 0320 	and.w	r3, r3, #32
 80004d0:	2b00      	cmp	r3, #0
 80004d2:	d008      	beq.n	80004e6 <EXTI9_5_IRQHandler+0x22>
 80004d4:	4b23      	ldr	r3, [pc, #140]	@ (8000564 <EXTI9_5_IRQHandler+0xa0>)
 80004d6:	695b      	ldr	r3, [r3, #20]
 80004d8:	4a22      	ldr	r2, [pc, #136]	@ (8000564 <EXTI9_5_IRQHandler+0xa0>)
 80004da:	f043 0320 	orr.w	r3, r3, #32
 80004de:	6153      	str	r3, [r2, #20]
 80004e0:	4b21      	ldr	r3, [pc, #132]	@ (8000568 <EXTI9_5_IRQHandler+0xa4>)
 80004e2:	695b      	ldr	r3, [r3, #20]
 80004e4:	4798      	blx	r3
 80004e6:	4b1f      	ldr	r3, [pc, #124]	@ (8000564 <EXTI9_5_IRQHandler+0xa0>)
 80004e8:	695b      	ldr	r3, [r3, #20]
 80004ea:	f003 0340 	and.w	r3, r3, #64	@ 0x40
 80004ee:	2b00      	cmp	r3, #0
 80004f0:	d008      	beq.n	8000504 <EXTI9_5_IRQHandler+0x40>
 80004f2:	4b1c      	ldr	r3, [pc, #112]	@ (8000564 <EXTI9_5_IRQHandler+0xa0>)
 80004f4:	695b      	ldr	r3, [r3, #20]
 80004f6:	4a1b      	ldr	r2, [pc, #108]	@ (8000564 <EXTI9_5_IRQHandler+0xa0>)
 80004f8:	f043 0340 	orr.w	r3, r3, #64	@ 0x40
 80004fc:	6153      	str	r3, [r2, #20]
 80004fe:	4b1a      	ldr	r3, [pc, #104]	@ (8000568 <EXTI9_5_IRQHandler+0xa4>)
 8000500:	699b      	ldr	r3, [r3, #24]
 8000502:	4798      	blx	r3
 8000504:	4b17      	ldr	r3, [pc, #92]	@ (8000564 <EXTI9_5_IRQHandler+0xa0>)
 8000506:	695b      	ldr	r3, [r3, #20]
 8000508:	f003 0380 	and.w	r3, r3, #128	@ 0x80
 800050c:	2b00      	cmp	r3, #0
 800050e:	d008      	beq.n	8000522 <EXTI9_5_IRQHandler+0x5e>
 8000510:	4b14      	ldr	r3, [pc, #80]	@ (8000564 <EXTI9_5_IRQHandler+0xa0>)
 8000512:	695b      	ldr	r3, [r3, #20]
 8000514:	4a13      	ldr	r2, [pc, #76]	@ (8000564 <EXTI9_5_IRQHandler+0xa0>)
 8000516:	f043 0380 	orr.w	r3, r3, #128	@ 0x80
 800051a:	6153      	str	r3, [r2, #20]
 800051c:	4b12      	ldr	r3, [pc, #72]	@ (8000568 <EXTI9_5_IRQHandler+0xa4>)
 800051e:	69db      	ldr	r3, [r3, #28]
 8000520:	4798      	blx	r3
 8000522:	4b10      	ldr	r3, [pc, #64]	@ (8000564 <EXTI9_5_IRQHandler+0xa0>)
 8000524:	695b      	ldr	r3, [r3, #20]
 8000526:	f403 7380 	and.w	r3, r3, #256	@ 0x100
 800052a:	2b00      	cmp	r3, #0
 800052c:	d008      	beq.n	8000540 <EXTI9_5_IRQHandler+0x7c>
 800052e:	4b0d      	ldr	r3, [pc, #52]	@ (8000564 <EXTI9_5_IRQHandler+0xa0>)
 8000530:	695b      	ldr	r3, [r3, #20]
 8000532:	4a0c      	ldr	r2, [pc, #48]	@ (8000564 <EXTI9_5_IRQHandler+0xa0>)
 8000534:	f443 7380 	orr.w	r3, r3, #256	@ 0x100
 8000538:	6153      	str	r3, [r2, #20]
 800053a:	4b0b      	ldr	r3, [pc, #44]	@ (8000568 <EXTI9_5_IRQHandler+0xa4>)
 800053c:	6a1b      	ldr	r3, [r3, #32]
 800053e:	4798      	blx	r3
 8000540:	4b08      	ldr	r3, [pc, #32]	@ (8000564 <EXTI9_5_IRQHandler+0xa0>)
 8000542:	695b      	ldr	r3, [r3, #20]
 8000544:	f403 7300 	and.w	r3, r3, #512	@ 0x200
 8000548:	2b00      	cmp	r3, #0
 800054a:	d008      	beq.n	800055e <EXTI9_5_IRQHandler+0x9a>
 800054c:	4b05      	ldr	r3, [pc, #20]	@ (8000564 <EXTI9_5_IRQHandler+0xa0>)
 800054e:	695b      	ldr	r3, [r3, #20]
 8000550:	4a04      	ldr	r2, [pc, #16]	@ (8000564 <EXTI9_5_IRQHandler+0xa0>)
 8000552:	f443 7300 	orr.w	r3, r3, #512	@ 0x200
 8000556:	6153      	str	r3, [r2, #20]
 8000558:	4b03      	ldr	r3, [pc, #12]	@ (8000568 <EXTI9_5_IRQHandler+0xa4>)
 800055a:	6a5b      	ldr	r3, [r3, #36]	@ 0x24
 800055c:	4798      	blx	r3
 800055e:	bf00      	nop
 8000560:	bd80      	pop	{r7, pc}
 8000562:	bf00      	nop
 8000564:	40010400 	andmi	r0, r1, r0, lsl #8
 8000568:	20000024 	andcs	r0, r0, r4, lsr #32

0800056c <EXTI15_10_IRQHandler>:
 800056c:	b580      	push	{r7, lr}
 800056e:	af00      	add	r7, sp, #0
 8000570:	4b2d      	ldr	r3, [pc, #180]	@ (8000628 <EXTI15_10_IRQHandler+0xbc>)
 8000572:	695b      	ldr	r3, [r3, #20]
 8000574:	f403 6380 	and.w	r3, r3, #1024	@ 0x400
 8000578:	2b00      	cmp	r3, #0
 800057a:	d008      	beq.n	800058e <EXTI15_10_IRQHandler+0x22>
 800057c:	4b2a      	ldr	r3, [pc, #168]	@ (8000628 <EXTI15_10_IRQHandler+0xbc>)
 800057e:	695b      	ldr	r3, [r3, #20]
 8000580:	4a29      	ldr	r2, [pc, #164]	@ (8000628 <EXTI15_10_IRQHandler+0xbc>)
 8000582:	f443 6380 	orr.w	r3, r3, #1024	@ 0x400
 8000586:	6153      	str	r3, [r2, #20]
 8000588:	4b28      	ldr	r3, [pc, #160]	@ (800062c <EXTI15_10_IRQHandler+0xc0>)
 800058a:	6a9b      	ldr	r3, [r3, #40]	@ 0x28
 800058c:	4798      	blx	r3
 800058e:	4b26      	ldr	r3, [pc, #152]	@ (8000628 <EXTI15_10_IRQHandler+0xbc>)
 8000590:	695b      	ldr	r3, [r3, #20]
 8000592:	f403 6300 	and.w	r3, r3, #2048	@ 0x800
 8000596:	2b00      	cmp	r3, #0
 8000598:	d008      	beq.n	80005ac <EXTI15_10_IRQHandler+0x40>
 800059a:	4b23      	ldr	r3, [pc, #140]	@ (8000628 <EXTI15_10_IRQHandler+0xbc>)
 800059c:	695b      	ldr	r3, [r3, #20]
 800059e:	4a22      	ldr	r2, [pc, #136]	@ (8000628 <EXTI15_10_IRQHandler+0xbc>)
 80005a0:	f443 6300 	orr.w	r3, r3, #2048	@ 0x800
 80005a4:	6153      	str	r3, [r2, #20]
 80005a6:	4b21      	ldr	r3, [pc, #132]	@ (800062c <EXTI15_10_IRQHandler+0xc0>)
 80005a8:	6adb      	ldr	r3, [r3, #44]	@ 0x2c
 80005aa:	4798      	blx	r3
 80005ac:	4b1e      	ldr	r3, [pc, #120]	@ (8000628 <EXTI15_10_IRQHandler+0xbc>)
 80005ae:	695b      	ldr	r3, [r3, #20]
 80005b0:	f403 5380 	and.w	r3, r3, #4096	@ 0x1000
 80005b4:	2b00      	cmp	r3, #0
 80005b6:	d008      	beq.n	80005ca <EXTI15_10_IRQHandler+0x5e>
 80005b8:	4b1b      	ldr	r3, [pc, #108]	@ (8000628 <EXTI15_10_IRQHandler+0xbc>)
 80005ba:	695b      	ldr	r3, [r3, #20]
 80005bc:	4a1a      	ldr	r2, [pc, #104]	@ (8000628 <EXTI15_10_IRQHandler+0xbc>)
 80005be:	f443 5380 	orr.w	r3, r3, #4096	@ 0x1000
 80005c2:	6153      	str	r3, [r2, #20]
 80005c4:	4b19      	ldr	r3, [pc, #100]	@ (800062c <EXTI15_10_IRQHandler+0xc0>)
 80005c6:	6b1b      	ldr	r3, [r3, #48]	@ 0x30
 80005c8:	4798      	blx	r3
 80005ca:	4b17      	ldr	r3, [pc, #92]	@ (8000628 <EXTI15_10_IRQHandler+0xbc>)
 80005cc:	695b      	ldr	r3, [r3, #20]
 80005ce:	f403 5300 	and.w	r3, r3, #8192	@ 0x2000
 80005d2:	2b00      	cmp	r3, #0
 80005d4:	d008      	beq.n	80005e8 <EXTI15_10_IRQHandler+0x7c>
 80005d6:	4b14      	ldr	r3, [pc, #80]	@ (8000628 <EXTI15_10_IRQHandler+0xbc>)
 80005d8:	695b      	ldr	r3, [r3, #20]
 80005da:	4a13      	ldr	r2, [pc, #76]	@ (8000628 <EXTI15_10_IRQHandler+0xbc>)
 80005dc:	f443 5300 	orr.w	r3, r3, #8192	@ 0x2000
 80005e0:	6153      	str	r3, [r2, #20]
 80005e2:	4b12      	ldr	r3, [pc, #72]	@ (800062c <EXTI15_10_IRQHandler+0xc0>)
 80005e4:	6b5b      	ldr	r3, [r3, #52]	@ 0x34
 80005e6:	4798      	blx	r3
 80005e8:	4b0f      	ldr	r3, [pc, #60]	@ (8000628 <EXTI15_10_IRQHandler+0xbc>)
 80005ea:	695b      	ldr	r3, [r3, #20]
 80005ec:	f403 4380 	and.w	r3, r3, #16384	@ 0x4000
 80005f0:	2b00      	cmp	r3, #0
 80005f2:	d008      	beq.n	8000606 <EXTI15_10_IRQHandler+0x9a>
 80005f4:	4b0c      	ldr	r3, [pc, #48]	@ (8000628 <EXTI15_10_IRQHandler+0xbc>)
 80005f6:	695b      	ldr	r3, [r3, #20]
 80005f8:	4a0b      	ldr	r2, [pc, #44]	@ (8000628 <EXTI15_10_IRQHandler+0xbc>)
 80005fa:	f443 4380 	orr.w	r3, r3, #16384	@ 0x4000
 80005fe:	6153      	str	r3, [r2, #20]
 8000600:	4b0a      	ldr	r3, [pc, #40]	@ (800062c <EXTI15_10_IRQHandler+0xc0>)
 8000602:	6b9b      	ldr	r3, [r3, #56]	@ 0x38
 8000604:	4798      	blx	r3
 8000606:	4b08      	ldr	r3, [pc, #32]	@ (8000628 <EXTI15_10_IRQHandler+0xbc>)
 8000608:	695b      	ldr	r3, [r3, #20]
 800060a:	f403 4300 	and.w	r3, r3, #32768	@ 0x8000
 800060e:	2b00      	cmp	r3, #0
 8000610:	d008      	beq.n	8000624 <EXTI15_10_IRQHandler+0xb8>
 8000612:	4b05      	ldr	r3, [pc, #20]	@ (8000628 <EXTI15_10_IRQHandler+0xbc>)
 8000614:	695b      	ldr	r3, [r3, #20]
 8000616:	4a04      	ldr	r2, [pc, #16]	@ (8000628 <EXTI15_10_IRQHandler+0xbc>)
 8000618:	f443 4300 	orr.w	r3, r3, #32768	@ 0x8000
 800061c:	6153      	str	r3, [r2, #20]
 800061e:	4b03      	ldr	r3, [pc, #12]	@ (800062c <EXTI15_10_IRQHandler+0xc0>)
 8000620:	6bdb      	ldr	r3, [r3, #60]	@ 0x3c
 8000622:	4798      	blx	r3
 8000624:	bf00      	nop
 8000626:	bd80      	pop	{r7, pc}
 8000628:	40010400 	andmi	r0, r1, r0, lsl #8
 800062c:	20000024 	andcs	r0, r0, r4, lsr #32

08000630 <Get_CRLH_Position>:
 8000630:	b480      	push	{r7}
 8000632:	b085      	sub	sp, #20
 8000634:	af00      	add	r7, sp, #0
 8000636:	4603      	mov	r3, r0
 8000638:	6039      	str	r1, [r7, #0]
 800063a:	71fb      	strb	r3, [r7, #7]
 800063c:	2300      	movs	r3, #0
 800063e:	73fb      	strb	r3, [r7, #15]
 8000640:	683b      	ldr	r3, [r7, #0]
 8000642:	2b00      	cmp	r3, #0
 8000644:	d059      	beq.n	80006fa <Get_CRLH_Position+0xca>
 8000646:	79fb      	ldrb	r3, [r7, #7]
 8000648:	2b0f      	cmp	r3, #15
 800064a:	d853      	bhi.n	80006f4 <Get_CRLH_Position+0xc4>
 800064c:	a201      	add	r2, pc, #4	@ (adr r2, 8000654 <Get_CRLH_Position+0x24>)
 800064e:	f852 f023 	ldr.w	pc, [r2, r3, lsl #2]
 8000652:	bf00      	nop
 8000654:	08000695 	stmdaeq	r0, {r0, r2, r4, r7, r9, sl}
 8000658:	080006a1 	stmdaeq	r0, {r0, r5, r7, r9, sl}
 800065c:	080006ad 	stmdaeq	r0, {r0, r2, r3, r5, r7, r9, sl}
 8000660:	080006b9 	stmdaeq	r0, {r0, r3, r4, r5, r7, r9, sl}
 8000664:	080006c5 	stmdaeq	r0, {r0, r2, r6, r7, r9, sl}
 8000668:	080006d1 	stmdaeq	r0, {r0, r4, r6, r7, r9, sl}
 800066c:	080006dd 	stmdaeq	r0, {r0, r2, r3, r4, r6, r7, r9, sl}
 8000670:	080006e9 	stmdaeq	r0, {r0, r3, r5, r6, r7, r9, sl}
 8000674:	08000695 	stmdaeq	r0, {r0, r2, r4, r7, r9, sl}
 8000678:	080006a1 	stmdaeq	r0, {r0, r5, r7, r9, sl}
 800067c:	080006ad 	stmdaeq	r0, {r0, r2, r3, r5, r7, r9, sl}
 8000680:	080006b9 	stmdaeq	r0, {r0, r3, r4, r5, r7, r9, sl}
 8000684:	080006c5 	stmdaeq	r0, {r0, r2, r6, r7, r9, sl}
 8000688:	080006d1 	stmdaeq	r0, {r0, r4, r6, r7, r9, sl}
 800068c:	080006dd 	stmdaeq	r0, {r0, r2, r3, r4, r6, r7, r9, sl}
 8000690:	080006e9 	stmdaeq	r0, {r0, r3, r5, r6, r7, r9, sl}
 8000694:	683b      	ldr	r3, [r7, #0]
 8000696:	2200      	movs	r2, #0
 8000698:	701a      	strb	r2, [r3, #0]
 800069a:	2301      	movs	r3, #1
 800069c:	73fb      	strb	r3, [r7, #15]
 800069e:	e02e      	b.n	80006fe <Get_CRLH_Position+0xce>
 80006a0:	683b      	ldr	r3, [r7, #0]
 80006a2:	2204      	movs	r2, #4
 80006a4:	701a      	strb	r2, [r3, #0]
 80006a6:	2301      	movs	r3, #1
 80006a8:	73fb      	strb	r3, [r7, #15]
 80006aa:	e028      	b.n	80006fe <Get_CRLH_Position+0xce>
 80006ac:	683b      	ldr	r3, [r7, #0]
 80006ae:	2208      	movs	r2, #8
 80006b0:	701a      	strb	r2, [r3, #0]
 80006b2:	2301      	movs	r3, #1
 80006b4:	73fb      	strb	r3, [r7, #15]
 80006b6:	e022      	b.n	80006fe <Get_CRLH_Position+0xce>
 80006b8:	683b      	ldr	r3, [r7, #0]
 80006ba:	220c      	movs	r2, #12
 80006bc:	701a      	strb	r2, [r3, #0]
 80006be:	2301      	movs	r3, #1
 80006c0:	73fb      	strb	r3, [r7, #15]
 80006c2:	e01c      	b.n	80006fe <Get_CRLH_Position+0xce>
 80006c4:	683b      	ldr	r3, [r7, #0]
 80006c6:	2210      	movs	r2, #16
 80006c8:	701a      	strb	r2, [r3, #0]
 80006ca:	2301      	movs	r3, #1
 80006cc:	73fb      	strb	r3, [r7, #15]
 80006ce:	e016      	b.n	80006fe <Get_CRLH_Position+0xce>
 80006d0:	683b      	ldr	r3, [r7, #0]
 80006d2:	2214      	movs	r2, #20
 80006d4:	701a      	strb	r2, [r3, #0]
 80006d6:	2301      	movs	r3, #1
 80006d8:	73fb      	strb	r3, [r7, #15]
 80006da:	e010      	b.n	80006fe <Get_CRLH_Position+0xce>
 80006dc:	683b      	ldr	r3, [r7, #0]
 80006de:	2218      	movs	r2, #24
 80006e0:	701a      	strb	r2, [r3, #0]
 80006e2:	2301      	movs	r3, #1
 80006e4:	73fb      	strb	r3, [r7, #15]
 80006e6:	e00a      	b.n	80006fe <Get_CRLH_Position+0xce>
 80006e8:	683b      	ldr	r3, [r7, #0]
 80006ea:	221c      	movs	r2, #28
 80006ec:	701a      	strb	r2, [r3, #0]
 80006ee:	2301      	movs	r3, #1
 80006f0:	73fb      	strb	r3, [r7, #15]
 80006f2:	e004      	b.n	80006fe <Get_CRLH_Position+0xce>
 80006f4:	2304      	movs	r3, #4
 80006f6:	73fb      	strb	r3, [r7, #15]
 80006f8:	e001      	b.n	80006fe <Get_CRLH_Position+0xce>
 80006fa:	2302      	movs	r3, #2
 80006fc:	73fb      	strb	r3, [r7, #15]
 80006fe:	7bfb      	ldrb	r3, [r7, #15]
 8000700:	4618      	mov	r0, r3
 8000702:	3714      	adds	r7, #20
 8000704:	46bd      	mov	sp, r7
 8000706:	bc80      	pop	{r7}
 8000708:	4770      	bx	lr
 800070a:	bf00      	nop

0800070c <MGPIO_uddtInitPin>:
 800070c:	b580      	push	{r7, lr}
 800070e:	b086      	sub	sp, #24
 8000710:	af00      	add	r7, sp, #0
 8000712:	6078      	str	r0, [r7, #4]
 8000714:	2300      	movs	r3, #0
 8000716:	75fb      	strb	r3, [r7, #23]
 8000718:	687b      	ldr	r3, [r7, #4]
 800071a:	2b00      	cmp	r3, #0
 800071c:	f000 80c7 	beq.w	80008ae <MGPIO_uddtInitPin+0x1a2>
 8000720:	2300      	movs	r3, #0
 8000722:	613b      	str	r3, [r7, #16]
 8000724:	2300      	movs	r3, #0
 8000726:	73fb      	strb	r3, [r7, #15]
 8000728:	687b      	ldr	r3, [r7, #4]
 800072a:	791b      	ldrb	r3, [r3, #4]
 800072c:	f107 020e 	add.w	r2, r7, #14
 8000730:	4611      	mov	r1, r2
 8000732:	4618      	mov	r0, r3
 8000734:	f7ff ff7c 	bl	8000630 <Get_CRLH_Position>
 8000738:	4603      	mov	r3, r0
 800073a:	75fb      	strb	r3, [r7, #23]
 800073c:	687b      	ldr	r3, [r7, #4]
 800073e:	791b      	ldrb	r3, [r3, #4]
 8000740:	2b07      	cmp	r3, #7
 8000742:	d802      	bhi.n	800074a <MGPIO_uddtInitPin+0x3e>
 8000744:	687b      	ldr	r3, [r7, #4]
 8000746:	681b      	ldr	r3, [r3, #0]
 8000748:	e002      	b.n	8000750 <MGPIO_uddtInitPin+0x44>
 800074a:	687b      	ldr	r3, [r7, #4]
 800074c:	681b      	ldr	r3, [r3, #0]
 800074e:	3304      	adds	r3, #4
 8000750:	613b      	str	r3, [r7, #16]
 8000752:	693b      	ldr	r3, [r7, #16]
 8000754:	681b      	ldr	r3, [r3, #0]
 8000756:	7bba      	ldrb	r2, [r7, #14]
 8000758:	4611      	mov	r1, r2
 800075a:	220f      	movs	r2, #15
 800075c:	408a      	lsls	r2, r1
 800075e:	43d2      	mvns	r2, r2
 8000760:	401a      	ands	r2, r3
 8000762:	693b      	ldr	r3, [r7, #16]
 8000764:	601a      	str	r2, [r3, #0]
 8000766:	687b      	ldr	r3, [r7, #4]
 8000768:	795b      	ldrb	r3, [r3, #5]
 800076a:	2b08      	cmp	r3, #8
 800076c:	f200 809c 	bhi.w	80008a8 <MGPIO_uddtInitPin+0x19c>
 8000770:	a201      	add	r2, pc, #4	@ (adr r2, 8000778 <MGPIO_uddtInitPin+0x6c>)
 8000772:	f852 f023 	ldr.w	pc, [r2, r3, lsl #2]
 8000776:	bf00      	nop
 8000778:	080007e1 	stmdaeq	r0, {r0, r5, r6, r7, r8, r9, sl}
 800077c:	080007e1 	stmdaeq	r0, {r0, r5, r6, r7, r8, r9, sl}
 8000780:	0800084b 	stmdaeq	r0, {r0, r1, r3, r6, fp}
 8000784:	08000817 	stmdaeq	r0, {r0, r1, r2, r4, fp}
 8000788:	0800079d 	stmdaeq	r0, {r0, r2, r3, r4, r7, r8, r9, sl}
 800078c:	0800079d 	stmdaeq	r0, {r0, r2, r3, r4, r7, r8, r9, sl}
 8000790:	0800079d 	stmdaeq	r0, {r0, r2, r3, r4, r7, r8, r9, sl}
 8000794:	0800079d 	stmdaeq	r0, {r0, r2, r3, r4, r7, r8, r9, sl}
 8000798:	0800087d 	stmdaeq	r0, {r0, r2, r3, r4, r5, r6, fp}
 800079c:	687b      	ldr	r3, [r7, #4]
 800079e:	795b      	ldrb	r3, [r3, #5]
 80007a0:	3b04      	subs	r3, #4
 80007a2:	009b      	lsls	r3, r3, #2
 80007a4:	b25a      	sxtb	r2, r3
 80007a6:	687b      	ldr	r3, [r7, #4]
 80007a8:	799b      	ldrb	r3, [r3, #6]
 80007aa:	b25b      	sxtb	r3, r3
 80007ac:	4313      	orrs	r3, r2
 80007ae:	b25b      	sxtb	r3, r3
 80007b0:	b2db      	uxtb	r3, r3
 80007b2:	f003 030f 	and.w	r3, r3, #15
 80007b6:	73fb      	strb	r3, [r7, #15]
 80007b8:	693b      	ldr	r3, [r7, #16]
 80007ba:	681b      	ldr	r3, [r3, #0]
 80007bc:	7bfa      	ldrb	r2, [r7, #15]
 80007be:	7bb9      	ldrb	r1, [r7, #14]
 80007c0:	408a      	lsls	r2, r1
 80007c2:	431a      	orrs	r2, r3
 80007c4:	693b      	ldr	r3, [r7, #16]
 80007c6:	601a      	str	r2, [r3, #0]
 80007c8:	687b      	ldr	r3, [r7, #4]
 80007ca:	6818      	ldr	r0, [r3, #0]
 80007cc:	687b      	ldr	r3, [r7, #4]
 80007ce:	7919      	ldrb	r1, [r3, #4]
 80007d0:	687b      	ldr	r3, [r7, #4]
 80007d2:	79db      	ldrb	r3, [r3, #7]
 80007d4:	461a      	mov	r2, r3
 80007d6:	f000 f871 	bl	80008bc <MGPIO_uddtSetPin>
 80007da:	4603      	mov	r3, r0
 80007dc:	75fb      	strb	r3, [r7, #23]
 80007de:	e068      	b.n	80008b2 <MGPIO_uddtInitPin+0x1a6>
 80007e0:	687b      	ldr	r3, [r7, #4]
 80007e2:	795b      	ldrb	r3, [r3, #5]
 80007e4:	009b      	lsls	r3, r3, #2
 80007e6:	b2db      	uxtb	r3, r3
 80007e8:	f003 030f 	and.w	r3, r3, #15
 80007ec:	73fb      	strb	r3, [r7, #15]
 80007ee:	693b      	ldr	r3, [r7, #16]
 80007f0:	681b      	ldr	r3, [r3, #0]
 80007f2:	7bfa      	ldrb	r2, [r7, #15]
 80007f4:	7bb9      	ldrb	r1, [r7, #14]
 80007f6:	408a      	lsls	r2, r1
 80007f8:	431a      	orrs	r2, r3
 80007fa:	693b      	ldr	r3, [r7, #16]
 80007fc:	601a      	str	r2, [r3, #0]
 80007fe:	687b      	ldr	r3, [r7, #4]
 8000800:	6818      	ldr	r0, [r3, #0]
 8000802:	687b      	ldr	r3, [r7, #4]
 8000804:	7919      	ldrb	r1, [r3, #4]
 8000806:	687b      	ldr	r3, [r7, #4]
 8000808:	79db      	ldrb	r3, [r3, #7]
 800080a:	461a      	mov	r2, r3
 800080c:	f000 f856 	bl	80008bc <MGPIO_uddtSetPin>
 8000810:	4603      	mov	r3, r0
 8000812:	75fb      	strb	r3, [r7, #23]
 8000814:	e04d      	b.n	80008b2 <MGPIO_uddtInitPin+0x1a6>
 8000816:	693b      	ldr	r3, [r7, #16]
 8000818:	681b      	ldr	r3, [r3, #0]
 800081a:	7bba      	ldrb	r2, [r7, #14]
 800081c:	4611      	mov	r1, r2
 800081e:	2208      	movs	r2, #8
 8000820:	408a      	lsls	r2, r1
 8000822:	431a      	orrs	r2, r3
 8000824:	693b      	ldr	r3, [r7, #16]
 8000826:	601a      	str	r2, [r3, #0]
 8000828:	687b      	ldr	r3, [r7, #4]
 800082a:	681b      	ldr	r3, [r3, #0]
 800082c:	68da      	ldr	r2, [r3, #12]
 800082e:	687b      	ldr	r3, [r7, #4]
 8000830:	791b      	ldrb	r3, [r3, #4]
 8000832:	4619      	mov	r1, r3
 8000834:	2301      	movs	r3, #1
 8000836:	408b      	lsls	r3, r1
 8000838:	43db      	mvns	r3, r3
 800083a:	4619      	mov	r1, r3
 800083c:	687b      	ldr	r3, [r7, #4]
 800083e:	681b      	ldr	r3, [r3, #0]
 8000840:	400a      	ands	r2, r1
 8000842:	60da      	str	r2, [r3, #12]
 8000844:	2301      	movs	r3, #1
 8000846:	75fb      	strb	r3, [r7, #23]
 8000848:	e033      	b.n	80008b2 <MGPIO_uddtInitPin+0x1a6>
 800084a:	693b      	ldr	r3, [r7, #16]
 800084c:	681b      	ldr	r3, [r3, #0]
 800084e:	7bba      	ldrb	r2, [r7, #14]
 8000850:	4611      	mov	r1, r2
 8000852:	2208      	movs	r2, #8
 8000854:	408a      	lsls	r2, r1
 8000856:	431a      	orrs	r2, r3
 8000858:	693b      	ldr	r3, [r7, #16]
 800085a:	601a      	str	r2, [r3, #0]
 800085c:	687b      	ldr	r3, [r7, #4]
 800085e:	681b      	ldr	r3, [r3, #0]
 8000860:	68da      	ldr	r2, [r3, #12]
 8000862:	687b      	ldr	r3, [r7, #4]
 8000864:	791b      	ldrb	r3, [r3, #4]
 8000866:	4619      	mov	r1, r3
 8000868:	2301      	movs	r3, #1
 800086a:	408b      	lsls	r3, r1
 800086c:	4619      	mov	r1, r3
 800086e:	687b      	ldr	r3, [r7, #4]
 8000870:	681b      	ldr	r3, [r3, #0]
 8000872:	430a      	orrs	r2, r1
 8000874:	60da      	str	r2, [r3, #12]
 8000876:	2301      	movs	r3, #1
 8000878:	75fb      	strb	r3, [r7, #23]
 800087a:	e01a      	b.n	80008b2 <MGPIO_uddtInitPin+0x1a6>
 800087c:	2304      	movs	r3, #4
 800087e:	73fb      	strb	r3, [r7, #15]
 8000880:	693b      	ldr	r3, [r7, #16]
 8000882:	681b      	ldr	r3, [r3, #0]
 8000884:	7bfa      	ldrb	r2, [r7, #15]
 8000886:	7bb9      	ldrb	r1, [r7, #14]
 8000888:	408a      	lsls	r2, r1
 800088a:	431a      	orrs	r2, r3
 800088c:	693b      	ldr	r3, [r7, #16]
 800088e:	601a      	str	r2, [r3, #0]
 8000890:	687b      	ldr	r3, [r7, #4]
 8000892:	6818      	ldr	r0, [r3, #0]
 8000894:	687b      	ldr	r3, [r7, #4]
 8000896:	7919      	ldrb	r1, [r3, #4]
 8000898:	687b      	ldr	r3, [r7, #4]
 800089a:	79db      	ldrb	r3, [r3, #7]
 800089c:	461a      	mov	r2, r3
 800089e:	f000 f80d 	bl	80008bc <MGPIO_uddtSetPin>
 80008a2:	4603      	mov	r3, r0
 80008a4:	75fb      	strb	r3, [r7, #23]
 80008a6:	e004      	b.n	80008b2 <MGPIO_uddtInitPin+0x1a6>
 80008a8:	2304      	movs	r3, #4
 80008aa:	75fb      	strb	r3, [r7, #23]
 80008ac:	e001      	b.n	80008b2 <MGPIO_uddtInitPin+0x1a6>
 80008ae:	2302      	movs	r3, #2
 80008b0:	75fb      	strb	r3, [r7, #23]
 80008b2:	7dfb      	ldrb	r3, [r7, #23]
 80008b4:	4618      	mov	r0, r3
 80008b6:	3718      	adds	r7, #24
 80008b8:	46bd      	mov	sp, r7
 80008ba:	bd80      	pop	{r7, pc}

080008bc <MGPIO_uddtSetPin>:
 80008bc:	b480      	push	{r7}
 80008be:	b085      	sub	sp, #20
 80008c0:	af00      	add	r7, sp, #0
 80008c2:	6078      	str	r0, [r7, #4]
 80008c4:	460b      	mov	r3, r1
 80008c6:	70fb      	strb	r3, [r7, #3]
 80008c8:	4613      	mov	r3, r2
 80008ca:	70bb      	strb	r3, [r7, #2]
 80008cc:	2300      	movs	r3, #0
 80008ce:	73fb      	strb	r3, [r7, #15]
 80008d0:	687b      	ldr	r3, [r7, #4]
 80008d2:	2b00      	cmp	r3, #0
 80008d4:	d02a      	beq.n	800092c <MGPIO_uddtSetPin+0x70>
 80008d6:	78bb      	ldrb	r3, [r7, #2]
 80008d8:	2b01      	cmp	r3, #1
 80008da:	d824      	bhi.n	8000926 <MGPIO_uddtSetPin+0x6a>
 80008dc:	78fb      	ldrb	r3, [r7, #3]
 80008de:	2b0f      	cmp	r3, #15
 80008e0:	d821      	bhi.n	8000926 <MGPIO_uddtSetPin+0x6a>
 80008e2:	78bb      	ldrb	r3, [r7, #2]
 80008e4:	2b01      	cmp	r3, #1
 80008e6:	d10b      	bne.n	8000900 <MGPIO_uddtSetPin+0x44>
 80008e8:	687b      	ldr	r3, [r7, #4]
 80008ea:	68db      	ldr	r3, [r3, #12]
 80008ec:	78fa      	ldrb	r2, [r7, #3]
 80008ee:	2101      	movs	r1, #1
 80008f0:	fa01 f202 	lsl.w	r2, r1, r2
 80008f4:	431a      	orrs	r2, r3
 80008f6:	687b      	ldr	r3, [r7, #4]
 80008f8:	60da      	str	r2, [r3, #12]
 80008fa:	2301      	movs	r3, #1
 80008fc:	73fb      	strb	r3, [r7, #15]
 80008fe:	e017      	b.n	8000930 <MGPIO_uddtSetPin+0x74>
 8000900:	78bb      	ldrb	r3, [r7, #2]
 8000902:	2b00      	cmp	r3, #0
 8000904:	d10c      	bne.n	8000920 <MGPIO_uddtSetPin+0x64>
 8000906:	687b      	ldr	r3, [r7, #4]
 8000908:	68db      	ldr	r3, [r3, #12]
 800090a:	78fa      	ldrb	r2, [r7, #3]
 800090c:	2101      	movs	r1, #1
 800090e:	fa01 f202 	lsl.w	r2, r1, r2
 8000912:	43d2      	mvns	r2, r2
 8000914:	401a      	ands	r2, r3
 8000916:	687b      	ldr	r3, [r7, #4]
 8000918:	60da      	str	r2, [r3, #12]
 800091a:	2301      	movs	r3, #1
 800091c:	73fb      	strb	r3, [r7, #15]
 800091e:	e007      	b.n	8000930 <MGPIO_uddtSetPin+0x74>
 8000920:	2304      	movs	r3, #4
 8000922:	73fb      	strb	r3, [r7, #15]
 8000924:	e004      	b.n	8000930 <MGPIO_uddtSetPin+0x74>
 8000926:	2304      	movs	r3, #4
 8000928:	73fb      	strb	r3, [r7, #15]
 800092a:	e001      	b.n	8000930 <MGPIO_uddtSetPin+0x74>
 800092c:	2302      	movs	r3, #2
 800092e:	73fb      	strb	r3, [r7, #15]
 8000930:	7bfb      	ldrb	r3, [r7, #15]
 8000932:	4618      	mov	r0, r3
 8000934:	3714      	adds	r7, #20
 8000936:	46bd      	mov	sp, r7
 8000938:	bc80      	pop	{r7}
 800093a:	4770      	bx	lr

0800093c <MNVIC_uddtEnableIRQ>:
 800093c:	b480      	push	{r7}
 800093e:	b085      	sub	sp, #20
 8000940:	af00      	add	r7, sp, #0
 8000942:	4603      	mov	r3, r0
 8000944:	71fb      	strb	r3, [r7, #7]
 8000946:	2300      	movs	r3, #0
 8000948:	73fb      	strb	r3, [r7, #15]
 800094a:	79fb      	ldrb	r3, [r7, #7]
 800094c:	2b3b      	cmp	r3, #59	@ 0x3b
 800094e:	d80f      	bhi.n	8000970 <MNVIC_uddtEnableIRQ+0x34>
 8000950:	79fb      	ldrb	r3, [r7, #7]
 8000952:	f003 031f 	and.w	r3, r3, #31
 8000956:	490a      	ldr	r1, [pc, #40]	@ (8000980 <MNVIC_uddtEnableIRQ+0x44>)
 8000958:	79fa      	ldrb	r2, [r7, #7]
 800095a:	0952      	lsrs	r2, r2, #5
 800095c:	b2d2      	uxtb	r2, r2
 800095e:	4610      	mov	r0, r2
 8000960:	2201      	movs	r2, #1
 8000962:	fa02 f303 	lsl.w	r3, r2, r3
 8000966:	f841 3020 	str.w	r3, [r1, r0, lsl #2]
 800096a:	2301      	movs	r3, #1
 800096c:	73fb      	strb	r3, [r7, #15]
 800096e:	e001      	b.n	8000974 <MNVIC_uddtEnableIRQ+0x38>
 8000970:	2304      	movs	r3, #4
 8000972:	73fb      	strb	r3, [r7, #15]
 8000974:	7bfb      	ldrb	r3, [r7, #15]
 8000976:	4618      	mov	r0, r3
 8000978:	3714      	adds	r7, #20
 800097a:	46bd      	mov	sp, r7
 800097c:	bc80      	pop	{r7}
 800097e:	4770      	bx	lr
 8000980:	e000e100 	and	lr, r0, r0, lsl #2

08000984 <MNVIC_uddtDisableIRQ>:
 8000984:	b480      	push	{r7}
 8000986:	b085      	sub	sp, #20
 8000988:	af00      	add	r7, sp, #0
 800098a:	4603      	mov	r3, r0
 800098c:	71fb      	strb	r3, [r7, #7]
 800098e:	2300      	movs	r3, #0
 8000990:	73fb      	strb	r3, [r7, #15]
 8000992:	79fb      	ldrb	r3, [r7, #7]
 8000994:	2b3b      	cmp	r3, #59	@ 0x3b
 8000996:	d810      	bhi.n	80009ba <MNVIC_uddtDisableIRQ+0x36>
 8000998:	79fb      	ldrb	r3, [r7, #7]
 800099a:	f003 031f 	and.w	r3, r3, #31
 800099e:	490b      	ldr	r1, [pc, #44]	@ (80009cc <MNVIC_uddtDisableIRQ+0x48>)
 80009a0:	79fa      	ldrb	r2, [r7, #7]
 80009a2:	0952      	lsrs	r2, r2, #5
 80009a4:	b2d2      	uxtb	r2, r2
 80009a6:	4610      	mov	r0, r2
 80009a8:	2201      	movs	r2, #1
 80009aa:	409a      	lsls	r2, r3
 80009ac:	f100 0320 	add.w	r3, r0, #32
 80009b0:	f841 2023 	str.w	r2, [r1, r3, lsl #2]
 80009b4:	2301      	movs	r3, #1
 80009b6:	73fb      	strb	r3, [r7, #15]
 80009b8:	e001      	b.n	80009be <MNVIC_uddtDisableIRQ+0x3a>
 80009ba:	2304      	movs	r3, #4
 80009bc:	73fb      	strb	r3, [r7, #15]
 80009be:	7bfb      	ldrb	r3, [r7, #15]
 80009c0:	4618      	mov	r0, r3
 80009c2:	3714      	adds	r7, #20
 80009c4:	46bd      	mov	sp, r7
 80009c6:	bc80      	pop	{r7}
 80009c8:	4770      	bx	lr
 80009ca:	bf00      	nop
 80009cc:	e000e100 	and	lr, r0, r0, lsl #2

080009d0 <MRCC_uddtInitClk>:
 80009d0:	b490      	push	{r4, r7}
 80009d2:	b084      	sub	sp, #16
 80009d4:	af00      	add	r7, sp, #0
 80009d6:	4604      	mov	r4, r0
 80009d8:	4608      	mov	r0, r1
 80009da:	4611      	mov	r1, r2
 80009dc:	461a      	mov	r2, r3
 80009de:	4623      	mov	r3, r4
 80009e0:	71fb      	strb	r3, [r7, #7]
 80009e2:	4603      	mov	r3, r0
 80009e4:	71bb      	strb	r3, [r7, #6]
 80009e6:	460b      	mov	r3, r1
 80009e8:	717b      	strb	r3, [r7, #5]
 80009ea:	4613      	mov	r3, r2
 80009ec:	713b      	strb	r3, [r7, #4]
 80009ee:	2300      	movs	r3, #0
 80009f0:	73fb      	strb	r3, [r7, #15]
 80009f2:	79fb      	ldrb	r3, [r7, #7]
 80009f4:	2b01      	cmp	r3, #1
 80009f6:	f200 808d 	bhi.w	8000b14 <MRCC_uddtInitClk+0x144>
 80009fa:	79bb      	ldrb	r3, [r7, #6]
 80009fc:	2b07      	cmp	r3, #7
 80009fe:	f200 8089 	bhi.w	8000b14 <MRCC_uddtInitClk+0x144>
 8000a02:	797b      	ldrb	r3, [r7, #5]
 8000a04:	2b07      	cmp	r3, #7
 8000a06:	f200 8085 	bhi.w	8000b14 <MRCC_uddtInitClk+0x144>
 8000a0a:	793b      	ldrb	r3, [r7, #4]
 8000a0c:	2b0f      	cmp	r3, #15
 8000a0e:	f200 8081 	bhi.w	8000b14 <MRCC_uddtInitClk+0x144>
 8000a12:	79fb      	ldrb	r3, [r7, #7]
 8000a14:	2b00      	cmp	r3, #0
 8000a16:	d002      	beq.n	8000a1e <MRCC_uddtInitClk+0x4e>
 8000a18:	2b01      	cmp	r3, #1
 8000a1a:	d02a      	beq.n	8000a72 <MRCC_uddtInitClk+0xa2>
 8000a1c:	e059      	b.n	8000ad2 <MRCC_uddtInitClk+0x102>
 8000a1e:	4b41      	ldr	r3, [pc, #260]	@ (8000b24 <MRCC_uddtInitClk+0x154>)
 8000a20:	681b      	ldr	r3, [r3, #0]
 8000a22:	4a40      	ldr	r2, [pc, #256]	@ (8000b24 <MRCC_uddtInitClk+0x154>)
 8000a24:	f023 7380 	bic.w	r3, r3, #16777216	@ 0x1000000
 8000a28:	6013      	str	r3, [r2, #0]
 8000a2a:	4b3e      	ldr	r3, [pc, #248]	@ (8000b24 <MRCC_uddtInitClk+0x154>)
 8000a2c:	681b      	ldr	r3, [r3, #0]
 8000a2e:	4a3d      	ldr	r2, [pc, #244]	@ (8000b24 <MRCC_uddtInitClk+0x154>)
 8000a30:	f423 3380 	bic.w	r3, r3, #65536	@ 0x10000
 8000a34:	6013      	str	r3, [r2, #0]
 8000a36:	4b3b      	ldr	r3, [pc, #236]	@ (8000b24 <MRCC_uddtInitClk+0x154>)
 8000a38:	681b      	ldr	r3, [r3, #0]
 8000a3a:	4a3a      	ldr	r2, [pc, #232]	@ (8000b24 <MRCC_uddtInitClk+0x154>)
 8000a3c:	f043 0301 	orr.w	r3, r3, #1
 8000a40:	6013      	str	r3, [r2, #0]
 8000a42:	bf00      	nop
 8000a44:	4b37      	ldr	r3, [pc, #220]	@ (8000b24 <MRCC_uddtInitClk+0x154>)
 8000a46:	681b      	ldr	r3, [r3, #0]
 8000a48:	f003 0302 	and.w	r3, r3, #2
 8000a4c:	2b00      	cmp	r3, #0
 8000a4e:	d0f9      	beq.n	8000a44 <MRCC_uddtInitClk+0x74>
 8000a50:	4b34      	ldr	r3, [pc, #208]	@ (8000b24 <MRCC_uddtInitClk+0x154>)
 8000a52:	685b      	ldr	r3, [r3, #4]
 8000a54:	4a33      	ldr	r2, [pc, #204]	@ (8000b24 <MRCC_uddtInitClk+0x154>)
 8000a56:	f023 0308 	bic.w	r3, r3, #8
 8000a5a:	6053      	str	r3, [r2, #4]
 8000a5c:	bf00      	nop
 8000a5e:	4b31      	ldr	r3, [pc, #196]	@ (8000b24 <MRCC_uddtInitClk+0x154>)
 8000a60:	685b      	ldr	r3, [r3, #4]
 8000a62:	089b      	lsrs	r3, r3, #2
 8000a64:	f003 0303 	and.w	r3, r3, #3
 8000a68:	2b00      	cmp	r3, #0
 8000a6a:	d1f8      	bne.n	8000a5e <MRCC_uddtInitClk+0x8e>
 8000a6c:	2301      	movs	r3, #1
 8000a6e:	73fb      	strb	r3, [r7, #15]
 8000a70:	e031      	b.n	8000ad6 <MRCC_uddtInitClk+0x106>
 8000a72:	4b2c      	ldr	r3, [pc, #176]	@ (8000b24 <MRCC_uddtInitClk+0x154>)
 8000a74:	681b      	ldr	r3, [r3, #0]
 8000a76:	4a2b      	ldr	r2, [pc, #172]	@ (8000b24 <MRCC_uddtInitClk+0x154>)
 8000a78:	f023 7380 	bic.w	r3, r3, #16777216	@ 0x1000000
 8000a7c:	6013      	str	r3, [r2, #0]
 8000a7e:	4b29      	ldr	r3, [pc, #164]	@ (8000b24 <MRCC_uddtInitClk+0x154>)
 8000a80:	681b      	ldr	r3, [r3, #0]
 8000a82:	4a28      	ldr	r2, [pc, #160]	@ (8000b24 <MRCC_uddtInitClk+0x154>)
 8000a84:	f023 0301 	bic.w	r3, r3, #1
 8000a88:	6013      	str	r3, [r2, #0]
 8000a8a:	4b26      	ldr	r3, [pc, #152]	@ (8000b24 <MRCC_uddtInitClk+0x154>)
 8000a8c:	681b      	ldr	r3, [r3, #0]
 8000a8e:	4a25      	ldr	r2, [pc, #148]	@ (8000b24 <MRCC_uddtInitClk+0x154>)
 8000a90:	f443 3380 	orr.w	r3, r3, #65536	@ 0x10000
 8000a94:	6013      	str	r3, [r2, #0]
 8000a96:	bf00      	nop
 8000a98:	4b22      	ldr	r3, [pc, #136]	@ (8000b24 <MRCC_uddtInitClk+0x154>)
 8000a9a:	681b      	ldr	r3, [r3, #0]
 8000a9c:	f403 3300 	and.w	r3, r3, #131072	@ 0x20000
 8000aa0:	2b00      	cmp	r3, #0
 8000aa2:	d0f9      	beq.n	8000a98 <MRCC_uddtInitClk+0xc8>
 8000aa4:	4b1f      	ldr	r3, [pc, #124]	@ (8000b24 <MRCC_uddtInitClk+0x154>)
 8000aa6:	685b      	ldr	r3, [r3, #4]
 8000aa8:	4a1e      	ldr	r2, [pc, #120]	@ (8000b24 <MRCC_uddtInitClk+0x154>)
 8000aaa:	f023 0308 	bic.w	r3, r3, #8
 8000aae:	6053      	str	r3, [r2, #4]
 8000ab0:	4b1c      	ldr	r3, [pc, #112]	@ (8000b24 <MRCC_uddtInitClk+0x154>)
 8000ab2:	685b      	ldr	r3, [r3, #4]
 8000ab4:	4a1b      	ldr	r2, [pc, #108]	@ (8000b24 <MRCC_uddtInitClk+0x154>)
 8000ab6:	f043 0301 	orr.w	r3, r3, #1
 8000aba:	6053      	str	r3, [r2, #4]
 8000abc:	bf00      	nop
 8000abe:	4b19      	ldr	r3, [pc, #100]	@ (8000b24 <MRCC_uddtInitClk+0x154>)
 8000ac0:	685b      	ldr	r3, [r3, #4]
 8000ac2:	089b      	lsrs	r3, r3, #2
 8000ac4:	f003 0303 	and.w	r3, r3, #3
 8000ac8:	2b01      	cmp	r3, #1
 8000aca:	d1f8      	bne.n	8000abe <MRCC_uddtInitClk+0xee>
 8000acc:	2301      	movs	r3, #1
 8000ace:	73fb      	strb	r3, [r7, #15]
 8000ad0:	e001      	b.n	8000ad6 <MRCC_uddtInitClk+0x106>
 8000ad2:	2304      	movs	r3, #4
 8000ad4:	73fb      	strb	r3, [r7, #15]
 8000ad6:	7bfb      	ldrb	r3, [r7, #15]
 8000ad8:	2b01      	cmp	r3, #1
 8000ada:	d11d      	bne.n	8000b18 <MRCC_uddtInitClk+0x148>
 8000adc:	4b11      	ldr	r3, [pc, #68]	@ (8000b24 <MRCC_uddtInitClk+0x154>)
 8000ade:	685b      	ldr	r3, [r3, #4]
 8000ae0:	f423 5260 	bic.w	r2, r3, #14336	@ 0x3800
 8000ae4:	797b      	ldrb	r3, [r7, #5]
 8000ae6:	02db      	lsls	r3, r3, #11
 8000ae8:	490e      	ldr	r1, [pc, #56]	@ (8000b24 <MRCC_uddtInitClk+0x154>)
 8000aea:	4313      	orrs	r3, r2
 8000aec:	604b      	str	r3, [r1, #4]
 8000aee:	4b0d      	ldr	r3, [pc, #52]	@ (8000b24 <MRCC_uddtInitClk+0x154>)
 8000af0:	685b      	ldr	r3, [r3, #4]
 8000af2:	f423 62e0 	bic.w	r2, r3, #1792	@ 0x700
 8000af6:	79bb      	ldrb	r3, [r7, #6]
 8000af8:	021b      	lsls	r3, r3, #8
 8000afa:	490a      	ldr	r1, [pc, #40]	@ (8000b24 <MRCC_uddtInitClk+0x154>)
 8000afc:	4313      	orrs	r3, r2
 8000afe:	604b      	str	r3, [r1, #4]
 8000b00:	4b08      	ldr	r3, [pc, #32]	@ (8000b24 <MRCC_uddtInitClk+0x154>)
 8000b02:	685b      	ldr	r3, [r3, #4]
 8000b04:	f023 02f0 	bic.w	r2, r3, #240	@ 0xf0
 8000b08:	793b      	ldrb	r3, [r7, #4]
 8000b0a:	011b      	lsls	r3, r3, #4
 8000b0c:	4905      	ldr	r1, [pc, #20]	@ (8000b24 <MRCC_uddtInitClk+0x154>)
 8000b0e:	4313      	orrs	r3, r2
 8000b10:	604b      	str	r3, [r1, #4]
 8000b12:	e001      	b.n	8000b18 <MRCC_uddtInitClk+0x148>
 8000b14:	2304      	movs	r3, #4
 8000b16:	73fb      	strb	r3, [r7, #15]
 8000b18:	7bfb      	ldrb	r3, [r7, #15]
 8000b1a:	4618      	mov	r0, r3
 8000b1c:	3710      	adds	r7, #16
 8000b1e:	46bd      	mov	sp, r7
 8000b20:	bc90      	pop	{r4, r7}
 8000b22:	4770      	bx	lr
 8000b24:	40021000 	andmi	r1, r2, r0

08000b28 <MRCC_uddtEnablePeripheral>:
 8000b28:	b480      	push	{r7}
 8000b2a:	b085      	sub	sp, #20
 8000b2c:	af00      	add	r7, sp, #0
 8000b2e:	4603      	mov	r3, r0
 8000b30:	71fb      	strb	r3, [r7, #7]
 8000b32:	2300      	movs	r3, #0
 8000b34:	73fb      	strb	r3, [r7, #15]
 8000b36:	79fb      	ldrb	r3, [r7, #7]
 8000b38:	2b2f      	cmp	r3, #47	@ 0x2f
 8000b3a:	f200 821c 	bhi.w	8000f76 <MRCC_uddtEnablePeripheral+0x44e>
 8000b3e:	79fb      	ldrb	r3, [r7, #7]
 8000b40:	2b2f      	cmp	r3, #47	@ 0x2f
 8000b42:	f200 8215 	bhi.w	8000f70 <MRCC_uddtEnablePeripheral+0x448>
 8000b46:	a201      	add	r2, pc, #4	@ (adr r2, 8000b4c <MRCC_uddtEnablePeripheral+0x24>)
 8000b48:	f852 f023 	ldr.w	pc, [r2, r3, lsl #2]
 8000b4c:	08000c0d 	stmdaeq	r0, {r0, r2, r3, sl, fp}
 8000b50:	08000c1f 	stmdaeq	r0, {r0, r1, r2, r3, r4, sl, fp}
 8000b54:	08000c31 	stmdaeq	r0, {r0, r4, r5, sl, fp}
 8000b58:	08000c43 	stmdaeq	r0, {r0, r1, r6, sl, fp}
 8000b5c:	08000c55 	stmdaeq	r0, {r0, r2, r4, r6, sl, fp}
 8000b60:	08000c67 	stmdaeq	r0, {r0, r1, r2, r5, r6, sl, fp}
 8000b64:	08000c79 	stmdaeq	r0, {r0, r3, r4, r5, r6, sl, fp}
 8000b68:	08000c8b 	stmdaeq	r0, {r0, r1, r3, r7, sl, fp}
 8000b6c:	08000c9d 	stmdaeq	r0, {r0, r2, r3, r4, r7, sl, fp}
 8000b70:	08000caf 	stmdaeq	r0, {r0, r1, r2, r3, r5, r7, sl, fp}
 8000b74:	08000cc1 	stmdaeq	r0, {r0, r6, r7, sl, fp}
 8000b78:	08000cd3 	stmdaeq	r0, {r0, r1, r4, r6, r7, sl, fp}
 8000b7c:	08000ce5 	stmdaeq	r0, {r0, r2, r5, r6, r7, sl, fp}
 8000b80:	08000cf7 	stmdaeq	r0, {r0, r1, r2, r4, r5, r6, r7, sl, fp}
 8000b84:	08000d09 	stmdaeq	r0, {r0, r3, r8, sl, fp}
 8000b88:	08000d1b 	stmdaeq	r0, {r0, r1, r3, r4, r8, sl, fp}
 8000b8c:	08000d2d 	stmdaeq	r0, {r0, r2, r3, r5, r8, sl, fp}
 8000b90:	08000d3f 	stmdaeq	r0, {r0, r1, r2, r3, r4, r5, r8, sl, fp}
 8000b94:	08000d51 	stmdaeq	r0, {r0, r4, r6, r8, sl, fp}
 8000b98:	08000d63 	stmdaeq	r0, {r0, r1, r5, r6, r8, sl, fp}
 8000b9c:	08000d75 	stmdaeq	r0, {r0, r2, r4, r5, r6, r8, sl, fp}
 8000ba0:	08000d87 	stmdaeq	r0, {r0, r1, r2, r7, r8, sl, fp}
 8000ba4:	08000d99 	stmdaeq	r0, {r0, r3, r4, r7, r8, sl, fp}
 8000ba8:	08000dab 	stmdaeq	r0, {r0, r1, r3, r5, r7, r8, sl, fp}
 8000bac:	08000dbd 	stmdaeq	r0, {r0, r2, r3, r4, r5, r7, r8, sl, fp}
 8000bb0:	08000dcf 	stmdaeq	r0, {r0, r1, r2, r3, r6, r7, r8, sl, fp}
 8000bb4:	08000de1 	stmdaeq	r0, {r0, r5, r6, r7, r8, sl, fp}
 8000bb8:	08000df3 	stmdaeq	r0, {r0, r1, r4, r5, r6, r7, r8, sl, fp}
 8000bbc:	08000e05 	stmdaeq	r0, {r0, r2, r9, sl, fp}
 8000bc0:	08000e17 	stmdaeq	r0, {r0, r1, r2, r4, r9, sl, fp}
 8000bc4:	08000e29 	stmdaeq	r0, {r0, r3, r5, r9, sl, fp}
 8000bc8:	08000e3b 	stmdaeq	r0, {r0, r1, r3, r4, r5, r9, sl, fp}
 8000bcc:	08000e4d 	stmdaeq	r0, {r0, r2, r3, r6, r9, sl, fp}
 8000bd0:	08000e5f 	stmdaeq	r0, {r0, r1, r2, r3, r4, r6, r9, sl, fp}
 8000bd4:	08000e71 	stmdaeq	r0, {r0, r4, r5, r6, r9, sl, fp}
 8000bd8:	08000e83 	stmdaeq	r0, {r0, r1, r7, r9, sl, fp}
 8000bdc:	08000e99 	stmdaeq	r0, {r0, r3, r4, r7, r9, sl, fp}
 8000be0:	08000eab 	stmdaeq	r0, {r0, r1, r3, r5, r7, r9, sl, fp}
 8000be4:	08000ebd 	stmdaeq	r0, {r0, r2, r3, r4, r5, r7, r9, sl, fp}
 8000be8:	08000ecf 	stmdaeq	r0, {r0, r1, r2, r3, r6, r7, r9, sl, fp}
 8000bec:	08000ee1 	stmdaeq	r0, {r0, r5, r6, r7, r9, sl, fp}
 8000bf0:	08000ef3 	stmdaeq	r0, {r0, r1, r4, r5, r6, r7, r9, sl, fp}
 8000bf4:	08000f05 	stmdaeq	r0, {r0, r2, r8, r9, sl, fp}
 8000bf8:	08000f17 	stmdaeq	r0, {r0, r1, r2, r4, r8, r9, sl, fp}
 8000bfc:	08000f29 	stmdaeq	r0, {r0, r3, r5, r8, r9, sl, fp}
 8000c00:	08000f3b 	stmdaeq	r0, {r0, r1, r3, r4, r5, r8, r9, sl, fp}
 8000c04:	08000f4d 	stmdaeq	r0, {r0, r2, r3, r6, r8, r9, sl, fp}
 8000c08:	08000f5f 	stmdaeq	r0, {r0, r1, r2, r3, r4, r6, r8, r9, sl, fp}
 8000c0c:	4ba1      	ldr	r3, [pc, #644]	@ (8000e94 <MRCC_uddtEnablePeripheral+0x36c>)
 8000c0e:	695b      	ldr	r3, [r3, #20]
 8000c10:	4aa0      	ldr	r2, [pc, #640]	@ (8000e94 <MRCC_uddtEnablePeripheral+0x36c>)
 8000c12:	f043 0301 	orr.w	r3, r3, #1
 8000c16:	6153      	str	r3, [r2, #20]
 8000c18:	2301      	movs	r3, #1
 8000c1a:	73fb      	strb	r3, [r7, #15]
 8000c1c:	e1ad      	b.n	8000f7a <MRCC_uddtEnablePeripheral+0x452>
 8000c1e:	4b9d      	ldr	r3, [pc, #628]	@ (8000e94 <MRCC_uddtEnablePeripheral+0x36c>)
 8000c20:	695b      	ldr	r3, [r3, #20]
 8000c22:	4a9c      	ldr	r2, [pc, #624]	@ (8000e94 <MRCC_uddtEnablePeripheral+0x36c>)
 8000c24:	f043 0302 	orr.w	r3, r3, #2
 8000c28:	6153      	str	r3, [r2, #20]
 8000c2a:	2301      	movs	r3, #1
 8000c2c:	73fb      	strb	r3, [r7, #15]
 8000c2e:	e1a4      	b.n	8000f7a <MRCC_uddtEnablePeripheral+0x452>
 8000c30:	4b98      	ldr	r3, [pc, #608]	@ (8000e94 <MRCC_uddtEnablePeripheral+0x36c>)
 8000c32:	695b      	ldr	r3, [r3, #20]
 8000c34:	4a97      	ldr	r2, [pc, #604]	@ (8000e94 <MRCC_uddtEnablePeripheral+0x36c>)
 8000c36:	f043 0304 	orr.w	r3, r3, #4
 8000c3a:	6153      	str	r3, [r2, #20]
 8000c3c:	2301      	movs	r3, #1
 8000c3e:	73fb      	strb	r3, [r7, #15]
 8000c40:	e19b      	b.n	8000f7a <MRCC_uddtEnablePeripheral+0x452>
 8000c42:	4b94      	ldr	r3, [pc, #592]	@ (8000e94 <MRCC_uddtEnablePeripheral+0x36c>)
 8000c44:	695b      	ldr	r3, [r3, #20]
 8000c46:	4a93      	ldr	r2, [pc, #588]	@ (8000e94 <MRCC_uddtEnablePeripheral+0x36c>)
 8000c48:	f043 0310 	orr.w	r3, r3, #16
 8000c4c:	6153      	str	r3, [r2, #20]
 8000c4e:	2301      	movs	r3, #1
 8000c50:	73fb      	strb	r3, [r7, #15]
 8000c52:	e192      	b.n	8000f7a <MRCC_uddtEnablePeripheral+0x452>
 8000c54:	4b8f      	ldr	r3, [pc, #572]	@ (8000e94 <MRCC_uddtEnablePeripheral+0x36c>)
 8000c56:	695b      	ldr	r3, [r3, #20]
 8000c58:	4a8e      	ldr	r2, [pc, #568]	@ (8000e94 <MRCC_uddtEnablePeripheral+0x36c>)
 8000c5a:	f043 0340 	orr.w	r3, r3, #64	@ 0x40
 8000c5e:	6153      	str	r3, [r2, #20]
 8000c60:	2301      	movs	r3, #1
 8000c62:	73fb      	strb	r3, [r7, #15]
 8000c64:	e189      	b.n	8000f7a <MRCC_uddtEnablePeripheral+0x452>
 8000c66:	4b8b      	ldr	r3, [pc, #556]	@ (8000e94 <MRCC_uddtEnablePeripheral+0x36c>)
 8000c68:	695b      	ldr	r3, [r3, #20]
 8000c6a:	4a8a      	ldr	r2, [pc, #552]	@ (8000e94 <MRCC_uddtEnablePeripheral+0x36c>)
 8000c6c:	f443 7380 	orr.w	r3, r3, #256	@ 0x100
 8000c70:	6153      	str	r3, [r2, #20]
 8000c72:	2301      	movs	r3, #1
 8000c74:	73fb      	strb	r3, [r7, #15]
 8000c76:	e180      	b.n	8000f7a <MRCC_uddtEnablePeripheral+0x452>
 8000c78:	4b86      	ldr	r3, [pc, #536]	@ (8000e94 <MRCC_uddtEnablePeripheral+0x36c>)
 8000c7a:	695b      	ldr	r3, [r3, #20]
 8000c7c:	4a85      	ldr	r2, [pc, #532]	@ (8000e94 <MRCC_uddtEnablePeripheral+0x36c>)
 8000c7e:	f443 6380 	orr.w	r3, r3, #1024	@ 0x400
 8000c82:	6153      	str	r3, [r2, #20]
 8000c84:	2301      	movs	r3, #1
 8000c86:	73fb      	strb	r3, [r7, #15]
 8000c88:	e177      	b.n	8000f7a <MRCC_uddtEnablePeripheral+0x452>
 8000c8a:	4b82      	ldr	r3, [pc, #520]	@ (8000e94 <MRCC_uddtEnablePeripheral+0x36c>)
 8000c8c:	699b      	ldr	r3, [r3, #24]
 8000c8e:	4a81      	ldr	r2, [pc, #516]	@ (8000e94 <MRCC_uddtEnablePeripheral+0x36c>)
 8000c90:	f043 0301 	orr.w	r3, r3, #1
 8000c94:	6193      	str	r3, [r2, #24]
 8000c96:	2301      	movs	r3, #1
 8000c98:	73fb      	strb	r3, [r7, #15]
 8000c9a:	e16e      	b.n	8000f7a <MRCC_uddtEnablePeripheral+0x452>
 8000c9c:	4b7d      	ldr	r3, [pc, #500]	@ (8000e94 <MRCC_uddtEnablePeripheral+0x36c>)
 8000c9e:	699b      	ldr	r3, [r3, #24]
 8000ca0:	4a7c      	ldr	r2, [pc, #496]	@ (8000e94 <MRCC_uddtEnablePeripheral+0x36c>)
 8000ca2:	f043 0304 	orr.w	r3, r3, #4
 8000ca6:	6193      	str	r3, [r2, #24]
 8000ca8:	2301      	movs	r3, #1
 8000caa:	73fb      	strb	r3, [r7, #15]
 8000cac:	e165      	b.n	8000f7a <MRCC_uddtEnablePeripheral+0x452>
 8000cae:	4b79      	ldr	r3, [pc, #484]	@ (8000e94 <MRCC_uddtEnablePeripheral+0x36c>)
 8000cb0:	699b      	ldr	r3, [r3, #24]
 8000cb2:	4a78      	ldr	r2, [pc, #480]	@ (8000e94 <MRCC_uddtEnablePeripheral+0x36c>)
 8000cb4:	f043 0308 	orr.w	r3, r3, #8
 8000cb8:	6193      	str	r3, [r2, #24]
 8000cba:	2301      	movs	r3, #1
 8000cbc:	73fb      	strb	r3, [r7, #15]
 8000cbe:	e15c      	b.n	8000f7a <MRCC_uddtEnablePeripheral+0x452>
 8000cc0:	4b74      	ldr	r3, [pc, #464]	@ (8000e94 <MRCC_uddtEnablePeripheral+0x36c>)
 8000cc2:	699b      	ldr	r3, [r3, #24]
 8000cc4:	4a73      	ldr	r2, [pc, #460]	@ (8000e94 <MRCC_uddtEnablePeripheral+0x36c>)
 8000cc6:	f043 0310 	orr.w	r3, r3, #16
 8000cca:	6193      	str	r3, [r2, #24]
 8000ccc:	2301      	movs	r3, #1
 8000cce:	73fb      	strb	r3, [r7, #15]
 8000cd0:	e153      	b.n	8000f7a <MRCC_uddtEnablePeripheral+0x452>
 8000cd2:	4b70      	ldr	r3, [pc, #448]	@ (8000e94 <MRCC_uddtEnablePeripheral+0x36c>)
 8000cd4:	699b      	ldr	r3, [r3, #24]
 8000cd6:	4a6f      	ldr	r2, [pc, #444]	@ (8000e94 <MRCC_uddtEnablePeripheral+0x36c>)
 8000cd8:	f043 0320 	orr.w	r3, r3, #32
 8000cdc:	6193      	str	r3, [r2, #24]
 8000cde:	2301      	movs	r3, #1
 8000ce0:	73fb      	strb	r3, [r7, #15]
 8000ce2:	e14a      	b.n	8000f7a <MRCC_uddtEnablePeripheral+0x452>
 8000ce4:	4b6b      	ldr	r3, [pc, #428]	@ (8000e94 <MRCC_uddtEnablePeripheral+0x36c>)
 8000ce6:	699b      	ldr	r3, [r3, #24]
 8000ce8:	4a6a      	ldr	r2, [pc, #424]	@ (8000e94 <MRCC_uddtEnablePeripheral+0x36c>)
 8000cea:	f043 0340 	orr.w	r3, r3, #64	@ 0x40
 8000cee:	6193      	str	r3, [r2, #24]
 8000cf0:	2301      	movs	r3, #1
 8000cf2:	73fb      	strb	r3, [r7, #15]
 8000cf4:	e141      	b.n	8000f7a <MRCC_uddtEnablePeripheral+0x452>
 8000cf6:	4b67      	ldr	r3, [pc, #412]	@ (8000e94 <MRCC_uddtEnablePeripheral+0x36c>)
 8000cf8:	699b      	ldr	r3, [r3, #24]
 8000cfa:	4a66      	ldr	r2, [pc, #408]	@ (8000e94 <MRCC_uddtEnablePeripheral+0x36c>)
 8000cfc:	f043 0380 	orr.w	r3, r3, #128	@ 0x80
 8000d00:	6193      	str	r3, [r2, #24]
 8000d02:	2301      	movs	r3, #1
 8000d04:	73fb      	strb	r3, [r7, #15]
 8000d06:	e138      	b.n	8000f7a <MRCC_uddtEnablePeripheral+0x452>
 8000d08:	4b62      	ldr	r3, [pc, #392]	@ (8000e94 <MRCC_uddtEnablePeripheral+0x36c>)
 8000d0a:	699b      	ldr	r3, [r3, #24]
 8000d0c:	4a61      	ldr	r2, [pc, #388]	@ (8000e94 <MRCC_uddtEnablePeripheral+0x36c>)
 8000d0e:	f443 7380 	orr.w	r3, r3, #256	@ 0x100
 8000d12:	6193      	str	r3, [r2, #24]
 8000d14:	2301      	movs	r3, #1
 8000d16:	73fb      	strb	r3, [r7, #15]
 8000d18:	e12f      	b.n	8000f7a <MRCC_uddtEnablePeripheral+0x452>
 8000d1a:	4b5e      	ldr	r3, [pc, #376]	@ (8000e94 <MRCC_uddtEnablePeripheral+0x36c>)
 8000d1c:	699b      	ldr	r3, [r3, #24]
 8000d1e:	4a5d      	ldr	r2, [pc, #372]	@ (8000e94 <MRCC_uddtEnablePeripheral+0x36c>)
 8000d20:	f443 7300 	orr.w	r3, r3, #512	@ 0x200
 8000d24:	6193      	str	r3, [r2, #24]
 8000d26:	2301      	movs	r3, #1
 8000d28:	73fb      	strb	r3, [r7, #15]
 8000d2a:	e126      	b.n	8000f7a <MRCC_uddtEnablePeripheral+0x452>
 8000d2c:	4b59      	ldr	r3, [pc, #356]	@ (8000e94 <MRCC_uddtEnablePeripheral+0x36c>)
 8000d2e:	699b      	ldr	r3, [r3, #24]
 8000d30:	4a58      	ldr	r2, [pc, #352]	@ (8000e94 <MRCC_uddtEnablePeripheral+0x36c>)
 8000d32:	f443 6380 	orr.w	r3, r3, #1024	@ 0x400
 8000d36:	6193      	str	r3, [r2, #24]
 8000d38:	2301      	movs	r3, #1
 8000d3a:	73fb      	strb	r3, [r7, #15]
 8000d3c:	e11d      	b.n	8000f7a <MRCC_uddtEnablePeripheral+0x452>
 8000d3e:	4b55      	ldr	r3, [pc, #340]	@ (8000e94 <MRCC_uddtEnablePeripheral+0x36c>)
 8000d40:	699b      	ldr	r3, [r3, #24]
 8000d42:	4a54      	ldr	r2, [pc, #336]	@ (8000e94 <MRCC_uddtEnablePeripheral+0x36c>)
 8000d44:	f443 6300 	orr.w	r3, r3, #2048	@ 0x800
 8000d48:	6193      	str	r3, [r2, #24]
 8000d4a:	2301      	movs	r3, #1
 8000d4c:	73fb      	strb	r3, [r7, #15]
 8000d4e:	e114      	b.n	8000f7a <MRCC_uddtEnablePeripheral+0x452>
 8000d50:	4b50      	ldr	r3, [pc, #320]	@ (8000e94 <MRCC_uddtEnablePeripheral+0x36c>)
 8000d52:	699b      	ldr	r3, [r3, #24]
 8000d54:	4a4f      	ldr	r2, [pc, #316]	@ (8000e94 <MRCC_uddtEnablePeripheral+0x36c>)
 8000d56:	f443 5380 	orr.w	r3, r3, #4096	@ 0x1000
 8000d5a:	6193      	str	r3, [r2, #24]
 8000d5c:	2301      	movs	r3, #1
 8000d5e:	73fb      	strb	r3, [r7, #15]
 8000d60:	e10b      	b.n	8000f7a <MRCC_uddtEnablePeripheral+0x452>
 8000d62:	4b4c      	ldr	r3, [pc, #304]	@ (8000e94 <MRCC_uddtEnablePeripheral+0x36c>)
 8000d64:	699b      	ldr	r3, [r3, #24]
 8000d66:	4a4b      	ldr	r2, [pc, #300]	@ (8000e94 <MRCC_uddtEnablePeripheral+0x36c>)
 8000d68:	f443 5300 	orr.w	r3, r3, #8192	@ 0x2000
 8000d6c:	6193      	str	r3, [r2, #24]
 8000d6e:	2301      	movs	r3, #1
 8000d70:	73fb      	strb	r3, [r7, #15]
 8000d72:	e102      	b.n	8000f7a <MRCC_uddtEnablePeripheral+0x452>
 8000d74:	4b47      	ldr	r3, [pc, #284]	@ (8000e94 <MRCC_uddtEnablePeripheral+0x36c>)
 8000d76:	699b      	ldr	r3, [r3, #24]
 8000d78:	4a46      	ldr	r2, [pc, #280]	@ (8000e94 <MRCC_uddtEnablePeripheral+0x36c>)
 8000d7a:	f443 4380 	orr.w	r3, r3, #16384	@ 0x4000
 8000d7e:	6193      	str	r3, [r2, #24]
 8000d80:	2301      	movs	r3, #1
 8000d82:	73fb      	strb	r3, [r7, #15]
 8000d84:	e0f9      	b.n	8000f7a <MRCC_uddtEnablePeripheral+0x452>
 8000d86:	4b43      	ldr	r3, [pc, #268]	@ (8000e94 <MRCC_uddtEnablePeripheral+0x36c>)
 8000d88:	699b      	ldr	r3, [r3, #24]
 8000d8a:	4a42      	ldr	r2, [pc, #264]	@ (8000e94 <MRCC_uddtEnablePeripheral+0x36c>)
 8000d8c:	f443 4300 	orr.w	r3, r3, #32768	@ 0x8000
 8000d90:	6193      	str	r3, [r2, #24]
 8000d92:	2301      	movs	r3, #1
 8000d94:	73fb      	strb	r3, [r7, #15]
 8000d96:	e0f0      	b.n	8000f7a <MRCC_uddtEnablePeripheral+0x452>
 8000d98:	4b3e      	ldr	r3, [pc, #248]	@ (8000e94 <MRCC_uddtEnablePeripheral+0x36c>)
 8000d9a:	699b      	ldr	r3, [r3, #24]
 8000d9c:	4a3d      	ldr	r2, [pc, #244]	@ (8000e94 <MRCC_uddtEnablePeripheral+0x36c>)
 8000d9e:	f443 2300 	orr.w	r3, r3, #524288	@ 0x80000
 8000da2:	6193      	str	r3, [r2, #24]
 8000da4:	2301      	movs	r3, #1
 8000da6:	73fb      	strb	r3, [r7, #15]
 8000da8:	e0e7      	b.n	8000f7a <MRCC_uddtEnablePeripheral+0x452>
 8000daa:	4b3a      	ldr	r3, [pc, #232]	@ (8000e94 <MRCC_uddtEnablePeripheral+0x36c>)
 8000dac:	699b      	ldr	r3, [r3, #24]
 8000dae:	4a39      	ldr	r2, [pc, #228]	@ (8000e94 <MRCC_uddtEnablePeripheral+0x36c>)
 8000db0:	f443 1380 	orr.w	r3, r3, #1048576	@ 0x100000
 8000db4:	6193      	str	r3, [r2, #24]
 8000db6:	2301      	movs	r3, #1
 8000db8:	73fb      	strb	r3, [r7, #15]
 8000dba:	e0de      	b.n	8000f7a <MRCC_uddtEnablePeripheral+0x452>
 8000dbc:	4b35      	ldr	r3, [pc, #212]	@ (8000e94 <MRCC_uddtEnablePeripheral+0x36c>)
 8000dbe:	699b      	ldr	r3, [r3, #24]
 8000dc0:	4a34      	ldr	r2, [pc, #208]	@ (8000e94 <MRCC_uddtEnablePeripheral+0x36c>)
 8000dc2:	f443 1300 	orr.w	r3, r3, #2097152	@ 0x200000
 8000dc6:	6193      	str	r3, [r2, #24]
 8000dc8:	2301      	movs	r3, #1
 8000dca:	73fb      	strb	r3, [r7, #15]
 8000dcc:	e0d5      	b.n	8000f7a <MRCC_uddtEnablePeripheral+0x452>
 8000dce:	4b31      	ldr	r3, [pc, #196]	@ (8000e94 <MRCC_uddtEnablePeripheral+0x36c>)
 8000dd0:	69db      	ldr	r3, [r3, #28]
 8000dd2:	4a30      	ldr	r2, [pc, #192]	@ (8000e94 <MRCC_uddtEnablePeripheral+0x36c>)
 8000dd4:	f043 0301 	orr.w	r3, r3, #1
 8000dd8:	61d3      	str	r3, [r2, #28]
 8000dda:	2301      	movs	r3, #1
 8000ddc:	73fb      	strb	r3, [r7, #15]
 8000dde:	e0cc      	b.n	8000f7a <MRCC_uddtEnablePeripheral+0x452>
 8000de0:	4b2c      	ldr	r3, [pc, #176]	@ (8000e94 <MRCC_uddtEnablePeripheral+0x36c>)
 8000de2:	69db      	ldr	r3, [r3, #28]
 8000de4:	4a2b      	ldr	r2, [pc, #172]	@ (8000e94 <MRCC_uddtEnablePeripheral+0x36c>)
 8000de6:	f043 0302 	orr.w	r3, r3, #2
 8000dea:	61d3      	str	r3, [r2, #28]
 8000dec:	2301      	movs	r3, #1
 8000dee:	73fb      	strb	r3, [r7, #15]
 8000df0:	e0c3      	b.n	8000f7a <MRCC_uddtEnablePeripheral+0x452>
 8000df2:	4b28      	ldr	r3, [pc, #160]	@ (8000e94 <MRCC_uddtEnablePeripheral+0x36c>)
 8000df4:	69db      	ldr	r3, [r3, #28]
 8000df6:	4a27      	ldr	r2, [pc, #156]	@ (8000e94 <MRCC_uddtEnablePeripheral+0x36c>)
 8000df8:	f043 0304 	orr.w	r3, r3, #4
 8000dfc:	61d3      	str	r3, [r2, #28]
 8000dfe:	2301      	movs	r3, #1
 8000e00:	73fb      	strb	r3, [r7, #15]
 8000e02:	e0ba      	b.n	8000f7a <MRCC_uddtEnablePeripheral+0x452>
 8000e04:	4b23      	ldr	r3, [pc, #140]	@ (8000e94 <MRCC_uddtEnablePeripheral+0x36c>)
 8000e06:	69db      	ldr	r3, [r3, #28]
 8000e08:	4a22      	ldr	r2, [pc, #136]	@ (8000e94 <MRCC_uddtEnablePeripheral+0x36c>)
 8000e0a:	f043 0308 	orr.w	r3, r3, #8
 8000e0e:	61d3      	str	r3, [r2, #28]
 8000e10:	2301      	movs	r3, #1
 8000e12:	73fb      	strb	r3, [r7, #15]
 8000e14:	e0b1      	b.n	8000f7a <MRCC_uddtEnablePeripheral+0x452>
 8000e16:	4b1f      	ldr	r3, [pc, #124]	@ (8000e94 <MRCC_uddtEnablePeripheral+0x36c>)
 8000e18:	69db      	ldr	r3, [r3, #28]
 8000e1a:	4a1e      	ldr	r2, [pc, #120]	@ (8000e94 <MRCC_uddtEnablePeripheral+0x36c>)
 8000e1c:	f043 0310 	orr.w	r3, r3, #16
 8000e20:	61d3      	str	r3, [r2, #28]
 8000e22:	2301      	movs	r3, #1
 8000e24:	73fb      	strb	r3, [r7, #15]
 8000e26:	e0a8      	b.n	8000f7a <MRCC_uddtEnablePeripheral+0x452>
 8000e28:	4b1a      	ldr	r3, [pc, #104]	@ (8000e94 <MRCC_uddtEnablePeripheral+0x36c>)
 8000e2a:	69db      	ldr	r3, [r3, #28]
 8000e2c:	4a19      	ldr	r2, [pc, #100]	@ (8000e94 <MRCC_uddtEnablePeripheral+0x36c>)
 8000e2e:	f043 0320 	orr.w	r3, r3, #32
 8000e32:	61d3      	str	r3, [r2, #28]
 8000e34:	2301      	movs	r3, #1
 8000e36:	73fb      	strb	r3, [r7, #15]
 8000e38:	e09f      	b.n	8000f7a <MRCC_uddtEnablePeripheral+0x452>
 8000e3a:	4b16      	ldr	r3, [pc, #88]	@ (8000e94 <MRCC_uddtEnablePeripheral+0x36c>)
 8000e3c:	69db      	ldr	r3, [r3, #28]
 8000e3e:	4a15      	ldr	r2, [pc, #84]	@ (8000e94 <MRCC_uddtEnablePeripheral+0x36c>)
 8000e40:	f043 0340 	orr.w	r3, r3, #64	@ 0x40
 8000e44:	61d3      	str	r3, [r2, #28]
 8000e46:	2301      	movs	r3, #1
 8000e48:	73fb      	strb	r3, [r7, #15]
 8000e4a:	e096      	b.n	8000f7a <MRCC_uddtEnablePeripheral+0x452>
 8000e4c:	4b11      	ldr	r3, [pc, #68]	@ (8000e94 <MRCC_uddtEnablePeripheral+0x36c>)
 8000e4e:	69db      	ldr	r3, [r3, #28]
 8000e50:	4a10      	ldr	r2, [pc, #64]	@ (8000e94 <MRCC_uddtEnablePeripheral+0x36c>)
 8000e52:	f043 0380 	orr.w	r3, r3, #128	@ 0x80
 8000e56:	61d3      	str	r3, [r2, #28]
 8000e58:	2301      	movs	r3, #1
 8000e5a:	73fb      	strb	r3, [r7, #15]
 8000e5c:	e08d      	b.n	8000f7a <MRCC_uddtEnablePeripheral+0x452>
 8000e5e:	4b0d      	ldr	r3, [pc, #52]	@ (8000e94 <MRCC_uddtEnablePeripheral+0x36c>)
 8000e60:	69db      	ldr	r3, [r3, #28]
 8000e62:	4a0c      	ldr	r2, [pc, #48]	@ (8000e94 <MRCC_uddtEnablePeripheral+0x36c>)
 8000e64:	f443 7380 	orr.w	r3, r3, #256	@ 0x100
 8000e68:	61d3      	str	r3, [r2, #28]
 8000e6a:	2301      	movs	r3, #1
 8000e6c:	73fb      	strb	r3, [r7, #15]
 8000e6e:	e084      	b.n	8000f7a <MRCC_uddtEnablePeripheral+0x452>
 8000e70:	4b08      	ldr	r3, [pc, #32]	@ (8000e94 <MRCC_uddtEnablePeripheral+0x36c>)
 8000e72:	69db      	ldr	r3, [r3, #28]
 8000e74:	4a07      	ldr	r2, [pc, #28]	@ (8000e94 <MRCC_uddtEnablePeripheral+0x36c>)
 8000e76:	f443 6300 	orr.w	r3, r3, #2048	@ 0x800
 8000e7a:	61d3      	str	r3, [r2, #28]
 8000e7c:	2301      	movs	r3, #1
 8000e7e:	73fb      	strb	r3, [r7, #15]
 8000e80:	e07b      	b.n	8000f7a <MRCC_uddtEnablePeripheral+0x452>
 8000e82:	4b04      	ldr	r3, [pc, #16]	@ (8000e94 <MRCC_uddtEnablePeripheral+0x36c>)
 8000e84:	69db      	ldr	r3, [r3, #28]
 8000e86:	4a03      	ldr	r2, [pc, #12]	@ (8000e94 <MRCC_uddtEnablePeripheral+0x36c>)
 8000e88:	f443 4380 	orr.w	r3, r3, #16384	@ 0x4000
 8000e8c:	61d3      	str	r3, [r2, #28]
 8000e8e:	2301      	movs	r3, #1
 8000e90:	73fb      	strb	r3, [r7, #15]
 8000e92:	e072      	b.n	8000f7a <MRCC_uddtEnablePeripheral+0x452>
 8000e94:	40021000 	andmi	r1, r2, r0
 8000e98:	4b3b      	ldr	r3, [pc, #236]	@ (8000f88 <MRCC_uddtEnablePeripheral+0x460>)
 8000e9a:	69db      	ldr	r3, [r3, #28]
 8000e9c:	4a3a      	ldr	r2, [pc, #232]	@ (8000f88 <MRCC_uddtEnablePeripheral+0x460>)
 8000e9e:	f443 4300 	orr.w	r3, r3, #32768	@ 0x8000
 8000ea2:	61d3      	str	r3, [r2, #28]
 8000ea4:	2301      	movs	r3, #1
 8000ea6:	73fb      	strb	r3, [r7, #15]
 8000ea8:	e067      	b.n	8000f7a <MRCC_uddtEnablePeripheral+0x452>
 8000eaa:	4b37      	ldr	r3, [pc, #220]	@ (8000f88 <MRCC_uddtEnablePeripheral+0x460>)
 8000eac:	69db      	ldr	r3, [r3, #28]
 8000eae:	4a36      	ldr	r2, [pc, #216]	@ (8000f88 <MRCC_uddtEnablePeripheral+0x460>)
 8000eb0:	f443 3300 	orr.w	r3, r3, #131072	@ 0x20000
 8000eb4:	61d3      	str	r3, [r2, #28]
 8000eb6:	2301      	movs	r3, #1
 8000eb8:	73fb      	strb	r3, [r7, #15]
 8000eba:	e05e      	b.n	8000f7a <MRCC_uddtEnablePeripheral+0x452>
 8000ebc:	4b32      	ldr	r3, [pc, #200]	@ (8000f88 <MRCC_uddtEnablePeripheral+0x460>)
 8000ebe:	69db      	ldr	r3, [r3, #28]
 8000ec0:	4a31      	ldr	r2, [pc, #196]	@ (8000f88 <MRCC_uddtEnablePeripheral+0x460>)
 8000ec2:	f443 2380 	orr.w	r3, r3, #262144	@ 0x40000
 8000ec6:	61d3      	str	r3, [r2, #28]
 8000ec8:	2301      	movs	r3, #1
 8000eca:	73fb      	strb	r3, [r7, #15]
 8000ecc:	e055      	b.n	8000f7a <MRCC_uddtEnablePeripheral+0x452>
 8000ece:	4b2e      	ldr	r3, [pc, #184]	@ (8000f88 <MRCC_uddtEnablePeripheral+0x460>)
 8000ed0:	69db      	ldr	r3, [r3, #28]
 8000ed2:	4a2d      	ldr	r2, [pc, #180]	@ (8000f88 <MRCC_uddtEnablePeripheral+0x460>)
 8000ed4:	f443 2300 	orr.w	r3, r3, #524288	@ 0x80000
 8000ed8:	61d3      	str	r3, [r2, #28]
 8000eda:	2301      	movs	r3, #1
 8000edc:	73fb      	strb	r3, [r7, #15]
 8000ede:	e04c      	b.n	8000f7a <MRCC_uddtEnablePeripheral+0x452>
 8000ee0:	4b29      	ldr	r3, [pc, #164]	@ (8000f88 <MRCC_uddtEnablePeripheral+0x460>)
 8000ee2:	69db      	ldr	r3, [r3, #28]
 8000ee4:	4a28      	ldr	r2, [pc, #160]	@ (8000f88 <MRCC_uddtEnablePeripheral+0x460>)
 8000ee6:	f443 1380 	orr.w	r3, r3, #1048576	@ 0x100000
 8000eea:	61d3      	str	r3, [r2, #28]
 8000eec:	2301      	movs	r3, #1
 8000eee:	73fb      	strb	r3, [r7, #15]
 8000ef0:	e043      	b.n	8000f7a <MRCC_uddtEnablePeripheral+0x452>
 8000ef2:	4b25      	ldr	r3, [pc, #148]	@ (8000f88 <MRCC_uddtEnablePeripheral+0x460>)
 8000ef4:	69db      	ldr	r3, [r3, #28]
 8000ef6:	4a24      	ldr	r2, [pc, #144]	@ (8000f88 <MRCC_uddtEnablePeripheral+0x460>)
 8000ef8:	f443 1300 	orr.w	r3, r3, #2097152	@ 0x200000
 8000efc:	61d3      	str	r3, [r2, #28]
 8000efe:	2301      	movs	r3, #1
 8000f00:	73fb      	strb	r3, [r7, #15]
 8000f02:	e03a      	b.n	8000f7a <MRCC_uddtEnablePeripheral+0x452>
 8000f04:	4b20      	ldr	r3, [pc, #128]	@ (8000f88 <MRCC_uddtEnablePeripheral+0x460>)
 8000f06:	69db      	ldr	r3, [r3, #28]
 8000f08:	4a1f      	ldr	r2, [pc, #124]	@ (8000f88 <MRCC_uddtEnablePeripheral+0x460>)
 8000f0a:	f443 0380 	orr.w	r3, r3, #4194304	@ 0x400000
 8000f0e:	61d3      	str	r3, [r2, #28]
 8000f10:	2301      	movs	r3, #1
 8000f12:	73fb      	strb	r3, [r7, #15]
 8000f14:	e031      	b.n	8000f7a <MRCC_uddtEnablePeripheral+0x452>
 8000f16:	4b1c      	ldr	r3, [pc, #112]	@ (8000f88 <MRCC_uddtEnablePeripheral+0x460>)
 8000f18:	69db      	ldr	r3, [r3, #28]
 8000f1a:	4a1b      	ldr	r2, [pc, #108]	@ (8000f88 <MRCC_uddtEnablePeripheral+0x460>)
 8000f1c:	f443 0300 	orr.w	r3, r3, #8388608	@ 0x800000
 8000f20:	61d3      	str	r3, [r2, #28]
 8000f22:	2301      	movs	r3, #1
 8000f24:	73fb      	strb	r3, [r7, #15]
 8000f26:	e028      	b.n	8000f7a <MRCC_uddtEnablePeripheral+0x452>
 8000f28:	4b17      	ldr	r3, [pc, #92]	@ (8000f88 <MRCC_uddtEnablePeripheral+0x460>)
 8000f2a:	69db      	ldr	r3, [r3, #28]
 8000f2c:	4a16      	ldr	r2, [pc, #88]	@ (8000f88 <MRCC_uddtEnablePeripheral+0x460>)
 8000f2e:	f043 7300 	orr.w	r3, r3, #33554432	@ 0x2000000
 8000f32:	61d3      	str	r3, [r2, #28]
 8000f34:	2301      	movs	r3, #1
 8000f36:	73fb      	strb	r3, [r7, #15]
 8000f38:	e01f      	b.n	8000f7a <MRCC_uddtEnablePeripheral+0x452>
 8000f3a:	4b13      	ldr	r3, [pc, #76]	@ (8000f88 <MRCC_uddtEnablePeripheral+0x460>)
 8000f3c:	69db      	ldr	r3, [r3, #28]
 8000f3e:	4a12      	ldr	r2, [pc, #72]	@ (8000f88 <MRCC_uddtEnablePeripheral+0x460>)
 8000f40:	f043 6300 	orr.w	r3, r3, #134217728	@ 0x8000000
 8000f44:	61d3      	str	r3, [r2, #28]
 8000f46:	2301      	movs	r3, #1
 8000f48:	73fb      	strb	r3, [r7, #15]
 8000f4a:	e016      	b.n	8000f7a <MRCC_uddtEnablePeripheral+0x452>
 8000f4c:	4b0e      	ldr	r3, [pc, #56]	@ (8000f88 <MRCC_uddtEnablePeripheral+0x460>)
 8000f4e:	69db      	ldr	r3, [r3, #28]
 8000f50:	4a0d      	ldr	r2, [pc, #52]	@ (8000f88 <MRCC_uddtEnablePeripheral+0x460>)
 8000f52:	f043 5380 	orr.w	r3, r3, #268435456	@ 0x10000000
 8000f56:	61d3      	str	r3, [r2, #28]
 8000f58:	2301      	movs	r3, #1
 8000f5a:	73fb      	strb	r3, [r7, #15]
 8000f5c:	e00d      	b.n	8000f7a <MRCC_uddtEnablePeripheral+0x452>
 8000f5e:	4b0a      	ldr	r3, [pc, #40]	@ (8000f88 <MRCC_uddtEnablePeripheral+0x460>)
 8000f60:	69db      	ldr	r3, [r3, #28]
 8000f62:	4a09      	ldr	r2, [pc, #36]	@ (8000f88 <MRCC_uddtEnablePeripheral+0x460>)
 8000f64:	f043 5300 	orr.w	r3, r3, #536870912	@ 0x20000000
 8000f68:	61d3      	str	r3, [r2, #28]
 8000f6a:	2301      	movs	r3, #1
 8000f6c:	73fb      	strb	r3, [r7, #15]
 8000f6e:	e004      	b.n	8000f7a <MRCC_uddtEnablePeripheral+0x452>
 8000f70:	2304      	movs	r3, #4
 8000f72:	73fb      	strb	r3, [r7, #15]
 8000f74:	e001      	b.n	8000f7a <MRCC_uddtEnablePeripheral+0x452>
 8000f76:	2304      	movs	r3, #4
 8000f78:	73fb      	strb	r3, [r7, #15]
 8000f7a:	7bfb      	ldrb	r3, [r7, #15]
 8000f7c:	4618      	mov	r0, r3
 8000f7e:	3714      	adds	r7, #20
 8000f80:	46bd      	mov	sp, r7
 8000f82:	bc80      	pop	{r7}
 8000f84:	4770      	bx	lr
 8000f86:	bf00      	nop
 8000f88:	40021000 	andmi	r1, r2, r0

08000f8c <EXTI9_CALLBACK>:
 8000f8c:	b480      	push	{r7}
 8000f8e:	af00      	add	r7, sp, #0
 8000f90:	4b05      	ldr	r3, [pc, #20]	@ (8000fa8 <EXTI9_CALLBACK+0x1c>)
 8000f92:	2201      	movs	r2, #1
 8000f94:	701a      	strb	r2, [r3, #0]
 8000f96:	f3ef 8305 	mrs	r3, IPSR
 8000f9a:	4a04      	ldr	r2, [pc, #16]	@ (8000fac <EXTI9_CALLBACK+0x20>)
 8000f9c:	6013      	str	r3, [r2, #0]
 8000f9e:	bf00      	nop
 8000fa0:	46bd      	mov	sp, r7
 8000fa2:	bc80      	pop	{r7}
 8000fa4:	4770      	bx	lr
 8000fa6:	bf00      	nop
 8000fa8:	20000068 	andcs	r0, r0, r8, rrx
 8000fac:	20000064 	andcs	r0, r0, r4, rrx

08000fb0 <main>:
 8000fb0:	b580      	push	{r7, lr}
 8000fb2:	b088      	sub	sp, #32
 8000fb4:	af00      	add	r7, sp, #0
 8000fb6:	2300      	movs	r3, #0
 8000fb8:	2200      	movs	r2, #0
 8000fba:	2100      	movs	r1, #0
 8000fbc:	2000      	movs	r0, #0
 8000fbe:	f7ff fd07 	bl	80009d0 <MRCC_uddtInitClk>
 8000fc2:	2007      	movs	r0, #7
 8000fc4:	f7ff fdb0 	bl	8000b28 <MRCC_uddtEnablePeripheral>
 8000fc8:	2009      	movs	r0, #9
 8000fca:	f7ff fdad 	bl	8000b28 <MRCC_uddtEnablePeripheral>
 8000fce:	2301      	movs	r3, #1
 8000fd0:	763b      	strb	r3, [r7, #24]
 8000fd2:	4b21      	ldr	r3, [pc, #132]	@ (8001058 <main+0xa8>)
 8000fd4:	61fb      	str	r3, [r7, #28]
 8000fd6:	2301      	movs	r3, #1
 8000fd8:	767b      	strb	r3, [r7, #25]
 8000fda:	4a20      	ldr	r2, [pc, #128]	@ (800105c <main+0xac>)
 8000fdc:	f107 030c 	add.w	r3, r7, #12
 8000fe0:	ca07      	ldmia	r2, {r0, r1, r2}
 8000fe2:	e883 0007 	stmia.w	r3, {r0, r1, r2}
 8000fe6:	f107 030c 	add.w	r3, r7, #12
 8000fea:	4618      	mov	r0, r3
 8000fec:	f7ff f9ae 	bl	800034c <MEXTI_uddtInit>
 8000ff0:	bf00      	nop
 8000ff2:	bf00      	nop
 8000ff4:	bf00      	nop
 8000ff6:	f04f 03ff 	mov.w	r3, #255	@ 0xff
 8000ffa:	4a19      	ldr	r2, [pc, #100]	@ (8001060 <main+0xb0>)
 8000ffc:	6013      	str	r3, [r2, #0]
 8000ffe:	bf00      	nop
 8001000:	bf00      	nop
 8001002:	bf00      	nop
 8001004:	4b16      	ldr	r3, [pc, #88]	@ (8001060 <main+0xb0>)
 8001006:	681b      	ldr	r3, [r3, #0]
 8001008:	4618      	mov	r0, r3
 800100a:	bf00      	nop
 800100c:	bf00      	nop
 800100e:	bf00      	nop
 8001010:	4b13      	ldr	r3, [pc, #76]	@ (8001060 <main+0xb0>)
 8001012:	681b      	ldr	r3, [r3, #0]
 8001014:	4a13      	ldr	r2, [pc, #76]	@ (8001064 <main+0xb4>)
 8001016:	6812      	ldr	r2, [r2, #0]
 8001018:	4413      	add	r3, r2
 800101a:	4a13      	ldr	r2, [pc, #76]	@ (8001068 <main+0xb8>)
 800101c:	6013      	str	r3, [r2, #0]
 800101e:	bf00      	nop
 8001020:	bf00      	nop
 8001022:	bf00      	nop
 8001024:	4b0e      	ldr	r3, [pc, #56]	@ (8001060 <main+0xb0>)
 8001026:	681a      	ldr	r2, [r3, #0]
 8001028:	4b0e      	ldr	r3, [pc, #56]	@ (8001064 <main+0xb4>)
 800102a:	6819      	ldr	r1, [r3, #0]
 800102c:	440a      	add	r2, r1
 800102e:	4b0e      	ldr	r3, [pc, #56]	@ (8001068 <main+0xb8>)
 8001030:	601a      	str	r2, [r3, #0]
 8001032:	bf00      	nop
 8001034:	bf00      	nop
 8001036:	bf00      	nop
 8001038:	f3ef 8314 	mrs	r3, CONTROL
 800103c:	4a0b      	ldr	r2, [pc, #44]	@ (800106c <main+0xbc>)
 800103e:	6013      	str	r3, [r2, #0]
 8001040:	bf00      	nop
 8001042:	bf00      	nop
 8001044:	bf00      	nop
 8001046:	4b0a      	ldr	r3, [pc, #40]	@ (8001070 <main+0xc0>)
 8001048:	781b      	ldrb	r3, [r3, #0]
 800104a:	2b00      	cmp	r3, #0
 800104c:	d0fb      	beq.n	8001046 <main+0x96>
 800104e:	4b08      	ldr	r3, [pc, #32]	@ (8001070 <main+0xc0>)
 8001050:	2201      	movs	r2, #1
 8001052:	701a      	strb	r2, [r3, #0]
 8001054:	e7f7      	b.n	8001046 <main+0x96>
 8001056:	bf00      	nop
 8001058:	08000f8d 	stmdaeq	r0, {r0, r2, r3, r7, r8, r9, sl, fp}
 800105c:	08001128 	stmdaeq	r0, {r3, r5, r8, ip}
 8001060:	20000000 	andcs	r0, r0, r0
 8001064:	20000004 	andcs	r0, r0, r4
 8001068:	2000006c 	andcs	r0, r0, ip, rrx
 800106c:	20000060 	andcs	r0, r0, r0, rrx
 8001070:	20000068 	andcs	r0, r0, r8, rrx

08001074 <Reset_Handler>:
 8001074:	480d      	ldr	r0, [pc, #52]	@ (80010ac <LoopForever+0x2>)
 8001076:	4685      	mov	sp, r0
 8001078:	f3af 8000 	nop.w
 800107c:	480c      	ldr	r0, [pc, #48]	@ (80010b0 <LoopForever+0x6>)
 800107e:	490d      	ldr	r1, [pc, #52]	@ (80010b4 <LoopForever+0xa>)
 8001080:	4a0d      	ldr	r2, [pc, #52]	@ (80010b8 <LoopForever+0xe>)
 8001082:	2300      	movs	r3, #0
 8001084:	e002      	b.n	800108c <LoopCopyDataInit>

08001086 <CopyDataInit>:
 8001086:	58d4      	ldr	r4, [r2, r3]
 8001088:	50c4      	str	r4, [r0, r3]
 800108a:	3304      	adds	r3, #4

0800108c <LoopCopyDataInit>:
 800108c:	18c4      	adds	r4, r0, r3
 800108e:	428c      	cmp	r4, r1
 8001090:	d3f9      	bcc.n	8001086 <CopyDataInit>
 8001092:	4a0a      	ldr	r2, [pc, #40]	@ (80010bc <LoopForever+0x12>)
 8001094:	4c0a      	ldr	r4, [pc, #40]	@ (80010c0 <LoopForever+0x16>)
 8001096:	2300      	movs	r3, #0
 8001098:	e001      	b.n	800109e <LoopFillZerobss>

0800109a <FillZerobss>:
 800109a:	6013      	str	r3, [r2, #0]
 800109c:	3204      	adds	r2, #4

0800109e <LoopFillZerobss>:
 800109e:	42a2      	cmp	r2, r4
 80010a0:	d3fb      	bcc.n	800109a <FillZerobss>
 80010a2:	f000 f811 	bl	80010c8 <__libc_init_array>
 80010a6:	f7ff ff83 	bl	8000fb0 <main>

080010aa <LoopForever>:
 80010aa:	e7fe      	b.n	80010aa <LoopForever>
 80010ac:	20005000 	andcs	r5, r0, r0
 80010b0:	20000000 	andcs	r0, r0, r0
 80010b4:	20000008 	andcs	r0, r0, r8
 80010b8:	0800113c 	stmdaeq	r0, {r2, r3, r4, r5, r8, ip}
 80010bc:	20000008 	andcs	r0, r0, r8
 80010c0:	20000070 	andcs	r0, r0, r0, ror r0

080010c4 <ADC1_2_IRQHandler>:
 80010c4:	e7fe      	b.n	80010c4 <ADC1_2_IRQHandler>
	...

080010c8 <__libc_init_array>:
 80010c8:	b570      	push	{r4, r5, r6, lr}
 80010ca:	2600      	movs	r6, #0
 80010cc:	4d0c      	ldr	r5, [pc, #48]	@ (8001100 <__libc_init_array+0x38>)
 80010ce:	4c0d      	ldr	r4, [pc, #52]	@ (8001104 <__libc_init_array+0x3c>)
 80010d0:	1b64      	subs	r4, r4, r5
 80010d2:	10a4      	asrs	r4, r4, #2
 80010d4:	42a6      	cmp	r6, r4
 80010d6:	d109      	bne.n	80010ec <__libc_init_array+0x24>
 80010d8:	f000 f81a 	bl	8001110 <_init>
 80010dc:	2600      	movs	r6, #0
 80010de:	4d0a      	ldr	r5, [pc, #40]	@ (8001108 <__libc_init_array+0x40>)
 80010e0:	4c0a      	ldr	r4, [pc, #40]	@ (800110c <__libc_init_array+0x44>)
 80010e2:	1b64      	subs	r4, r4, r5
 80010e4:	10a4      	asrs	r4, r4, #2
 80010e6:	42a6      	cmp	r6, r4
 80010e8:	d105      	bne.n	80010f6 <__libc_init_array+0x2e>
 80010ea:	bd70      	pop	{r4, r5, r6, pc}
 80010ec:	f855 3b04 	ldr.w	r3, [r5], #4
 80010f0:	4798      	blx	r3
 80010f2:	3601      	adds	r6, #1
 80010f4:	e7ee      	b.n	80010d4 <__libc_init_array+0xc>
 80010f6:	f855 3b04 	ldr.w	r3, [r5], #4
 80010fa:	4798      	blx	r3
 80010fc:	3601      	adds	r6, #1
 80010fe:	e7f2      	b.n	80010e6 <__libc_init_array+0x1e>
 8001100:	08001134 	stmdaeq	r0, {r2, r4, r5, r8, ip}
 8001104:	08001134 	stmdaeq	r0, {r2, r4, r5, r8, ip}
 8001108:	08001134 	stmdaeq	r0, {r2, r4, r5, r8, ip}
 800110c:	08001138 	stmdaeq	r0, {r3, r4, r5, r8, ip}

08001110 <_init>:
 8001110:	b5f8      	push	{r3, r4, r5, r6, r7, lr}
 8001112:	bf00      	nop
 8001114:	bcf8      	pop	{r3, r4, r5, r6, r7}
 8001116:	bc08      	pop	{r3}
 8001118:	469e      	mov	lr, r3
 800111a:	4770      	bx	lr

0800111c <_fini>:
 800111c:	b5f8      	push	{r3, r4, r5, r6, r7, lr}
 800111e:	bf00      	nop
 8001120:	bcf8      	pop	{r3, r4, r5, r6, r7}
 8001122:	bc08      	pop	{r3}
 8001124:	469e      	mov	lr, r3
 8001126:	4770      	bx	lr

Disassembly of section .rodata:

08001128 <.rodata>:
 8001128:	00000009 	andeq	r0, r0, r9
 800112c:	40010c00 	andmi	r0, r1, r0, lsl #24
 8001130:	00001709 	andeq	r1, r0, r9, lsl #14

Disassembly of section .init_array:

08001134 <__frame_dummy_init_array_entry>:
 8001134:	08000155 	stmdaeq	r0, {r0, r2, r4, r6, r8}

Disassembly of section .fini_array:

08001138 <__do_global_dtors_aux_fini_array_entry>:
 8001138:	08000131 	stmdaeq	r0, {r0, r4, r5, r8}

Disassembly of section .data:

20000000 <VAL1>:
20000000:	00000003 	andeq	r0, r0, r3

20000004 <VAL2>:
20000004:	00000007 	andeq	r0, r0, r7

Disassembly of section .bss:

20000008 <__bss_start__>:
20000008:	00000000 	andeq	r0, r0, r0

2000000c <object.0>:
	...

20000024 <GP_IRQ_Callback>:
	...

20000060 <controlReg>:
20000060:	00000000 	andeq	r0, r0, r0

20000064 <ipsrReg>:
20000064:	00000000 	andeq	r0, r0, r0

20000068 <IRQFlag>:
20000068:	00000000 	andeq	r0, r0, r0

2000006c <VAL3>:
2000006c:	00000000 	andeq	r0, r0, r0

Disassembly of section ._user_heap_stack:

20000070 <_end>:
	...

Disassembly of section .ARM.attributes:

00000000 <.ARM.attributes>:
   0:	00002841 	andeq	r2, r0, r1, asr #16
   4:	61656100 	cmnvs	r5, r0, lsl #2
   8:	01006962 	tsteq	r0, r2, ror #18
   c:	0000001e 	andeq	r0, r0, lr, lsl r0
  10:	4d2d3705 	stcmi	7, cr3, [sp, #-20]!	@ 0xffffffec
  14:	070a0600 	streq	r0, [sl, -r0, lsl #12]
  18:	1202094d 	andne	r0, r2, #1261568	@ 0x134000
  1c:	15011404 	strne	r1, [r1, #-1028]	@ 0xfffffbfc
  20:	18031701 	stmdane	r3, {r0, r8, r9, sl, ip}
  24:	22011a01 	andcs	r1, r1, #4096	@ 0x1000
  28:	Address 0x28 is out of bounds.


Disassembly of section .debug_info:

00000000 <.debug_info>:
       0:	000007fc 	strdeq	r0, [r0], -ip
       4:	00000002 	andeq	r0, r0, r2
       8:	01040000 	mrseq	r0, (UNDEF: 4)
       c:	00002634 	andeq	r2, r0, r4, lsr r6
      10:	0053ca0c 	subseq	ip, r3, ip, lsl #20
      14:	00290f00 	eoreq	r0, r9, r0, lsl #30
	...
      2c:	06010200 	streq	r0, [r1], -r0, lsl #4
      30:	000004e6 	andeq	r0, r0, r6, ror #9
      34:	000ec503 	andeq	ip, lr, r3, lsl #10
      38:	182b0200 	stmdane	fp!, {r9}
      3c:	00000040 	andeq	r0, r0, r0, asr #32
      40:	dc080102 	stfles	f0, [r8], {2}
      44:	02000042 	andeq	r0, r0, #66	@ 0x42
      48:	05fc0502 	ldrbeq	r0, [ip, #1282]!	@ 0x502
      4c:	02020000 	andeq	r0, r2, #0
      50:	0050f607 	subseq	pc, r0, r7, lsl #12
      54:	05040200 	streq	r0, [r4, #-512]	@ 0xfffffe00
      58:	0000391a 	andeq	r3, r0, sl, lsl r9
      5c:	0038dc03 	eorseq	sp, r8, r3, lsl #24
      60:	194f0200 	stmdbne	pc, {r9}^	@ <UNPREDICTABLE>
      64:	00000068 	andeq	r0, r0, r8, rrx
      68:	14070402 	strne	r0, [r7], #-1026	@ 0xfffffbfe
      6c:	02000016 	andeq	r0, r0, #22
      70:	3bf10508 	blcc	ffc41498 <_estack+0xdfc3c498>
      74:	08020000 	stmdaeq	r2, {}	@ <UNPREDICTABLE>
      78:	005b7907 	subseq	r7, fp, r7, lsl #18
      7c:	05040400 	streq	r0, [r4, #-1024]	@ 0xfffffc00
      80:	00746e69 	rsbseq	r6, r4, r9, ror #28
      84:	dd070402 	cfstrsle	mvf0, [r7, #-8]
      88:	0300001b 	movweq	r0, #27
      8c:	00000ec7 	andeq	r0, r0, r7, asr #29
      90:	34131803 	ldrcc	r1, [r3], #-2051	@ 0xfffff7fd
      94:	03000000 	movweq	r0, #0
      98:	000038de 	ldrdeq	r3, [r0], -lr
      9c:	5c143003 	ldcpl	0, cr3, [r4], {3}
      a0:	05000000 	streq	r0, [r0, #-0]
      a4:	00000097 	muleq	r0, r7, r0
      a8:	0071fd03 	rsbseq	pc, r1, r3, lsl #26
      ac:	16220400 	strtne	r0, [r2], -r0, lsl #8
      b0:	0000008b 	andeq	r0, r0, fp, lsl #1
      b4:	00228303 	eoreq	r8, r2, r3, lsl #6
      b8:	20340400 	eorscs	r0, r4, r0, lsl #8
      bc:	000000a3 	andeq	r0, r0, r3, lsr #1
      c0:	dd040402 	cfstrsle	mvf0, [r4, #-8]
      c4:	02000068 	andeq	r0, r0, #104	@ 0x68
      c8:	496d0408 	stmdbmi	sp!, {r3, sl}^
      cc:	08020000 	stmdaeq	r2, {}	@ <UNPREDICTABLE>
      d0:	00496804 	subeq	r6, r9, r4, lsl #16
      d4:	01070600 	tsteq	r7, r0, lsl #12
      d8:	00000040 	andeq	r0, r0, r0, asr #32
      dc:	02015704 	andeq	r5, r1, #4, 14	@ 0x100000
      e0:	07000001 	streq	r0, [r0, -r1]
      e4:	00006446 	andeq	r6, r0, r6, asr #8
      e8:	4eda0700 	cdpmi	7, 13, cr0, cr10, cr0, {0}
      ec:	07010000 	streq	r0, [r1, -r0]
      f0:	00006a26 	andeq	r6, r0, r6, lsr #20
      f4:	3df40702 	ldclcc	7, cr0, [r4, #8]!
      f8:	07030000 	streq	r0, [r3, -r0]
      fc:	000031f5 	strdeq	r3, [r0], -r5
     100:	02030004 	andeq	r0, r3, #4
     104:	04000003 	streq	r0, [r0], #-3
     108:	00d5025d 	sbcseq	r0, r5, sp, asr r2
     10c:	1c080000 	stcne	0, cr0, [r8], {-0}
     110:	8109b105 	tsthi	r9, r5, lsl #2
     114:	09000001 	stmdbeq	r0, {r0}
     118:	004c5243 	subeq	r5, ip, r3, asr #4
     11c:	b40cb305 	strlt	fp, [ip], #-773	@ 0xfffffcfb
     120:	02000000 	andeq	r0, r0, #0
     124:	43090023 	movwmi	r0, #36899	@ 0x9023
     128:	05004852 	streq	r4, [r0, #-2130]	@ 0xfffff7ae
     12c:	00b40cb4 	ldrhteq	r0, [r4], r4
     130:	23020000 	movwcs	r0, #8192	@ 0x2000
     134:	44490904 	strbmi	r0, [r9], #-2308	@ 0xfffff6fc
     138:	b5050052 	strlt	r0, [r5, #-82]	@ 0xffffffae
     13c:	0000b40c 	andeq	fp, r0, ip, lsl #8
     140:	08230200 	stmdaeq	r3!, {r9}
     144:	52444f09 	subpl	r4, r4, #9, 30	@ 0x24
     148:	0cb60500 	cfldr32eq	mvfx0, [r6]
     14c:	000000b4 	strheq	r0, [r0], -r4
     150:	0a0c2302 	beq	308d60 <_Min_Stack_Size+0x308960>
     154:	0000613f 	andeq	r6, r0, pc, lsr r1
     158:	b40cb705 	strlt	fp, [ip], #-1797	@ 0xfffff8fb
     15c:	02000000 	andeq	r0, r0, #0
     160:	42091023 	andmi	r1, r9, #35	@ 0x23
     164:	05005252 	streq	r5, [r0, #-594]	@ 0xfffffdae
     168:	00b40cb8 	ldrhteq	r0, [r4], r8
     16c:	23020000 	movwcs	r0, #8192	@ 0x2000
     170:	34110a14 	ldrcc	r0, [r1], #-2580	@ 0xfffff5ec
     174:	b9050000 	stmdblt	r5, {}	@ <UNPREDICTABLE>
     178:	0000b40c 	andeq	fp, r0, ip, lsl #8
     17c:	18230200 	stmdane	r3!, {r9}
     180:	45a30300 	strmi	r0, [r3, #768]!	@ 0x300
     184:	ba050000 	blt	14018c <_Min_Stack_Size+0x13fd8c>
     188:	00010e02 	andeq	r0, r1, r2, lsl #28
     18c:	05180800 	ldreq	r0, [r8, #-2048]	@ 0xfffff800
     190:	01f009c0 	mvnseq	r0, r0, asr #19
     194:	49090000 	stmdbmi	r9, {}	@ <UNPREDICTABLE>
     198:	0500524d 	streq	r5, [r0, #-589]	@ 0xfffffdb3
     19c:	00b40cc2 	adcseq	r0, r4, r2, asr #25
     1a0:	23020000 	movwcs	r0, #8192	@ 0x2000
     1a4:	4d450900 	vstrmi.16	s1, [r5, #-0]	@ <UNPREDICTABLE>
     1a8:	c3050052 	movwgt	r0, #20562	@ 0x5052
     1ac:	0000b40c 	andeq	fp, r0, ip, lsl #8
     1b0:	04230200 	strteq	r0, [r3], #-512	@ 0xfffffe00
     1b4:	00156d0a 	andseq	r6, r5, sl, lsl #26
     1b8:	0cc40500 	cfstr64eq	mvdx0, [r4], {0}
     1bc:	000000b4 	strheq	r0, [r0], -r4
     1c0:	0a082302 	beq	208dd0 <_Min_Stack_Size+0x2089d0>
     1c4:	000004ad 	andeq	r0, r0, sp, lsr #9
     1c8:	b40cc505 	strlt	ip, [ip], #-1285	@ 0xfffffafb
     1cc:	02000000 	andeq	r0, r0, #0
     1d0:	160a0c23 	strne	r0, [sl], -r3, lsr #24
     1d4:	0500004c 	streq	r0, [r0, #-76]	@ 0xffffffb4
     1d8:	00b40cc6 	adcseq	r0, r4, r6, asr #25
     1dc:	23020000 	movwcs	r0, #8192	@ 0x2000
     1e0:	52500910 	subspl	r0, r0, #16, 18	@ 0x40000
     1e4:	0cc70500 	cfstr64eq	mvdx0, [r7], {0}
     1e8:	000000b4 	strheq	r0, [r0], -r4
     1ec:	00142302 	andseq	r2, r4, r2, lsl #6
     1f0:	003ccd03 	eorseq	ip, ip, r3, lsl #26
     1f4:	02c80500 	sbceq	r0, r8, #0, 10
     1f8:	0000018d 	andeq	r0, r0, sp, lsl #3
     1fc:	ce052008 	cdpgt	0, 0, cr2, cr5, cr8, {0}
     200:	00025109 	andeq	r5, r2, r9, lsl #2
     204:	63e20a00 	mvnvs	r0, #0, 20
     208:	d0050000 	andle	r0, r5, r0
     20c:	0000b40c 	andeq	fp, r0, ip, lsl #8
     210:	00230200 	eoreq	r0, r3, r0, lsl #4
     214:	0052350a 	subseq	r3, r2, sl, lsl #10
     218:	0cd10500 	cfldr64eq	mvdx0, [r1], {0}
     21c:	000000b4 	strheq	r0, [r0], -r4
     220:	0a042302 	beq	108e30 <_Min_Stack_Size+0x108a30>
     224:	000060f7 	strdeq	r6, [r0], -r7
     228:	610cd205 	tstvs	ip, r5, lsl #4
     22c:	02000002 	andeq	r0, r0, #2
     230:	be0a0823 	cdplt	8, 0, cr0, cr10, cr3, {1}
     234:	0500001b 	streq	r0, [r0, #-27]	@ 0xffffffe5
     238:	00b40cd3 	ldrsbteq	r0, [r4], r3
     23c:	23020000 	movwcs	r0, #8192	@ 0x2000
     240:	2fc20a18 	svccs	0x00c20a18
     244:	d4050000 	strle	r0, [r5], #-0
     248:	0000b40c 	andeq	fp, r0, ip, lsl #8
     24c:	1c230200 	sfmne	f0, 4, [r3], #-0
     250:	00b40b00 	adcseq	r0, r4, r0, lsl #22
     254:	02610000 	rsbeq	r0, r1, #0
     258:	840c0000 	strhi	r0, [ip], #-0
     25c:	03000000 	movweq	r0, #0
     260:	02510500 	subseq	r0, r1, #0, 10
     264:	38030000 	stmdacc	r3, {}	@ <UNPREDICTABLE>
     268:	05000011 	streq	r0, [r0, #-17]	@ 0xffffffef
     26c:	01fc02d5 	ldrsbeq	r0, [ip, #37]!	@ 0x25
     270:	07060000 	streq	r0, [r6, -r0]
     274:	00004001 	andeq	r4, r0, r1
     278:	01120600 	tsteq	r2, r0, lsl #12
     27c:	000002b7 			@ <UNDEFINED> instruction: 0x000002b7
     280:	00200a07 	eoreq	r0, r0, r7, lsl #20
     284:	78070000 	stmdavc	r7, {}	@ <UNPREDICTABLE>
     288:	01000018 	tsteq	r0, r8, lsl r0
     28c:	001a5707 	andseq	r5, sl, r7, lsl #14
     290:	f9070200 			@ <UNDEFINED> instruction: 0xf9070200
     294:	0300000e 	movweq	r0, #14
     298:	00577d07 	subseq	r7, r7, r7, lsl #26
     29c:	37070400 	strcc	r0, [r7, -r0, lsl #8]
     2a0:	05000003 	streq	r0, [r0, #-3]
     2a4:	004f6e07 	subeq	r6, pc, r7, lsl #28
     2a8:	3c070600 	stccc	6, cr0, [r7], {-0}
     2ac:	0700006c 	streq	r0, [r0, -ip, rrx]
     2b0:	00444707 	subeq	r4, r4, r7, lsl #14
     2b4:	03000800 	movweq	r0, #2048	@ 0x800
     2b8:	00005d0b 	andeq	r5, r0, fp, lsl #26
     2bc:	72021c06 	andvc	r1, r2, #1536	@ 0x600
     2c0:	06000002 	streq	r0, [r0], -r2
     2c4:	00400107 	subeq	r0, r0, r7, lsl #2
     2c8:	20060000 	andcs	r0, r6, r0
     2cc:	00033201 	andeq	r3, r3, r1, lsl #4
     2d0:	224c0700 	subcs	r0, ip, #0, 14
     2d4:	07000000 	streq	r0, [r0, -r0]
     2d8:	00002257 	andeq	r2, r0, r7, asr r2
     2dc:	22620701 	rsbcs	r0, r2, #262144	@ 0x40000
     2e0:	07020000 	streq	r0, [r2, -r0]
     2e4:	0000226d 	andeq	r2, r0, sp, ror #4
     2e8:	22780703 	rsbscs	r0, r8, #786432	@ 0xc0000
     2ec:	07040000 	streq	r0, [r4, -r0]
     2f0:	000047c8 	andeq	r4, r0, r8, asr #15
     2f4:	47e20705 	strbmi	r0, [r2, r5, lsl #14]!
     2f8:	07060000 	streq	r0, [r6, -r0]
     2fc:	0000228b 	andeq	r2, r0, fp, lsl #5
     300:	22960707 	addscs	r0, r6, #1835008	@ 0x1c0000
     304:	07080000 	streq	r0, [r8, -r0]
     308:	000022a1 	andeq	r2, r0, r1, lsr #5
     30c:	511b0709 	tstpl	fp, r9, lsl #14
     310:	070a0000 	streq	r0, [sl, -r0]
     314:	00004fc4 	andeq	r4, r0, r4, asr #31
     318:	4fd0070b 	svcmi	0x00d0070b
     31c:	070c0000 	streq	r0, [ip, -r0]
     320:	000051a2 	andeq	r5, r0, r2, lsr #3
     324:	4feb070d 	svcmi	0x00eb070d
     328:	070e0000 	streq	r0, [lr, -r0]
     32c:	00004ff7 	strdeq	r4, [r0], -r7
     330:	9703000f 	strls	r0, [r3, -pc]
     334:	06000054 			@ <UNDEFINED> instruction: 0x06000054
     338:	02c30232 	sbceq	r0, r3, #536870915	@ 0x20000003
     33c:	07060000 	streq	r0, [r6, -r0]
     340:	00004001 	andeq	r4, r0, r1
     344:	01360600 	teqeq	r6, r0, lsl #12
     348:	0000035f 	andeq	r0, r0, pc, asr r3
     34c:	0014d807 	andseq	sp, r4, r7, lsl #16
     350:	02070100 	andeq	r0, r7, #0, 2
     354:	02000043 	andeq	r0, r0, #67	@ 0x43
     358:	004f4307 	subeq	r4, pc, r7, lsl #6
     35c:	03000300 	movweq	r0, #768	@ 0x300
     360:	00004a8f 	andeq	r4, r0, pc, lsl #21
     364:	3e023a06 	vmlacc.f32	s6, s4, s12
     368:	06000003 	streq	r0, [r0], -r3
     36c:	00400107 	subeq	r0, r0, r7, lsl #2
     370:	3e060000 	cdpcc	0, 0, cr0, cr6, cr0, {0}
     374:	00038601 	andeq	r8, r3, r1, lsl #12
     378:	66680700 	strbtvs	r0, [r8], -r0, lsl #14
     37c:	07000000 	streq	r0, [r0, -r0]
     380:	00006e59 	andeq	r6, r0, r9, asr lr
     384:	9d030001 	stcls	0, cr0, [r3, #-4]
     388:	06000063 	streq	r0, [r0], -r3, rrx
     38c:	036b0241 	cmneq	fp, #268435460	@ 0x10000004
     390:	08080000 	stmdaeq	r8, {}	@ <UNPREDICTABLE>
     394:	e7094f06 	str	r4, [r9, -r6, lsl #30]
     398:	0a000003 	beq	3ac <_Min_Heap_Size+0x1ac>
     39c:	0000286f 	andeq	r2, r0, pc, ror #16
     3a0:	e7195106 	ldr	r5, [r9, -r6, lsl #2]
     3a4:	02000003 	andeq	r0, r0, #3
     3a8:	500a0023 	andpl	r0, sl, r3, lsr #32
     3ac:	06000030 			@ <UNDEFINED> instruction: 0x06000030
     3b0:	03321852 	teqeq	r2, #5373952	@ 0x520000
     3b4:	23020000 	movwcs	r0, #8192	@ 0x2000
     3b8:	3e9c0a04 	vfnmscc.f32	s0, s24, s8
     3bc:	53060000 	movwpl	r0, #24576	@ 0x6000
     3c0:	0002b718 	andeq	fp, r2, r8, lsl r7
     3c4:	05230200 	streq	r0, [r3, #-512]!	@ 0xfffffe00
     3c8:	005ff70a 	subseq	pc, pc, sl, lsl #14
     3cc:	18540600 	ldmdane	r4, {r9, sl}^
     3d0:	0000035f 	andeq	r0, r0, pc, asr r3
     3d4:	0a062302 	beq	188fe4 <_Min_Stack_Size+0x188be4>
     3d8:	00006c2f 	andeq	r6, r0, pc, lsr #24
     3dc:	86185506 	ldrhi	r5, [r8], -r6, lsl #10
     3e0:	02000003 	andeq	r0, r0, #3
     3e4:	0d000723 	stceq	7, cr0, [r0, #-140]	@ 0xffffff74
     3e8:	00018104 	andeq	r8, r1, r4, lsl #2
     3ec:	67bc0300 	ldrvs	r0, [ip, r0, lsl #6]!
     3f0:	56060000 	strpl	r0, [r6], -r0
     3f4:	00039202 	andeq	r9, r3, r2, lsl #4
     3f8:	01070600 	tsteq	r7, r0, lsl #12
     3fc:	00000040 	andeq	r0, r0, r0, asr #32
     400:	68011507 	stmdavs	r1, {r0, r1, r2, r8, sl, ip}
     404:	07000004 	streq	r0, [r0, -r4]
     408:	00000f77 	andeq	r0, r0, r7, ror pc
     40c:	0f830700 	svceq	0x00830700
     410:	07010000 	streq	r0, [r1, -r0]
     414:	00006581 	andeq	r6, r0, r1, lsl #11
     418:	0fba0702 	svceq	0x00ba0702
     41c:	07030000 	streq	r0, [r3, -r0]
     420:	00000fc6 	andeq	r0, r0, r6, asr #31
     424:	0fd20704 	svceq	0x00d20704
     428:	07050000 	streq	r0, [r5, -r0]
     42c:	00000fde 	ldrdeq	r0, [r0], -lr
     430:	0fea0706 	svceq	0x00ea0706
     434:	07070000 	streq	r0, [r7, -r0]
     438:	00000ff6 	strdeq	r0, [r0], -r6
     43c:	10020708 	andne	r0, r2, r8, lsl #14
     440:	07090000 	streq	r0, [r9, -r0]
     444:	00004f96 	muleq	r0, r6, pc	@ <UNPREDICTABLE>
     448:	63b2070a 			@ <UNDEFINED> instruction: 0x63b2070a
     44c:	070b0000 	streq	r0, [fp, -r0]
     450:	000063d5 	ldrdeq	r6, [r0], -r5
     454:	63e7070c 	mvnvs	r0, #12, 14	@ 0x300000
     458:	070d0000 	streq	r0, [sp, -r0]
     45c:	0000640f 	andeq	r6, r0, pc, lsl #8
     460:	641c070e 	ldrvs	r0, [ip], #-1806	@ 0xfffff8f2
     464:	000f0000 	andeq	r0, pc, r0
     468:	0041f303 	subeq	pc, r1, r3, lsl #6
     46c:	02260700 	eoreq	r0, r6, #0, 14
     470:	000003f9 	strdeq	r0, [r0], -r9
     474:	40010706 	andmi	r0, r1, r6, lsl #14
     478:	07000000 	streq	r0, [r0, -r0]
     47c:	0495012a 	ldreq	r0, [r5], #298	@ 0x12a
     480:	c2070000 	andgt	r0, r7, #0
     484:	00000066 	andeq	r0, r0, r6, rrx
     488:	00189607 	andseq	r9, r8, r7, lsl #12
     48c:	c8070100 	stmdagt	r7, {r8}
     490:	02000064 	andeq	r0, r0, #100	@ 0x64
     494:	1e1f0300 	cdpne	3, 1, cr0, cr15, cr0, {0}
     498:	2e070000 	cdpcs	0, 0, cr0, cr7, cr0, {0}
     49c:	00047402 	andeq	r7, r4, r2, lsl #8
     4a0:	070c0800 	streq	r0, [ip, -r0, lsl #16]
     4a4:	04e70931 	strbteq	r0, [r7], #2353	@ 0x931
     4a8:	8c0a0000 	stchi	0, cr0, [sl], {-0}
     4ac:	0700002d 	streq	r0, [r0, -sp, lsr #32]
     4b0:	04681933 	strbteq	r1, [r8], #-2355	@ 0xfffff6cd
     4b4:	23020000 	movwcs	r0, #8192	@ 0x2000
     4b8:	4b4f0a00 	blmi	13c2cc0 <_Min_Stack_Size+0x13c28c0>
     4bc:	34070000 	strcc	r0, [r7], #-0
     4c0:	0003e719 	andeq	lr, r3, r9, lsl r7
     4c4:	04230200 	strteq	r0, [r3], #-512	@ 0xfffffe00
     4c8:	0030500a 	eorseq	r5, r0, sl
     4cc:	19350700 	ldmdbne	r5!, {r8, r9, sl}
     4d0:	00000332 	andeq	r0, r0, r2, lsr r3
     4d4:	0a082302 	beq	2090e4 <_Min_Stack_Size+0x208ce4>
     4d8:	00001626 	andeq	r1, r0, r6, lsr #12
     4dc:	a80e3607 	stmdage	lr, {r0, r1, r2, r9, sl, ip, sp}
     4e0:	02000000 	andeq	r0, r0, #0
     4e4:	03000923 	movweq	r0, #2339	@ 0x923
     4e8:	000000ff 	strdeq	r0, [r0], -pc	@ <UNPREDICTABLE>
     4ec:	a1023707 	tstge	r2, r7, lsl #14
     4f0:	08000004 	stmdaeq	r0, {r2}
     4f4:	09390714 	ldmdbeq	r9!, {r2, r4, r8, r9, sl}
     4f8:	00000539 	andeq	r0, r0, r9, lsr r5
     4fc:	004cf50a 	subeq	pc, ip, sl, lsl #10
     500:	193b0700 	ldmdbne	fp!, {r8, r9, sl}
     504:	000004e7 	andeq	r0, r0, r7, ror #9
     508:	0a002302 	beq	9118 <_Min_Stack_Size+0x8d18>
     50c:	00004527 	andeq	r4, r0, r7, lsr #10
     510:	95193c07 	ldrls	r3, [r9, #-3079]	@ 0xfffff3f9
     514:	02000004 	andeq	r0, r0, #4
     518:	720a0c23 	andvc	r0, sl, #8960	@ 0x2300
     51c:	07000029 	streq	r0, [r0, -r9, lsr #32]
     520:	00a80e3d 	adceq	r0, r8, sp, lsr lr
     524:	23020000 	movwcs	r0, #8192	@ 0x2000
     528:	4e270a0d 	vmulmi.f32	s0, s14, s26
     52c:	3e070000 	cdpcc	0, 0, cr0, cr7, cr0, {0}
     530:	00053b08 	andeq	r3, r5, r8, lsl #22
     534:	10230200 	eorne	r0, r3, r0, lsl #4
     538:	0d010e00 	stceq	14, cr0, [r1, #-0]
     53c:	00053904 	andeq	r3, r5, r4, lsl #18
     540:	6c1f0300 	ldcvs	3, cr0, [pc], {-0}
     544:	3f070000 	svccc	0x00070000
     548:	0004f302 	andeq	pc, r4, r2, lsl #6
     54c:	053b0b00 	ldreq	r0, [fp, #-2816]!	@ 0xfffff500
     550:	055d0000 	ldrbeq	r0, [sp, #-0]
     554:	840c0000 	strhi	r0, [ip], #-0
     558:	0e000000 	cdpeq	0, 0, cr0, cr0, cr0, {0}
     55c:	59140f00 	ldmdbpl	r4, {r8, r9, sl, fp}
     560:	11010000 	mrsne	r0, (UNDEF: 1)
     564:	00054d0e 	andeq	r4, r5, lr, lsl #26
     568:	24030500 	strcs	r0, [r3], #-1280	@ 0xfffffb00
     56c:	10200000 	eorne	r0, r0, r0
     570:	00062c01 	andeq	r2, r6, r1, lsl #24
     574:	18650800 	stmdane	r5!, {fp}^
     578:	00010201 	andeq	r0, r1, r1, lsl #4
     57c:	05880100 	streq	r0, [r8, #256]	@ 0x100
     580:	a8110000 	ldmdage	r1, {}	@ <UNPREDICTABLE>
     584:	00000000 	andeq	r0, r0, r0
     588:	56d80110 			@ <UNDEFINED> instruction: 0x56d80110
     58c:	66080000 	strvs	r0, [r8], -r0
     590:	01020118 	tsteq	r2, r8, lsl r1
     594:	a1010000 	mrsge	r0, (UNDEF: 1)
     598:	11000005 	tstne	r0, r5
     59c:	000000a8 	andeq	r0, r0, r8, lsr #1
     5a0:	d3011000 	movwle	r1, #4096	@ 0x1000
     5a4:	06000012 			@ <UNDEFINED> instruction: 0x06000012
     5a8:	020117a2 	andeq	r1, r1, #42467328	@ 0x2880000
     5ac:	01000001 	tsteq	r0, r1
     5b0:	000005ba 			@ <UNDEFINED> instruction: 0x000005ba
     5b4:	0005ba11 	andeq	fp, r5, r1, lsl sl
     5b8:	040d0000 	streq	r0, [sp], #-0
     5bc:	000003ed 	andeq	r0, r0, sp, ror #7
     5c0:	64fe0112 	ldrbtvs	r0, [lr], #274	@ 0x112
     5c4:	cc010000 	stcgt	0, cr0, [r1], {-0}
     5c8:	056c0106 	strbeq	r0, [ip, #-262]!	@ 0xfffffefa
     5cc:	06300800 	ldrteq	r0, [r0], -r0, lsl #16
     5d0:	00000800 	andeq	r0, r0, r0, lsl #16
     5d4:	12010000 	andne	r0, r1, #0
     5d8:	00569f01 	subseq	r9, r6, r1, lsl #30
     5dc:	06c30100 	strbeq	r0, [r3], r0, lsl #2
     5e0:	0004c401 	andeq	ip, r4, r1, lsl #8
     5e4:	00056c08 	andeq	r6, r5, r8, lsl #24
     5e8:	00002c08 	andeq	r2, r0, r8, lsl #24
     5ec:	01120100 	tsteq	r2, r0, lsl #2
     5f0:	00001efc 	strdeq	r1, [r0], -ip
     5f4:	0106bd01 	tsteq	r6, r1, lsl #26
     5f8:	080004a0 	stmdaeq	r0, {r5, r7, sl}
     5fc:	080004c4 	stmdaeq	r0, {r2, r6, r7, sl}
     600:	00000058 	andeq	r0, r0, r8, asr r0
     604:	88011201 	stmdahi	r1, {r0, r9, ip}
     608:	0100005e 	qaddeq	r0, lr, r0
     60c:	7c0106b7 	stcvc	6, cr0, [r1], {183}	@ 0xb7
     610:	a0080004 	andge	r0, r8, r4
     614:	84080004 	strhi	r0, [r8], #-4
     618:	01000000 	mrseq	r0, (UNDEF: 0)
     61c:	3f3a0112 	svccc	0x003a0112
     620:	b1010000 	mrslt	r0, (UNDEF: 1)
     624:	04580106 	ldrbeq	r0, [r8], #-262	@ 0xfffffefa
     628:	047c0800 	ldrbteq	r0, [ip], #-2048	@ 0xfffff800
     62c:	00b00800 	adcseq	r0, r0, r0, lsl #16
     630:	12010000 	andne	r0, r1, #0
     634:	006d6a01 	rsbeq	r6, sp, r1, lsl #20
     638:	06ab0100 	strteq	r0, [fp], r0, lsl #2
     63c:	00043401 	andeq	r3, r4, r1, lsl #8
     640:	00045808 	andeq	r5, r4, r8, lsl #16
     644:	0000dc08 	andeq	sp, r0, r8, lsl #24
     648:	01120100 	tsteq	r2, r0, lsl #2
     64c:	000061d7 	ldrdeq	r6, [r0], -r7
     650:	0106a501 	tsteq	r6, r1, lsl #10
     654:	08000410 	stmdaeq	r0, {r4, sl}
     658:	08000434 	stmdaeq	r0, {r2, r4, r5, sl}
     65c:	00000108 	andeq	r0, r0, r8, lsl #2
     660:	87011301 	strhi	r1, [r1, -r1, lsl #6]
     664:	01000054 	qaddeq	r0, r4, r0
     668:	0201188e 	andeq	r1, r1, #9306112	@ 0x8e0000
     66c:	00000001 	andeq	r0, r0, r1
     670:	00000000 	andeq	r0, r0, r0
     674:	34000000 	strcc	r0, [r0], #-0
     678:	01000001 	tsteq	r0, r1
     67c:	00000690 	muleq	r0, r0, r6
     680:	74657214 	strbtvc	r7, [r5], #-532	@ 0xfffffdec
     684:	18900100 	ldmne	r0, {r8}
     688:	00000102 	andeq	r0, r0, r2, lsl #2
     68c:	00779102 	rsbseq	r9, r7, r2, lsl #2
     690:	28a70113 	stmiacs	r7!, {r0, r1, r4, r8}
     694:	7f010000 	svcvc	0x00010000
     698:	01020118 	tsteq	r2, r8, lsl r1
     69c:	03c40000 	biceq	r0, r4, #0
     6a0:	04100800 	ldreq	r0, [r0], #-2048	@ 0xfffff800
     6a4:	01840800 	orreq	r0, r4, r0, lsl #16
     6a8:	ce010000 	cdpgt	0, 0, cr0, cr1, cr0, {0}
     6ac:	15000006 	strne	r0, [r0, #-6]
     6b0:	00005127 	andeq	r5, r0, r7, lsr #2
     6b4:	ce3e7f01 	cdpgt	15, 3, cr7, cr14, cr1, {0}
     6b8:	02000006 	andeq	r0, r0, #6
     6bc:	72146c91 	andsvc	r6, r4, #37120	@ 0x9100
     6c0:	01007465 	tsteq	r0, r5, ror #8
     6c4:	01021881 	smlabbeq	r2, r1, r8, r1
     6c8:	91020000 	mrsls	r0, (UNDEF: 2)
     6cc:	040d0077 	streq	r0, [sp], #-119	@ 0xffffff89
     6d0:	00000541 	andeq	r0, r0, r1, asr #10
     6d4:	45560113 	ldrbmi	r0, [r6, #-275]	@ 0xfffffeed
     6d8:	70010000 	andvc	r0, r1, r0
     6dc:	01020118 	tsteq	r2, r8, lsl r1
     6e0:	03780000 	cmneq	r8, #0
     6e4:	03c40800 	biceq	r0, r4, #0, 16
     6e8:	01d40800 	bicseq	r0, r4, r0, lsl #16
     6ec:	12010000 	andne	r0, r1, #0
     6f0:	15000007 	strne	r0, [r0, #-7]
     6f4:	00005127 	andeq	r5, r0, r7, lsr #2
     6f8:	ce3c7001 	cdpgt	0, 3, cr7, cr12, cr1, {0}
     6fc:	02000006 	andeq	r0, r0, #6
     700:	72146c91 	andsvc	r6, r4, #37120	@ 0x9100
     704:	01007465 	tsteq	r0, r5, ror #8
     708:	01021872 	tsteq	r2, r2, ror r8
     70c:	91020000 	mrsls	r0, (UNDEF: 2)
     710:	01160077 	tsteq	r6, r7, ror r0
     714:	00001f55 	andeq	r1, r0, r5, asr pc
     718:	01186101 	tsteq	r8, r1, lsl #2
     71c:	00000102 	andeq	r0, r0, r2, lsl #2
	...
     728:	00000224 	andeq	r0, r0, r4, lsr #4
     72c:	00075001 	andeq	r5, r7, r1
     730:	51271500 			@ <UNDEFINED> instruction: 0x51271500
     734:	61010000 	mrsvs	r0, (UNDEF: 1)
     738:	0006ce3f 	andeq	ip, r6, pc, lsr lr
     73c:	6c910200 	lfmvs	f0, 4, [r1], {0}
     740:	74657214 	strbtvc	r7, [r5], #-532	@ 0xfffffdec
     744:	18630100 	stmdane	r3!, {r8}^
     748:	00000102 	andeq	r0, r0, r2, lsl #2
     74c:	00779102 	rsbseq	r9, r7, r2, lsl #2
     750:	4b5c0113 	blmi	1700ba4 <_Min_Stack_Size+0x17007a4>
     754:	52010000 	andpl	r0, r1, #0
     758:	01020119 	tsteq	r2, r9, lsl r1
     75c:	034c0000 	movteq	r0, #49152	@ 0xc000
     760:	03780800 	cmneq	r8, #0, 16
     764:	02800800 	addeq	r0, r0, #0, 16
     768:	8e010000 	cdphi	0, 0, cr0, cr1, cr0, {0}
     76c:	15000007 	strne	r0, [r0, #-7]
     770:	00005127 	andeq	r5, r0, r7, lsr #2
     774:	ce395201 	cdpgt	2, 3, cr5, cr9, cr1, {0}
     778:	02000006 	andeq	r0, r0, #6
     77c:	72146c91 	andsvc	r6, r4, #37120	@ 0x9100
     780:	01007465 	tsteq	r0, r5, ror #8
     784:	01021854 	tsteq	r2, r4, asr r8
     788:	91020000 	mrsls	r0, (UNDEF: 2)
     78c:	01170077 	tsteq	r7, r7, ror r0
     790:	00000ddd 	ldrdeq	r0, [r0], -sp
     794:	01181301 	tsteq	r8, r1, lsl #6
     798:	00000102 	andeq	r0, r0, r2, lsl #2
     79c:	08000170 	stmdaeq	r0, {r4, r5, r6, r8}
     7a0:	0800034c 	stmdaeq	r0, {r2, r3, r6, r8, r9}
     7a4:	000002d0 	ldrdeq	r0, [r0], -r0	@ <UNPREDICTABLE>
     7a8:	51271501 			@ <UNDEFINED> instruction: 0x51271501
     7ac:	13010000 	movwne	r0, #4096	@ 0x1000
     7b0:	0006ce3a 	andeq	ip, r6, sl, lsr lr
     7b4:	64910200 	ldrvs	r0, [r1], #512	@ 0x200
     7b8:	74657214 	strbtvc	r7, [r5], #-532	@ 0xfffffdec
     7bc:	18150100 	ldmdane	r5, {r8}
     7c0:	00000102 	andeq	r0, r0, r2, lsl #2
     7c4:	18779102 	ldmdane	r7!, {r1, r8, ip, pc}^
     7c8:	08000184 	stmdaeq	r0, {r2, r7, r8}
     7cc:	08000322 	stmdaeq	r0, {r1, r5, r8, r9}
     7d0:	002ace0f 	eoreq	ip, sl, pc, lsl #28
     7d4:	19180100 	ldmdbne	r8, {r8}
     7d8:	000003ed 	andeq	r0, r0, sp, ror #7
     7dc:	0f6c9102 	svceq	0x006c9102
     7e0:	000060ff 	strdeq	r6, [r0], -pc	@ <UNPREDICTABLE>
     7e4:	a8092201 	stmdage	r9, {r0, r9, sp}
     7e8:	02000000 	andeq	r0, r0, #0
     7ec:	720f7691 	andvc	r7, pc, #152043520	@ 0x9100000
     7f0:	01000069 	tsteq	r0, r9, rrx
     7f4:	00a80923 	adceq	r0, r8, r3, lsr #18
     7f8:	91020000 	mrsls	r0, (UNDEF: 2)
     7fc:	00000075 	andeq	r0, r0, r5, ror r0
     800:	000007ba 			@ <UNDEFINED> instruction: 0x000007ba
     804:	01800002 	orreq	r0, r0, r2
     808:	01040000 	mrseq	r0, (UNDEF: 4)
     80c:	00002634 	andeq	r2, r0, r4, lsr r6
     810:	0070560c 	rsbseq	r5, r0, ip, lsl #12
     814:	00290f00 	eoreq	r0, r9, r0, lsl #30
     818:	00009000 	andeq	r9, r0, r0
	...
     824:	000a0900 	andeq	r0, sl, r0, lsl #18
     828:	00175a00 	andseq	r5, r7, r0, lsl #20
     82c:	06010200 	streq	r0, [r1], -r0, lsl #4
     830:	000004e6 	andeq	r0, r0, r6, ror #9
     834:	000ec503 	andeq	ip, lr, r3, lsl #10
     838:	182b0200 	stmdane	fp!, {r9}
     83c:	00000040 	andeq	r0, r0, r0, asr #32
     840:	dc080102 	stfles	f0, [r8], {2}
     844:	02000042 	andeq	r0, r0, #66	@ 0x42
     848:	05fc0502 	ldrbeq	r0, [ip, #1282]!	@ 0x502
     84c:	79030000 	stmdbvc	r3, {}	@ <UNPREDICTABLE>
     850:	02000070 	andeq	r0, r0, #112	@ 0x70
     854:	005a1939 	subseq	r1, sl, r9, lsr r9
     858:	02020000 	andeq	r0, r2, #0
     85c:	0050f607 	subseq	pc, r0, r7, lsl #12
     860:	05040200 	streq	r0, [r4, #-512]	@ 0xfffffe00
     864:	0000391a 	andeq	r3, r0, sl, lsl r9
     868:	0038dc03 	eorseq	sp, r8, r3, lsl #24
     86c:	194f0200 	stmdbne	pc, {r9}^	@ <UNPREDICTABLE>
     870:	00000074 	andeq	r0, r0, r4, ror r0
     874:	14070402 	strne	r0, [r7], #-1026	@ 0xfffffbfe
     878:	02000016 	andeq	r0, r0, #22
     87c:	3bf10508 	blcc	ffc41ca4 <_estack+0xdfc3cca4>
     880:	08020000 	stmdaeq	r2, {}	@ <UNPREDICTABLE>
     884:	005b7907 	subseq	r7, fp, r7, lsl #18
     888:	05040400 	streq	r0, [r4, #-1024]	@ 0xfffffc00
     88c:	00746e69 	rsbseq	r6, r4, r9, ror #28
     890:	dd070402 	cfstrsle	mvf0, [r7, #-8]
     894:	0300001b 	movweq	r0, #27
     898:	00000ec7 	andeq	r0, r0, r7, asr #29
     89c:	34131803 	ldrcc	r1, [r3], #-2051	@ 0xfffff7fd
     8a0:	03000000 	movweq	r0, #0
     8a4:	0000707b 	andeq	r7, r0, fp, ror r0
     8a8:	4e142403 	cfmulsmi	mvf2, mvf4, mvf3
     8ac:	03000000 	movweq	r0, #0
     8b0:	000038de 	ldrdeq	r3, [r0], -lr
     8b4:	68143003 	ldmdavs	r4, {r0, r1, ip, sp}
     8b8:	05000000 	streq	r0, [r0, #-0]
     8bc:	000000af 	andeq	r0, r0, pc, lsr #1
     8c0:	0071fd03 	rsbseq	pc, r1, r3, lsl #26
     8c4:	16220400 	strtne	r0, [r2], -r0, lsl #8
     8c8:	00000097 	muleq	r0, r7, r0
     8cc:	0071d703 	rsbseq	sp, r1, r3, lsl #14
     8d0:	17250400 	strne	r0, [r5, -r0, lsl #8]!
     8d4:	000000a3 	andeq	r0, r0, r3, lsr #1
     8d8:	00228403 	eoreq	r8, r2, r3, lsl #8
     8dc:	17280400 	strne	r0, [r8, -r0, lsl #8]!
     8e0:	000000af 	andeq	r0, r0, pc, lsr #1
     8e4:	00228303 	eoreq	r8, r2, r3, lsl #6
     8e8:	20340400 	eorscs	r0, r4, r0, lsl #8
     8ec:	000000bb 	strheq	r0, [r0], -fp
     8f0:	dd040402 	cfstrsle	mvf0, [r4, #-8]
     8f4:	02000068 	andeq	r0, r0, #104	@ 0x68
     8f8:	496d0408 	stmdbmi	sp!, {r3, sl}^
     8fc:	08020000 	stmdaeq	r2, {}	@ <UNPREDICTABLE>
     900:	00496804 	subeq	r6, r9, r4, lsl #16
     904:	01070600 	tsteq	r7, r0, lsl #12
     908:	00000040 	andeq	r0, r0, r0, asr #32
     90c:	32015704 	andcc	r5, r1, #4, 14	@ 0x100000
     910:	07000001 	streq	r0, [r0, -r1]
     914:	00006446 	andeq	r6, r0, r6, asr #8
     918:	4eda0700 	cdpmi	7, 13, cr0, cr10, cr0, {0}
     91c:	07010000 	streq	r0, [r1, -r0]
     920:	00006a26 	andeq	r6, r0, r6, lsr #20
     924:	3df40702 	ldclcc	7, cr0, [r4, #8]!
     928:	07030000 	streq	r0, [r3, -r0]
     92c:	000031f5 	strdeq	r3, [r0], -r5
     930:	02030004 	andeq	r0, r3, #4
     934:	04000003 	streq	r0, [r0], #-3
     938:	0105025d 	tsteq	r5, sp, asr r2
     93c:	1c080000 	stcne	0, cr0, [r8], {-0}
     940:	b109b105 	tstlt	r9, r5, lsl #2
     944:	09000001 	stmdbeq	r0, {r0}
     948:	004c5243 	subeq	r5, ip, r3, asr #4
     94c:	e40cb305 	str	fp, [ip], #-773	@ 0xfffffcfb
     950:	02000000 	andeq	r0, r0, #0
     954:	43090023 	movwmi	r0, #36899	@ 0x9023
     958:	05004852 	streq	r4, [r0, #-2130]	@ 0xfffff7ae
     95c:	00e40cb4 	strhteq	r0, [r4], #196	@ 0xc4
     960:	23020000 	movwcs	r0, #8192	@ 0x2000
     964:	44490904 	strbmi	r0, [r9], #-2308	@ 0xfffff6fc
     968:	b5050052 	strlt	r0, [r5, #-82]	@ 0xffffffae
     96c:	0000e40c 	andeq	lr, r0, ip, lsl #8
     970:	08230200 	stmdaeq	r3!, {r9}
     974:	52444f09 	subpl	r4, r4, #9, 30	@ 0x24
     978:	0cb60500 	cfldr32eq	mvfx0, [r6]
     97c:	000000e4 	andeq	r0, r0, r4, ror #1
     980:	0a0c2302 	beq	309590 <_Min_Stack_Size+0x309190>
     984:	0000613f 	andeq	r6, r0, pc, lsr r1
     988:	e40cb705 	str	fp, [ip], #-1797	@ 0xfffff8fb
     98c:	02000000 	andeq	r0, r0, #0
     990:	42091023 	andmi	r1, r9, #35	@ 0x23
     994:	05005252 	streq	r5, [r0, #-594]	@ 0xfffffdae
     998:	00e40cb8 	strhteq	r0, [r4], #200	@ 0xc8
     99c:	23020000 	movwcs	r0, #8192	@ 0x2000
     9a0:	34110a14 	ldrcc	r0, [r1], #-2580	@ 0xfffff5ec
     9a4:	b9050000 	stmdblt	r5, {}	@ <UNPREDICTABLE>
     9a8:	0000e40c 	andeq	lr, r0, ip, lsl #8
     9ac:	18230200 	stmdane	r3!, {r9}
     9b0:	45a30300 	strmi	r0, [r3, #768]!	@ 0x300
     9b4:	ba050000 	blt	1409bc <_Min_Stack_Size+0x1405bc>
     9b8:	00013e02 	andeq	r3, r1, r2, lsl #28
     9bc:	01070600 	tsteq	r7, r0, lsl #12
     9c0:	00000040 	andeq	r0, r0, r0, asr #32
     9c4:	02011206 	andeq	r1, r1, #1610612736	@ 0x60000000
     9c8:	07000002 	streq	r0, [r0, -r2]
     9cc:	0000200a 	andeq	r2, r0, sl
     9d0:	18780700 	ldmdane	r8!, {r8, r9, sl}^
     9d4:	07010000 	streq	r0, [r1, -r0]
     9d8:	00001a57 	andeq	r1, r0, r7, asr sl
     9dc:	0ef90702 	cdpeq	7, 15, cr0, cr9, cr2, {0}
     9e0:	07030000 	streq	r0, [r3, -r0]
     9e4:	0000577d 	andeq	r5, r0, sp, ror r7
     9e8:	03370704 	teqeq	r7, #4, 14	@ 0x100000
     9ec:	07050000 	streq	r0, [r5, -r0]
     9f0:	00004f6e 	andeq	r4, r0, lr, ror #30
     9f4:	6c3c0706 	ldcvs	7, cr0, [ip], #-24	@ 0xffffffe8
     9f8:	07070000 	streq	r0, [r7, -r0]
     9fc:	00004447 	andeq	r4, r0, r7, asr #8
     a00:	0b030008 	bleq	c0a28 <_Min_Stack_Size+0xc0628>
     a04:	0600005d 			@ <UNDEFINED> instruction: 0x0600005d
     a08:	01bd021c 			@ <UNDEFINED> instruction: 0x01bd021c
     a0c:	07060000 	streq	r0, [r6, -r0]
     a10:	00004001 	andeq	r4, r0, r1
     a14:	01200600 			@ <UNDEFINED> instruction: 0x01200600
     a18:	0000027d 	andeq	r0, r0, sp, ror r2
     a1c:	00224c07 	eoreq	r4, r2, r7, lsl #24
     a20:	57070000 	strpl	r0, [r7, -r0]
     a24:	01000022 	tsteq	r0, r2, lsr #32
     a28:	00226207 	eoreq	r6, r2, r7, lsl #4
     a2c:	6d070200 	sfmvs	f0, 4, [r7, #-0]
     a30:	03000022 	movweq	r0, #34	@ 0x22
     a34:	00227807 	eoreq	r7, r2, r7, lsl #16
     a38:	c8070400 	stmdagt	r7, {sl}
     a3c:	05000047 	streq	r0, [r0, #-71]	@ 0xffffffb9
     a40:	0047e207 	subeq	lr, r7, r7, lsl #4
     a44:	8b070600 	blhi	1c224c <_Min_Stack_Size+0x1c1e4c>
     a48:	07000022 	streq	r0, [r0, -r2, lsr #32]
     a4c:	00229607 	eoreq	r9, r2, r7, lsl #12
     a50:	a1070800 	tstge	r7, r0, lsl #16
     a54:	09000022 	stmdbeq	r0, {r1, r5}
     a58:	00511b07 	subseq	r1, r1, r7, lsl #22
     a5c:	c4070a00 	strgt	r0, [r7], #-2560	@ 0xfffff600
     a60:	0b00004f 	bleq	ba4 <_Min_Stack_Size+0x7a4>
     a64:	004fd007 	subeq	sp, pc, r7
     a68:	a2070c00 	andge	r0, r7, #0, 24
     a6c:	0d000051 	stceq	0, cr0, [r0, #-324]	@ 0xfffffebc
     a70:	004feb07 	subeq	lr, pc, r7, lsl #22
     a74:	f7070e00 			@ <UNDEFINED> instruction: 0xf7070e00
     a78:	0f00004f 	svceq	0x0000004f
     a7c:	54970300 	ldrpl	r0, [r7], #768	@ 0x300
     a80:	32060000 	andcc	r0, r6, #0
     a84:	00020e02 	andeq	r0, r2, r2, lsl #28
     a88:	01070600 	tsteq	r7, r0, lsl #12
     a8c:	00000040 	andeq	r0, r0, r0, asr #32
     a90:	aa013606 	bge	4e2b0 <_Min_Stack_Size+0x4deb0>
     a94:	07000002 	streq	r0, [r0, -r2]
     a98:	000014d8 	ldrdeq	r1, [r0], -r8
     a9c:	43020701 	movwmi	r0, #9985	@ 0x2701
     aa0:	07020000 	streq	r0, [r2, -r0]
     aa4:	00004f43 	andeq	r4, r0, r3, asr #30
     aa8:	8f030003 	svchi	0x00030003
     aac:	0600004a 	streq	r0, [r0], -sl, asr #32
     ab0:	0289023a 	addeq	r0, r9, #-1610612733	@ 0xa0000003
     ab4:	07060000 	streq	r0, [r6, -r0]
     ab8:	00004001 	andeq	r4, r0, r1
     abc:	013e0600 	teqeq	lr, r0, lsl #12
     ac0:	000002d1 	ldrdeq	r0, [r0], -r1
     ac4:	00666807 	rsbeq	r6, r6, r7, lsl #16
     ac8:	59070000 	stmdbpl	r7, {}	@ <UNPREDICTABLE>
     acc:	0100006e 	tsteq	r0, lr, rrx
     ad0:	639d0300 	orrsvs	r0, sp, #0, 6
     ad4:	41060000 	mrsmi	r0, (UNDEF: 6)
     ad8:	0002b602 	andeq	fp, r2, r2, lsl #12
     adc:	01070600 	tsteq	r7, r0, lsl #12
     ae0:	00000040 	andeq	r0, r0, r0, asr #32
     ae4:	f8014506 			@ <UNDEFINED> instruction: 0xf8014506
     ae8:	07000002 	streq	r0, [r0, -r2]
     aec:	000070eb 	andeq	r7, r0, fp, ror #1
     af0:	70690700 	rsbvc	r0, r9, r0, lsl #14
     af4:	00010000 	andeq	r0, r1, r0
     af8:	00711703 	rsbseq	r1, r1, r3, lsl #14
     afc:	02480600 	subeq	r0, r8, #0, 12
     b00:	000002dd 	ldrdeq	r0, [r0], -sp
     b04:	4f060808 	svcmi	0x00060808
     b08:	00035909 	andeq	r5, r3, r9, lsl #18
     b0c:	286f0a00 	stmdacs	pc!, {r9, fp}^	@ <UNPREDICTABLE>
     b10:	51060000 	mrspl	r0, (UNDEF: 6)
     b14:	00035919 	andeq	r5, r3, r9, lsl r9
     b18:	00230200 	eoreq	r0, r3, r0, lsl #4
     b1c:	0030500a 	eorseq	r5, r0, sl
     b20:	18520600 	ldmdane	r2, {r9, sl}^
     b24:	0000027d 	andeq	r0, r0, sp, ror r2
     b28:	0a042302 	beq	109738 <_Min_Stack_Size+0x109338>
     b2c:	00003e9c 	muleq	r0, ip, lr
     b30:	02185306 	andseq	r5, r8, #402653184	@ 0x18000000
     b34:	02000002 	andeq	r0, r0, #2
     b38:	f70a0523 			@ <UNDEFINED> instruction: 0xf70a0523
     b3c:	0600005f 			@ <UNDEFINED> instruction: 0x0600005f
     b40:	02aa1854 	adceq	r1, sl, #84, 16	@ 0x540000
     b44:	23020000 	movwcs	r0, #8192	@ 0x2000
     b48:	6c2f0a06 			@ <UNDEFINED> instruction: 0x6c2f0a06
     b4c:	55060000 	strpl	r0, [r6, #-0]
     b50:	0002d118 	andeq	sp, r2, r8, lsl r1
     b54:	07230200 	streq	r0, [r3, -r0, lsl #4]!
     b58:	b1040b00 	tstlt	r4, r0, lsl #22
     b5c:	03000001 	movweq	r0, #1
     b60:	000067bc 			@ <UNDEFINED> instruction: 0x000067bc
     b64:	04025606 	streq	r5, [r2], #-1542	@ 0xfffff9fa
     b68:	0c000003 	stceq	0, cr0, [r0], {3}
     b6c:	0070d401 	rsbseq	sp, r0, r1, lsl #8
     b70:	01b70100 			@ <UNDEFINED> instruction: 0x01b70100
     b74:	01320117 	teqeq	r2, r7, lsl r1
	...
     b80:	03200000 	nopeq	{0}	@ <UNPREDICTABLE>
     b84:	bc010000 	stclt	0, cr0, [r1], {-0}
     b88:	0d000003 	stceq	0, cr0, [r0, #-12]
     b8c:	0000286f 	andeq	r2, r0, pc, ror #16
     b90:	4201b701 	andmi	fp, r1, #262144	@ 0x40000
     b94:	00000359 	andeq	r0, r0, r9, asr r3
     b98:	0d6c9102 	stfeqp	f1, [ip, #-8]!
     b9c:	0000710a 	andeq	r7, r0, sl, lsl #2
     ba0:	4f01b701 	svcmi	0x0001b701
     ba4:	000000c0 	andeq	r0, r0, r0, asr #1
     ba8:	0e6b9102 	lgneqe	f1, f2
     bac:	00746572 	rsbseq	r6, r4, r2, ror r5
     bb0:	1801b901 	stmdane	r1, {r0, r8, fp, ip, sp, pc}
     bb4:	00000132 	andeq	r0, r0, r2, lsr r1
     bb8:	00779102 	rsbseq	r9, r7, r2, lsl #2
     bbc:	719f010c 	orrsvc	r0, pc, ip, lsl #2
     bc0:	9e010000 	cdpls	0, 0, cr0, cr1, cr0, {0}
     bc4:	32011701 	andcc	r1, r1, #262144	@ 0x40000
     bc8:	00000001 	andeq	r0, r0, r1
     bcc:	00000000 	andeq	r0, r0, r0
     bd0:	7c000000 	stcvc	0, cr0, [r0], {-0}
     bd4:	01000003 	tsteq	r0, r3
     bd8:	0000040d 	andeq	r0, r0, sp, lsl #8
     bdc:	00286f0d 	eoreq	r6, r8, sp, lsl #30
     be0:	019e0100 	orrseq	r0, lr, r0, lsl #2
     be4:	00035943 	andeq	r5, r3, r3, asr #18
     be8:	6c910200 	lfmvs	f0, 4, [r1], {0}
     bec:	00710a0d 	rsbseq	r0, r1, sp, lsl #20
     bf0:	019e0100 	orrseq	r0, lr, r0, lsl #2
     bf4:	0000c050 	andeq	ip, r0, r0, asr r0
     bf8:	6b910200 	blvs	fe441400 <_estack+0xde43c400>
     bfc:	7465720e 	strbtvc	r7, [r5], #-526	@ 0xfffffdf2
     c00:	01a00100 	lsleq	r0, r0, #2
     c04:	00013218 	andeq	r3, r1, r8, lsl r2
     c08:	77910200 	ldrvc	r0, [r1, r0, lsl #4]
     c0c:	69010c00 	stmdbvs	r1, {sl, fp}
     c10:	01000071 	tsteq	r0, r1, ror r0
     c14:	01170187 	tsteq	r7, r7, lsl #3
     c18:	00000132 	andeq	r0, r0, r2, lsr r1
	...
     c24:	000003d8 	ldrdeq	r0, [r0], -r8
     c28:	00044e01 	andeq	r4, r4, r1, lsl #28
     c2c:	286f0d00 	stmdacs	pc!, {r8, sl, fp}^	@ <UNPREDICTABLE>
     c30:	87010000 	strhi	r0, [r1, -r0]
     c34:	03593f01 	cmpeq	r9, #1, 30
     c38:	91020000 	mrsls	r0, (UNDEF: 2)
     c3c:	65720e6c 	ldrbvs	r0, [r2, #-3692]!	@ 0xfffff194
     c40:	89010074 	stmdbhi	r1, {r2, r4, r5, r6}
     c44:	01321801 	teqeq	r2, r1, lsl #16
     c48:	91020000 	mrsls	r0, (UNDEF: 2)
     c4c:	010c0077 	tsteq	ip, r7, ror r0
     c50:	000070b1 	strheq	r7, [r0], -r1
     c54:	17017101 	strne	r7, [r1, -r1, lsl #2]
     c58:	00013201 	andeq	r3, r1, r1, lsl #4
	...
     c64:	00043400 	andeq	r3, r4, r0, lsl #8
     c68:	049f0100 	ldreq	r0, [pc], #256	@ c70 <_Min_Stack_Size+0x870>
     c6c:	6f0d0000 	svcvs	0x000d0000
     c70:	01000028 	tsteq	r0, r8, lsr #32
     c74:	593d0171 	ldmdbpl	sp!, {r0, r4, r5, r6, r8}
     c78:	02000003 	andeq	r0, r0, #3
     c7c:	3c0d6c91 	stccc	12, cr6, [sp], {145}	@ 0x91
     c80:	01000071 	tsteq	r0, r1, ror r0
     c84:	cc4b0171 	stfgte	f0, [fp], {113}	@ 0x71
     c88:	02000000 	andeq	r0, r0, #0
     c8c:	720e6a91 	andvc	r6, lr, #593920	@ 0x91000
     c90:	01007465 	tsteq	r0, r5, ror #8
     c94:	32180173 	andscc	r0, r8, #-1073741796	@ 0xc000001c
     c98:	02000001 	andeq	r0, r0, #1
     c9c:	0c007791 	stceq	7, cr7, [r0], {145}	@ 0x91
     ca0:	00708401 	rsbseq	r8, r0, r1, lsl #8
     ca4:	015b0100 	cmpeq	fp, r0, lsl #2
     ca8:	01320117 	teqeq	r2, r7, lsl r1
	...
     cb4:	04900000 	ldreq	r0, [r0], #0
     cb8:	f0010000 			@ <UNDEFINED> instruction: 0xf0010000
     cbc:	0d000004 	stceq	0, cr0, [r0, #-16]
     cc0:	0000286f 	andeq	r2, r0, pc, ror #16
     cc4:	3d015b01 	vstrcc	d5, [r1, #-4]
     cc8:	00000359 	andeq	r0, r0, r9, asr r3
     ccc:	0d6c9102 	stfeqp	f1, [ip, #-8]!
     cd0:	000071c9 	andeq	r7, r0, r9, asr #3
     cd4:	4c015b01 			@ <UNDEFINED> instruction: 0x4c015b01
     cd8:	000004f0 	strdeq	r0, [r0], -r0	@ <UNPREDICTABLE>
     cdc:	0e689102 	lgneqe	f1, f2
     ce0:	00746572 	rsbseq	r6, r4, r2, ror r5
     ce4:	18015d01 	stmdane	r1, {r0, r8, sl, fp, ip, lr}
     ce8:	00000132 	andeq	r0, r0, r2, lsr r1
     cec:	00779102 	rsbseq	r9, r7, r2, lsl #2
     cf0:	00cc040b 	sbceq	r0, ip, fp, lsl #8
     cf4:	010c0000 	mrseq	r0, (UNDEF: 12)
     cf8:	00007021 	andeq	r7, r0, r1, lsr #32
     cfc:	17012f01 	strne	r2, [r1, -r1, lsl #30]
     d00:	00013201 	andeq	r3, r1, r1, lsl #4
	...
     d0c:	0004ec00 	andeq	lr, r4, r0, lsl #24
     d10:	056d0100 	strbeq	r0, [sp, #-256]!	@ 0xffffff00
     d14:	6f0d0000 	svcvs	0x000d0000
     d18:	01000028 	tsteq	r0, r8, lsr #32
     d1c:	5940012f 	stmdbpl	r0, {r0, r1, r2, r3, r5, r8}^
     d20:	02000003 	andeq	r0, r0, #3
     d24:	500d6c91 	mulpl	sp, r1, ip
     d28:	01000030 	tsteq	r0, r0, lsr r0
     d2c:	7d5e012f 	ldfvce	f0, [lr, #-188]	@ 0xffffff44
     d30:	02000002 	andeq	r0, r0, #2
     d34:	fc0d6b91 	stc2	11, cr6, [sp], {145}	@ 0x91	@ <UNPREDICTABLE>
     d38:	01000070 	tsteq	r0, r0, ror r0
     d3c:	6d83012f 	stfvss	f0, [r3, #188]	@ 0xbc
     d40:	02000005 	andeq	r0, r0, #5
     d44:	720e6491 	andvc	r6, lr, #-1862270976	@ 0x91000000
     d48:	01007465 	tsteq	r0, r5, ror #8
     d4c:	32180131 	andscc	r0, r8, #1073741836	@ 0x4000000c
     d50:	02000001 	andeq	r0, r0, #1
     d54:	700f7791 	mulvc	pc, r1, r7	@ <UNPREDICTABLE>
     d58:	10000000 	andne	r0, r0, r0
     d5c:	000070a5 	andeq	r7, r0, r5, lsr #1
     d60:	0a013701 	beq	4e96c <_Min_Stack_Size+0x4e56c>
     d64:	000000c0 	andeq	r0, r0, r0, asr #1
     d68:	00769102 	rsbseq	r9, r6, r2, lsl #2
     d6c:	f8040b00 			@ <UNDEFINED> instruction: 0xf8040b00
     d70:	0c000002 	stceq	0, cr0, [r0], {2}
     d74:	0071b701 	rsbseq	fp, r1, r1, lsl #14
     d78:	01040100 	mrseq	r0, (UNDEF: 20)
     d7c:	01320117 	teqeq	r2, r7, lsl r1
	...
     d88:	05480000 	strbeq	r0, [r8, #-0]
     d8c:	de010000 	cdple	0, 0, cr0, cr1, cr0, {0}
     d90:	0d000005 	stceq	0, cr0, [r0, #-20]	@ 0xffffffec
     d94:	0000286f 	andeq	r2, r0, pc, ror #16
     d98:	3e010401 	cdpcc	4, 0, cr0, cr1, cr1, {0}
     d9c:	00000359 	andeq	r0, r0, r9, asr r3
     da0:	0d6c9102 	stfeqp	f1, [ip, #-8]!
     da4:	00003050 	andeq	r3, r0, r0, asr r0
     da8:	5c010401 	cfstrspl	mvf0, [r1], {1}
     dac:	0000027d 	andeq	r0, r0, sp, ror r2
     db0:	0e6b9102 	lgneqe	f1, f2
     db4:	00746572 	rsbseq	r6, r4, r2, ror r5
     db8:	18010601 	stmdane	r1, {r0, r9, sl}
     dbc:	00000132 	andeq	r0, r0, r2, lsr r1
     dc0:	11779102 	cmnne	r7, r2, lsl #2
	...
     dcc:	0070a510 	rsbseq	sl, r0, r0, lsl r5
     dd0:	010c0100 	mrseq	r0, (UNDEF: 28)
     dd4:	0000c00a 	andeq	ip, r0, sl
     dd8:	76910200 	ldrvc	r0, [r1], r0, lsl #4
     ddc:	01120000 	tsteq	r2, r0
     de0:	0000712b 	andeq	r7, r0, fp, lsr #2
     de4:	0117e701 	tsteq	r7, r1, lsl #14
     de8:	00000132 	andeq	r0, r0, r2, lsr r1
	...
     df4:	000005a4 	andeq	r0, r0, r4, lsr #11
     df8:	00062b01 	andeq	r2, r6, r1, lsl #22
     dfc:	286f1300 	stmdacs	pc!, {r8, r9, ip}^	@ <UNPREDICTABLE>
     e00:	e7010000 	str	r0, [r1, -r0]
     e04:	0003593d 	andeq	r5, r3, sp, lsr r9
     e08:	6c910200 	lfmvs	f0, 4, [r1], {0}
     e0c:	00305013 	eorseq	r5, r0, r3, lsl r0
     e10:	5be70100 	blpl	ff9c1218 <_estack+0xdf9bc218>
     e14:	0000027d 	andeq	r0, r0, sp, ror r2
     e18:	146b9102 	strbtne	r9, [fp], #-258	@ 0xfffffefe
     e1c:	00746572 	rsbseq	r6, r4, r2, ror r5
     e20:	3218e901 	andscc	lr, r8, #16384	@ 0x4000
     e24:	02000001 	andeq	r0, r0, #1
     e28:	12007791 	andne	r7, r0, #38010880	@ 0x2440000
     e2c:	00717d01 	rsbseq	r7, r1, r1, lsl #26
     e30:	17bd0100 	ldrne	r0, [sp, r0, lsl #2]!
     e34:	00013201 	andeq	r3, r1, r1, lsl #4
     e38:	0008bc00 	andeq	fp, r8, r0, lsl #24
     e3c:	00093c08 	andeq	r3, r9, r8, lsl #24
     e40:	00060008 	andeq	r0, r6, r8
     e44:	06870100 	streq	r0, [r7], r0, lsl #2
     e48:	6f130000 	svcvs	0x00130000
     e4c:	01000028 	tsteq	r0, r8, lsr #32
     e50:	03593dbd 	cmpeq	r9, #12096	@ 0x2f40
     e54:	91020000 	mrsls	r0, (UNDEF: 2)
     e58:	3050136c 	subscc	r1, r0, ip, ror #6
     e5c:	bd010000 	stclt	0, cr0, [r1, #-0]
     e60:	00027d5b 	andeq	r7, r2, fp, asr sp
     e64:	6b910200 	blvs	fe44166c <_estack+0xde43c66c>
     e68:	00709613 	rsbseq	r9, r0, r3, lsl r6
     e6c:	81bd0100 			@ <UNDEFINED> instruction: 0x81bd0100
     e70:	000002d1 	ldrdeq	r0, [r0], -r1
     e74:	146a9102 	strbtne	r9, [sl], #-258	@ 0xfffffefe
     e78:	00746572 	rsbseq	r6, r4, r2, ror r5
     e7c:	3218bf01 	andscc	fp, r8, #1, 30
     e80:	02000001 	andeq	r0, r0, #1
     e84:	12007791 	andne	r7, r0, #38010880	@ 0x2440000
     e88:	0070c301 	rsbseq	ip, r0, r1, lsl #6
     e8c:	179f0100 	ldrne	r0, [pc, r0, lsl #2]
     e90:	00013201 	andeq	r3, r1, r1, lsl #4
	...
     e9c:	00065c00 	andeq	r5, r6, r0, lsl #24
     ea0:	06e30100 	strbteq	r0, [r3], r0, lsl #2
     ea4:	6f130000 	svcvs	0x00130000
     ea8:	01000028 	tsteq	r0, r8, lsr #32
     eac:	03593d9f 	cmpeq	r9, #10176	@ 0x27c0
     eb0:	91020000 	mrsls	r0, (UNDEF: 2)
     eb4:	3050136c 	subscc	r1, r0, ip, ror #6
     eb8:	9f010000 	svcls	0x00010000
     ebc:	00027d5b 	andeq	r7, r2, fp, asr sp
     ec0:	6b910200 	blvs	fe4416c8 <_estack+0xde43c6c8>
     ec4:	00703513 	rsbseq	r3, r0, r3, lsl r5
     ec8:	819f0100 	orrshi	r0, pc, r0, lsl #2
     ecc:	000006e3 	andeq	r0, r0, r3, ror #13
     ed0:	14649102 	strbtne	r9, [r4], #-258	@ 0xfffffefe
     ed4:	00746572 	rsbseq	r6, r4, r2, ror r5
     ed8:	3218a101 	andscc	sl, r8, #1073741824	@ 0x40000000
     edc:	02000001 	andeq	r0, r0, #1
     ee0:	0b007791 	bleq	1ed2c <_Min_Stack_Size+0x1e92c>
     ee4:	0002d104 	andeq	sp, r2, r4, lsl #2
     ee8:	d3011500 	movwle	r1, #5376	@ 0x1500
     eec:	01000012 	tsteq	r0, r2, lsl r0
     ef0:	32011755 	andcc	r1, r1, #22282240	@ 0x1540000
     ef4:	0c000001 	stceq	0, cr0, [r0], {1}
     ef8:	bc080007 	stclt	0, cr0, [r8], {7}
     efc:	b8080008 	stmdalt	r8, {r3}
     f00:	01000006 	tsteq	r0, r6
     f04:	0000075e 	andeq	r0, r0, lr, asr r7
     f08:	00701313 	rsbseq	r1, r0, r3, lsl r3
     f0c:	40550100 	subsmi	r0, r5, r0, lsl #2
     f10:	0000075e 	andeq	r0, r0, lr, asr r7
     f14:	14649102 	strbtne	r9, [r4], #-258	@ 0xfffffefe
     f18:	00746572 	rsbseq	r6, r4, r2, ror r5
     f1c:	32185701 	andscc	r5, r8, #262144	@ 0x40000
     f20:	02000001 	andeq	r0, r0, #1
     f24:	20117791 	mulscs	r1, r1, r7
     f28:	ae080007 	cdpge	0, 0, cr0, cr8, cr7, {0}
     f2c:	16080008 	strne	r0, [r8], -r8
     f30:	0000718e 	andeq	r7, r0, lr, lsl #3
     f34:	c0095b01 	andgt	r5, r9, r1, lsl #22
     f38:	02000000 	andeq	r0, r0, #0
     f3c:	05166e91 	ldreq	r6, [r6, #-3729]	@ 0xfffff16f
     f40:	01000070 	tsteq	r0, r0, ror r0
     f44:	07640c5c 			@ <UNDEFINED> instruction: 0x07640c5c
     f48:	91020000 	mrsls	r0, (UNDEF: 2)
     f4c:	715a1670 	cmpvc	sl, r0, ror r6
     f50:	5d010000 	stcpl	0, cr0, [r1, #-0]
     f54:	0000c009 	andeq	ip, r0, r9
     f58:	6f910200 	svcvs	0x00910200
     f5c:	040b0000 	streq	r0, [fp], #-0
     f60:	0000035f 	andeq	r0, r0, pc, asr r3
     f64:	00e4040b 	rsceq	r0, r4, fp, lsl #8
     f68:	01120000 	tsteq	r2, r0
     f6c:	00007044 	andeq	r7, r0, r4, asr #32
     f70:	01171601 	tsteq	r7, r1, lsl #12
     f74:	00000132 	andeq	r0, r0, r2, lsr r1
     f78:	08000630 	stmdaeq	r0, {r4, r5, r9, sl}
     f7c:	0800070a 	stmdaeq	r0, {r1, r3, r8, r9, sl}
     f80:	00000708 	andeq	r0, r0, r8, lsl #14
     f84:	0007b701 	andeq	fp, r7, r1, lsl #14
     f88:	30501300 	subscc	r1, r0, r0, lsl #6
     f8c:	16010000 	strne	r0, [r1], -r0
     f90:	00027d3f 	andeq	r7, r2, pc, lsr sp
     f94:	6f910200 	svcvs	0x00910200
     f98:	00714a13 	rsbseq	r4, r1, r3, lsl sl
     f9c:	55160100 	ldrpl	r0, [r6, #-256]	@ 0xffffff00
     fa0:	000007b7 			@ <UNDEFINED> instruction: 0x000007b7
     fa4:	14689102 	strbtne	r9, [r8], #-258	@ 0xfffffefe
     fa8:	00746572 	rsbseq	r6, r4, r2, ror r5
     fac:	32181801 	andscc	r1, r8, #65536	@ 0x10000
     fb0:	02000001 	andeq	r0, r0, #1
     fb4:	0b007791 	bleq	1ee00 <_Min_Stack_Size+0x1ea00>
     fb8:	0000c004 	andeq	ip, r0, r4
     fbc:	05d30000 	ldrbeq	r0, [r3]
     fc0:	00020000 	andeq	r0, r2, r0
     fc4:	000002eb 	andeq	r0, r0, fp, ror #5
     fc8:	26340104 	ldrtcs	r0, [r4], -r4, lsl #2
     fcc:	250c0000 	strcs	r0, [ip, #-0]
     fd0:	0f000073 	svceq	0x00000073
     fd4:	f8000029 			@ <UNDEFINED> instruction: 0xf8000029
	...
     fe0:	a3000000 	movwge	r0, #0
     fe4:	e5000012 	str	r0, [r0, #-18]	@ 0xffffffee
     fe8:	02000017 	andeq	r0, r0, #23
     fec:	04e60601 	strbteq	r0, [r6], #1537	@ 0x601
     ff0:	c5030000 	strgt	r0, [r3, #-0]
     ff4:	0200000e 	andeq	r0, r0, #14
     ff8:	0040182b 	subeq	r1, r0, fp, lsr #16
     ffc:	01020000 	mrseq	r0, (UNDEF: 2)
    1000:	0042dc08 	subeq	sp, r2, r8, lsl #24
    1004:	05020200 	streq	r0, [r2, #-512]	@ 0xfffffe00
    1008:	000005fc 	strdeq	r0, [r0], -ip
    100c:	f6070202 			@ <UNDEFINED> instruction: 0xf6070202
    1010:	02000050 	andeq	r0, r0, #80	@ 0x50
    1014:	391a0504 	ldmdbcc	sl, {r2, r8, sl}
    1018:	dc030000 	stcle	0, cr0, [r3], {-0}
    101c:	02000038 	andeq	r0, r0, #56	@ 0x38
    1020:	0068194f 	rsbeq	r1, r8, pc, asr #18
    1024:	04020000 	streq	r0, [r2], #-0
    1028:	00161407 	andseq	r1, r6, r7, lsl #8
    102c:	05080200 	streq	r0, [r8, #-512]	@ 0xfffffe00
    1030:	00003bf1 	strdeq	r3, [r0], -r1
    1034:	79070802 	stmdbvc	r7, {r1, fp}
    1038:	0400005b 	streq	r0, [r0], #-91	@ 0xffffffa5
    103c:	6e690504 	cdpvs	5, 6, cr0, cr9, cr4, {0}
    1040:	04020074 	streq	r0, [r2], #-116	@ 0xffffff8c
    1044:	001bdd07 	andseq	sp, fp, r7, lsl #26
    1048:	0ec70300 	cdpeq	3, 12, cr0, cr7, cr0, {0}
    104c:	18030000 	stmdane	r3, {}	@ <UNPREDICTABLE>
    1050:	00003413 	andeq	r3, r0, r3, lsl r4
    1054:	008b0500 	addeq	r0, fp, r0, lsl #10
    1058:	de030000 	cdple	0, 0, cr0, cr3, cr0, {0}
    105c:	03000038 	movweq	r0, #56	@ 0x38
    1060:	005c1430 	subseq	r1, ip, r0, lsr r4
    1064:	9c050000 	stcls	0, cr0, [r5], {-0}
    1068:	03000000 	movweq	r0, #0
    106c:	000071fd 	strdeq	r7, [r0], -sp
    1070:	8b162204 	blhi	589888 <_Min_Stack_Size+0x589488>
    1074:	03000000 	movweq	r0, #0
    1078:	000071fc 	strdeq	r7, [r0], -ip
    107c:	971e2e04 	ldrls	r2, [lr, -r4, lsl #28]
    1080:	03000000 	movweq	r0, #0
    1084:	00002283 	andeq	r2, r0, r3, lsl #5
    1088:	a8203404 	stmdage	r0!, {r2, sl, ip, sp}
    108c:	02000000 	andeq	r0, r0, #0
    1090:	68dd0404 	ldmvs	sp, {r2, sl}^
    1094:	08020000 	stmdaeq	r2, {}	@ <UNPREDICTABLE>
    1098:	00496d04 	subeq	r6, r9, r4, lsl #26
    109c:	04080200 	streq	r0, [r8], #-512	@ 0xfffffe00
    10a0:	00004968 	andeq	r4, r0, r8, ror #18
    10a4:	40010706 	andmi	r0, r1, r6, lsl #14
    10a8:	04000000 	streq	r0, [r0], #-0
    10ac:	01130157 	tsteq	r3, r7, asr r1
    10b0:	46070000 	strmi	r0, [r7], -r0
    10b4:	00000064 	andeq	r0, r0, r4, rrx
    10b8:	004eda07 	subeq	sp, lr, r7, lsl #20
    10bc:	26070100 	strcs	r0, [r7], -r0, lsl #2
    10c0:	0200006a 	andeq	r0, r0, #106	@ 0x6a
    10c4:	003df407 	eorseq	pc, sp, r7, lsl #8
    10c8:	f5070300 			@ <UNDEFINED> instruction: 0xf5070300
    10cc:	04000031 	streq	r0, [r0], #-49	@ 0xffffffcf
    10d0:	03020300 	movweq	r0, #8960	@ 0x2300
    10d4:	5d040000 	stcpl	0, cr0, [r4, #-0]
    10d8:	0000e602 	andeq	lr, r0, r2, lsl #12
    10dc:	0e300800 	cdpeq	8, 3, cr0, cr0, cr0, {0}
    10e0:	f8097405 			@ <UNDEFINED> instruction: 0xf8097405
    10e4:	09000001 	stmdbeq	r0, {r0}
    10e8:	00007230 	andeq	r7, r0, r0, lsr r2
    10ec:	080e7605 	stmdaeq	lr, {r0, r2, r9, sl, ip, sp, lr}
    10f0:	02000002 	andeq	r0, r0, #2
    10f4:	be090023 	cdplt	0, 0, cr0, cr9, cr3, {1}
    10f8:	0500001b 	streq	r0, [r0, #-27]	@ 0xffffffe5
    10fc:	021d0e77 	andseq	r0, sp, #1904	@ 0x770
    1100:	23020000 	movwcs	r0, #8192	@ 0x2000
    1104:	731a090c 	tstvc	sl, #12, 18	@ 0x30000
    1108:	78050000 	stmdavc	r5, {}	@ <UNPREDICTABLE>
    110c:	0002080e 	andeq	r0, r2, lr, lsl #16
    1110:	80230300 	eorhi	r0, r3, r0, lsl #6
    1114:	72030901 	andvc	r0, r3, #16384	@ 0x4000
    1118:	79050000 	stmdbvc	r5, {}	@ <UNPREDICTABLE>
    111c:	00021d0e 	andeq	r1, r2, lr, lsl #26
    1120:	8c230300 	stchi	3, cr0, [r3], #-0
    1124:	73060901 	movwvc	r0, #26881	@ 0x6901
    1128:	7a050000 	bvc	141130 <_Min_Stack_Size+0x140d30>
    112c:	0002080c 	andeq	r0, r2, ip, lsl #16
    1130:	80230300 	eorhi	r0, r3, r0, lsl #6
    1134:	720d0902 	andvc	r0, sp, #32768	@ 0x8000
    1138:	7b050000 	blvc	141140 <_Min_Stack_Size+0x140d40>
    113c:	00021d0e 	andeq	r1, r2, lr, lsl #26
    1140:	8c230300 	stchi	3, cr0, [r3], #-0
    1144:	73fc0902 	mvnsvc	r0, #32768	@ 0x8000
    1148:	7c050000 	stcvc	0, cr0, [r5], {-0}
    114c:	0002080e 	andeq	r0, r2, lr, lsl #16
    1150:	80230300 	eorhi	r0, r3, r0, lsl #6
    1154:	72360903 	eorsvc	r0, r6, #49152	@ 0xc000
    1158:	7d050000 	stcvc	0, cr0, [r5, #-0]
    115c:	00021d0e 	andeq	r1, r2, lr, lsl #26
    1160:	8c230300 	stchi	3, cr0, [r3], #-0
    1164:	722a0903 	eorvc	r0, sl, #49152	@ 0xc000
    1168:	7e050000 	cdpvc	0, 0, cr0, cr5, cr0, {0}
    116c:	0002080e 	andeq	r0, r2, lr, lsl #16
    1170:	80230300 	eorhi	r0, r3, r0, lsl #6
    1174:	72400904 	subvc	r0, r0, #4, 18	@ 0x10000
    1178:	7f050000 	svcvc	0x00050000
    117c:	0002320e 	andeq	r3, r2, lr, lsl #4
    1180:	8c230300 	stchi	3, cr0, [r3], #-0
    1184:	733e0904 	teqvc	lr, #4, 18	@ 0x10000
    1188:	80050000 	andhi	r0, r5, r0
    118c:	0002470e 	andeq	r4, r2, lr, lsl #14
    1190:	80230300 	eorhi	r0, r3, r0, lsl #6
    1194:	724a0906 	subvc	r0, sl, #98304	@ 0x18000
    1198:	81050000 	mrshi	r0, (UNDEF: 5)
    119c:	00025d0e 	andeq	r5, r2, lr, lsl #26
    11a0:	d0230300 	eorle	r0, r3, r0, lsl #6
    11a4:	725f0906 	subsvc	r0, pc, #98304	@ 0x18000
    11a8:	82050000 	andhi	r0, r5, #0
    11ac:	0000c50e 	andeq	ip, r0, lr, lsl #10
    11b0:	ac230300 	stcge	3, cr0, [r3], #-0
    11b4:	c50a001c 	strgt	r0, [sl, #-28]	@ 0xffffffe4
    11b8:	08000000 	stmdaeq	r0, {}	@ <UNPREDICTABLE>
    11bc:	0b000002 	bleq	11cc <_Min_Stack_Size+0xdcc>
    11c0:	00000084 	andeq	r0, r0, r4, lsl #1
    11c4:	f8050002 			@ <UNDEFINED> instruction: 0xf8050002
    11c8:	0a000001 	beq	11d4 <_Min_Stack_Size+0xdd4>
    11cc:	000000c5 	andeq	r0, r0, r5, asr #1
    11d0:	0000021d 	andeq	r0, r0, sp, lsl r2
    11d4:	0000840b 	andeq	r8, r0, fp, lsl #8
    11d8:	05001c00 	streq	r1, [r0, #-3072]	@ 0xfffff400
    11dc:	0000020d 	andeq	r0, r0, sp, lsl #4
    11e0:	0000c50a 	andeq	ip, r0, sl, lsl #10
    11e4:	00023200 	andeq	r3, r2, r0, lsl #4
    11e8:	00840b00 	addeq	r0, r4, r0, lsl #22
    11ec:	003c0000 	eorseq	r0, ip, r0
    11f0:	00022205 	andeq	r2, r2, r5, lsl #4
    11f4:	00b90a00 	adcseq	r0, r9, r0, lsl #20
    11f8:	02470000 	subeq	r0, r7, #0
    11fc:	840b0000 	strhi	r0, [fp], #-0
    1200:	4f000000 	svcmi	0x00000000
    1204:	02370500 	eorseq	r0, r7, #0, 10
    1208:	c50a0000 	strgt	r0, [sl, #-0]
    120c:	5d000000 	stcpl	0, cr0, [r0, #-0]
    1210:	0c000002 	stceq	0, cr0, [r0], {2}
    1214:	00000084 	andeq	r0, r0, r4, lsl #1
    1218:	050002b6 	streq	r0, [r0, #-694]	@ 0xfffffd4a
    121c:	0000024c 	andeq	r0, r0, ip, asr #4
    1220:	00737803 	rsbseq	r7, r3, r3, lsl #16
    1224:	02830500 	addeq	r0, r3, #0, 10
    1228:	0000011f 	andeq	r0, r0, pc, lsl r1
    122c:	86053c0d 	strhi	r3, [r5], -sp, lsl #24
    1230:	00033b09 	andeq	r3, r3, r9, lsl #22
    1234:	71e30900 	mvnvc	r0, r0, lsl #18
    1238:	88050000 	stmdahi	r5, {}	@ <UNPREDICTABLE>
    123c:	0000c50b 	andeq	ip, r0, fp, lsl #10
    1240:	00230200 	eoreq	r0, r3, r0, lsl #4
    1244:	0071f709 	rsbseq	pc, r1, r9, lsl #14
    1248:	0b890500 	bleq	fe242650 <_estack+0xde23d650>
    124c:	000000c5 	andeq	r0, r0, r5, asr #1
    1250:	09042302 	stmdbeq	r4, {r1, r8, r9, sp}
    1254:	000071de 	ldrdeq	r7, [r0], -lr
    1258:	c50b8a05 	strgt	r8, [fp, #-2565]	@ 0xfffff5fb
    125c:	02000000 	andeq	r0, r0, #0
    1260:	38090823 	stmdacc	r9, {r0, r1, r5, fp}
    1264:	05000073 	streq	r0, [r0, #-115]	@ 0xffffff8d
    1268:	00c50b8b 	sbceq	r0, r5, fp, lsl #23
    126c:	23020000 	movwcs	r0, #8192	@ 0x2000
    1270:	43530e0c 	cmpmi	r3, #12, 28	@ 0xc0
    1274:	8c050052 	stchi	0, cr0, [r5], {82}	@ 0x52
    1278:	0000c50b 	andeq	ip, r0, fp, lsl #10
    127c:	10230200 	eorne	r0, r3, r0, lsl #4
    1280:	5243430e 	subpl	r4, r3, #939524096	@ 0x38000000
    1284:	0b8d0500 	bleq	fe34268c <_estack+0xde33d68c>
    1288:	000000c5 	andeq	r0, r0, r5, asr #1
    128c:	09142302 	ldmdbeq	r4, {r1, r8, r9, sp}
    1290:	000073f6 	strdeq	r7, [r0], -r6
    1294:	080b8e05 	stmdaeq	fp, {r0, r2, r9, sl, fp, pc}
    1298:	02000002 	andeq	r0, r0, #2
    129c:	59091823 	stmdbpl	r9, {r0, r1, r5, fp, ip}
    12a0:	05000072 	streq	r0, [r0, #-114]	@ 0xffffff8e
    12a4:	00c50b8f 	sbceq	r0, r5, pc, lsl #23
    12a8:	23020000 	movwcs	r0, #8192	@ 0x2000
    12ac:	73200924 			@ <UNDEFINED> instruction: 0x73200924
    12b0:	90050000 	andls	r0, r5, r0
    12b4:	0000c50b 	andeq	ip, r0, fp, lsl #10
    12b8:	28230200 	stmdacs	r3!, {r9}
    12bc:	00725409 	rsbseq	r5, r2, r9, lsl #8
    12c0:	0b910500 	bleq	fe4426c8 <_estack+0xde43d6c8>
    12c4:	000000c5 	andeq	r0, r0, r5, asr #1
    12c8:	092c2302 	stmdbeq	ip!, {r1, r8, r9, sp}
    12cc:	00007264 	andeq	r7, r0, r4, ror #4
    12d0:	c50b9205 	strgt	r9, [fp, #-517]	@ 0xfffffdfb
    12d4:	02000000 	andeq	r0, r0, #0
    12d8:	d2093023 	andle	r3, r9, #35	@ 0x23
    12dc:	05000072 	streq	r0, [r0, #-114]	@ 0xffffff8e
    12e0:	00c50b93 	smulleq	r0, r5, r3, fp
    12e4:	23020000 	movwcs	r0, #8192	@ 0x2000
    12e8:	73010934 	movwvc	r0, #6452	@ 0x1934
    12ec:	94050000 	strls	r0, [r5], #-0
    12f0:	0000c50b 	andeq	ip, r0, fp, lsl #10
    12f4:	38230200 	stmdacc	r3!, {r9}
    12f8:	735b0300 	cmpvc	fp, #0, 6
    12fc:	95050000 	strls	r0, [r5, #-0]
    1300:	00026e02 	andeq	r6, r2, r2, lsl #28
    1304:	01070600 	tsteq	r7, r0, lsl #12
    1308:	00000040 	andeq	r0, r0, r0, asr #32
    130c:	74015c06 	strvc	r5, [r1], #-3078	@ 0xfffff3fa
    1310:	07000003 	streq	r0, [r0, -r3]
    1314:	0000726d 	andeq	r7, r0, sp, ror #4
    1318:	73a40700 			@ <UNDEFINED> instruction: 0x73a40700
    131c:	07010000 	streq	r0, [r1, -r0]
    1320:	000072ef 	andeq	r7, r0, pc, ror #5
    1324:	72c00702 	sbcvc	r0, r0, #524288	@ 0x80000
    1328:	07030000 	streq	r0, [r3, -r0]
    132c:	00007285 	andeq	r7, r0, r5, lsl #5
    1330:	ad030004 	stcge	0, cr0, [r3, #-16]
    1334:	06000072 			@ <UNDEFINED> instruction: 0x06000072
    1338:	03470262 	movteq	r0, #29282	@ 0x7262
    133c:	010f0000 	mrseq	r0, CPSR
    1340:	000073b6 			@ <UNDEFINED> instruction: 0x000073b6
    1344:	0117cc01 	tsteq	r7, r1, lsl #24
    1348:	00000113 	andeq	r0, r0, r3, lsl r1
	...
    1354:	00000764 	andeq	r0, r0, r4, ror #14
    1358:	0003be01 	andeq	fp, r3, r1, lsl #28
    135c:	72171000 	andsvc	r1, r7, #0
    1360:	cc010000 	stcgt	0, cr0, [r1], {-0}
    1364:	00037440 	andeq	r7, r3, r0, asr #8
    1368:	6f910200 	svcvs	0x00910200
    136c:	74657211 	strbtvc	r7, [r5], #-529	@ 0xfffffdef
    1370:	18ce0100 	stmiane	lr, {r8}^
    1374:	00000113 	andeq	r0, r0, r3, lsl r1
    1378:	00779102 	rsbseq	r9, r7, r2, lsl #2
    137c:	738b010f 	orrvc	r0, fp, #-1073741821	@ 0xc0000003
    1380:	a5010000 	strge	r0, [r1, #-0]
    1384:	01130117 	tsteq	r3, r7, lsl r1
	...
    1390:	07c00000 	strbeq	r0, [r0, r0]
    1394:	42010000 	andmi	r0, r1, #0
    1398:	10000004 	andne	r0, r0, r4
    139c:	0000727f 	andeq	r7, r0, pc, ror r2
    13a0:	ad36a501 	cfldr32ge	mvfx10, [r6, #-4]!
    13a4:	02000000 	andeq	r0, r0, #0
    13a8:	17106f91 			@ <UNDEFINED> instruction: 0x17106f91
    13ac:	01000072 	tsteq	r0, r2, ror r0
    13b0:	037450a5 	cmneq	r4, #165	@ 0xa5
    13b4:	91020000 	mrsls	r0, (UNDEF: 2)
    13b8:	73e6106e 	mvnvc	r1, #110	@ 0x6e
    13bc:	a5010000 	strge	r0, [r1, #-0]
    13c0:	0000ad6a 	andeq	sl, r0, sl, ror #26
    13c4:	6d910200 	lfmvs	f0, 4, [r1]
    13c8:	00730c10 	rsbseq	r0, r3, r0, lsl ip
    13cc:	81a50100 			@ <UNDEFINED> instruction: 0x81a50100
    13d0:	000000ad 	andeq	r0, r0, sp, lsr #1
    13d4:	116c9102 	cmnne	ip, r2, lsl #2
    13d8:	00746572 	rsbseq	r6, r4, r2, ror r5
    13dc:	1318a701 	tstne	r8, #262144	@ 0x40000
    13e0:	02000001 	andeq	r0, r0, #1
    13e4:	00127791 	mulseq	r2, r1, r7
    13e8:	00000000 	andeq	r0, r0, r0
    13ec:	13000000 	movwne	r0, #0
    13f0:	0000736d 	andeq	r7, r0, sp, ror #6
    13f4:	ad0aad01 	stcge	13, cr10, [sl, #-4]
    13f8:	02000000 	andeq	r0, r0, #0
    13fc:	00007691 	muleq	r0, r1, r6
    1400:	7297010f 	addsvc	r0, r7, #-1073741821	@ 0xc0000003
    1404:	86010000 	strhi	r0, [r1], -r0
    1408:	01130117 	tsteq	r3, r7, lsl r1
	...
    1414:	081c0000 	ldmdaeq	ip, {}	@ <UNPREDICTABLE>
    1418:	8f010000 	svchi	0x00010000
    141c:	10000004 	andne	r0, r0, r4
    1420:	0000727f 	andeq	r7, r0, pc, ror r2
    1424:	ad338601 	ldcge	6, cr8, [r3, #-4]!
    1428:	02000000 	andeq	r0, r0, #0
    142c:	e9106f91 	ldmdb	r0, {r0, r4, r7, r8, r9, sl, fp, sp, lr}
    1430:	01000071 	tsteq	r0, r1, ror r0
    1434:	048f4186 	streq	r4, [pc], #390	@ 143c <_Min_Stack_Size+0x103c>
    1438:	91020000 	mrsls	r0, (UNDEF: 2)
    143c:	65721168 	ldrbvs	r1, [r2, #-360]!	@ 0xfffffe98
    1440:	88010074 	stmdahi	r1, {r2, r4, r5, r6}
    1444:	00011318 	andeq	r1, r1, r8, lsl r3
    1448:	77910200 	ldrvc	r0, [r1, r0, lsl #4]
    144c:	ad041400 	cfstrsge	mvf1, [r4, #-0]
    1450:	0f000000 	svceq	0x00000000
    1454:	0073cc01 	rsbseq	ip, r3, r1, lsl #24
    1458:	176f0100 	strbne	r0, [pc, -r0, lsl #2]!
    145c:	00011301 	andeq	r1, r1, r1, lsl #6
	...
    1468:	00087800 	andeq	r7, r8, r0, lsl #16
    146c:	04d30100 	ldrbeq	r0, [r3], #256	@ 0x100
    1470:	7f100000 	svcvc	0x00100000
    1474:	01000072 	tsteq	r0, r2, ror r0
    1478:	00ad376f 	adceq	r3, sp, pc, ror #14
    147c:	91020000 	mrsls	r0, (UNDEF: 2)
    1480:	6572116f 	ldrbvs	r1, [r2, #-367]!	@ 0xfffffe91
    1484:	71010074 	tstvc	r1, r4, ror r0
    1488:	00011318 	andeq	r1, r1, r8, lsl r3
    148c:	77910200 	ldrvc	r0, [r1, r0, lsl #4]
    1490:	43010f00 	movwmi	r0, #7936	@ 0x1f00
    1494:	01000073 	tsteq	r0, r3, ror r0
    1498:	13011759 	movwne	r1, #5977	@ 0x1759
    149c:	00000001 	andeq	r0, r0, r1
    14a0:	00000000 	andeq	r0, r0, r0
    14a4:	d4000000 	strle	r0, [r0], #-0
    14a8:	01000008 	tsteq	r0, r8
    14ac:	00000511 	andeq	r0, r0, r1, lsl r5
    14b0:	00727f10 	rsbseq	r7, r2, r0, lsl pc
    14b4:	35590100 	ldrbcc	r0, [r9, #-256]	@ 0xffffff00
    14b8:	000000ad 	andeq	r0, r0, sp, lsr #1
    14bc:	116f9102 	cmnne	pc, r2, lsl #2
    14c0:	00746572 	rsbseq	r6, r4, r2, ror r5
    14c4:	13185b01 	tstne	r8, #1024	@ 0x400
    14c8:	02000001 	andeq	r0, r0, #1
    14cc:	0f007791 	svceq	0x00007791
    14d0:	0072d701 	rsbseq	sp, r2, r1, lsl #14
    14d4:	173d0100 	ldrne	r0, [sp, -r0, lsl #2]!
    14d8:	00011301 	andeq	r1, r1, r1, lsl #6
	...
    14e4:	00093000 	andeq	r3, r9, r0
    14e8:	055e0100 	ldrbeq	r0, [lr, #-256]	@ 0xffffff00
    14ec:	7f100000 	svcvc	0x00100000
    14f0:	01000072 	tsteq	r0, r2, ror r0
    14f4:	00ad353d 	adceq	r3, sp, sp, lsr r5
    14f8:	91020000 	mrsls	r0, (UNDEF: 2)
    14fc:	71e9106f 	mvnvc	r1, pc, rrx
    1500:	3d010000 	stccc	0, cr0, [r1, #-0]
    1504:	00048f44 	andeq	r8, r4, r4, asr #30
    1508:	68910200 	ldmvs	r1, {r9}
    150c:	74657211 	strbtvc	r7, [r5], #-529	@ 0xfffffdef
    1510:	183f0100 	ldmdane	pc!, {r8}	@ <UNPREDICTABLE>
    1514:	00000113 	andeq	r0, r0, r3, lsl r1
    1518:	00779102 	rsbseq	r9, r7, r2, lsl #2
    151c:	56d8010f 	ldrbpl	r0, [r8], pc, lsl #2
    1520:	27010000 	strcs	r0, [r1, -r0]
    1524:	01130117 	tsteq	r3, r7, lsl r1
    1528:	09840000 	stmibeq	r4, {}	@ <UNPREDICTABLE>
    152c:	09d00800 	ldmibeq	r0, {fp}^
    1530:	098c0800 	stmibeq	ip, {fp}
    1534:	9c010000 	stcls	0, cr0, [r1], {-0}
    1538:	10000005 	andne	r0, r0, r5
    153c:	0000727f 	andeq	r7, r0, pc, ror r2
    1540:	ad322701 	ldcge	7, cr2, [r2, #-4]!
    1544:	02000000 	andeq	r0, r0, #0
    1548:	72116f91 	andsvc	r6, r1, #580	@ 0x244
    154c:	01007465 	tsteq	r0, r5, ror #8
    1550:	01131829 	tsteq	r3, r9, lsr #16
    1554:	91020000 	mrsls	r0, (UNDEF: 2)
    1558:	01150077 	tsteq	r5, r7, ror r0
    155c:	0000062c 	andeq	r0, r0, ip, lsr #12
    1560:	01171201 	tsteq	r7, r1, lsl #4
    1564:	00000113 	andeq	r0, r0, r3, lsl r1
    1568:	0800093c 	stmdaeq	r0, {r2, r3, r4, r5, r8, fp}
    156c:	08000984 	stmdaeq	r0, {r2, r7, r8, fp}
    1570:	000009e8 	andeq	r0, r0, r8, ror #19
    1574:	727f1001 	rsbsvc	r1, pc, #1
    1578:	12010000 	andne	r0, r1, #0
    157c:	0000ad31 	andeq	sl, r0, r1, lsr sp
    1580:	6f910200 	svcvs	0x00910200
    1584:	74657211 	strbtvc	r7, [r5], #-529	@ 0xfffffdef
    1588:	18140100 	ldmdane	r4, {r8}
    158c:	00000113 	andeq	r0, r0, r3, lsl r1
    1590:	00779102 	rsbseq	r9, r7, r2, lsl #2
    1594:	00079800 	andeq	r9, r7, r0, lsl #16
    1598:	26000200 	strcs	r0, [r0], -r0, lsl #4
    159c:	04000004 	streq	r0, [r0], #-4
    15a0:	00263401 	eoreq	r3, r6, r1, lsl #8
    15a4:	77c70c00 	strbvc	r0, [r7, r0, lsl #24]
    15a8:	290f0000 	stmdbcs	pc, {}	@ <UNPREDICTABLE>
    15ac:	01400000 	mrseq	r0, (UNDEF: 64)
	...
    15b8:	19730000 	ldmdbne	r3!, {}^	@ <UNPREDICTABLE>
    15bc:	1a0b0000 	bne	2c15c4 <_Min_Stack_Size+0x2c11c4>
    15c0:	01020000 	mrseq	r0, (UNDEF: 2)
    15c4:	0004e606 	andeq	lr, r4, r6, lsl #12
    15c8:	0ec50300 	cdpeq	3, 12, cr0, cr5, cr0, {0}
    15cc:	2b020000 	blcs	815d4 <_Min_Stack_Size+0x811d4>
    15d0:	00004018 	andeq	r4, r0, r8, lsl r0
    15d4:	08010200 	stmdaeq	r1, {r9}
    15d8:	000042dc 	ldrdeq	r4, [r0], -ip
    15dc:	fc050202 	stc2	2, cr0, [r5], {2}
    15e0:	02000005 	andeq	r0, r0, #5
    15e4:	50f60702 	rscspl	r0, r6, r2, lsl #14
    15e8:	04020000 	streq	r0, [r2], #-0
    15ec:	00391a05 	eorseq	r1, r9, r5, lsl #20
    15f0:	38dc0300 	ldmcc	ip, {r8, r9}^
    15f4:	4f020000 	svcmi	0x00020000
    15f8:	00006819 	andeq	r6, r0, r9, lsl r8
    15fc:	07040200 	streq	r0, [r4, -r0, lsl #4]
    1600:	00001614 	andeq	r1, r0, r4, lsl r6
    1604:	f1050802 			@ <UNDEFINED> instruction: 0xf1050802
    1608:	0200003b 	andeq	r0, r0, #59	@ 0x3b
    160c:	5b790708 	blpl	1e43234 <_Min_Stack_Size+0x1e42e34>
    1610:	04040000 	streq	r0, [r4], #-0
    1614:	746e6905 	strbtvc	r6, [lr], #-2309	@ 0xfffff6fb
    1618:	07040200 	streq	r0, [r4, -r0, lsl #4]
    161c:	00001bdd 	ldrdeq	r1, [r0], -sp
    1620:	000ec703 	andeq	ip, lr, r3, lsl #14
    1624:	13180300 	tstne	r8, #0, 6
    1628:	00000034 	andeq	r0, r0, r4, lsr r0
    162c:	0038de03 	eorseq	sp, r8, r3, lsl #28
    1630:	14300300 	ldrtne	r0, [r0], #-768	@ 0xfffffd00
    1634:	0000005c 	andeq	r0, r0, ip, asr r0
    1638:	00009705 	andeq	r9, r0, r5, lsl #14
    163c:	71fd0300 	mvnsvc	r0, r0, lsl #6
    1640:	22040000 	andcs	r0, r4, #0
    1644:	00008b16 	andeq	r8, r0, r6, lsl fp
    1648:	00a80600 	adceq	r0, r8, r0, lsl #12
    164c:	84030000 	strhi	r0, [r3], #-0
    1650:	04000022 	streq	r0, [r0], #-34	@ 0xffffffde
    1654:	00971728 	addseq	r1, r7, r8, lsr #14
    1658:	83030000 	movwhi	r0, #12288	@ 0x3000
    165c:	04000022 	streq	r0, [r0], #-34	@ 0xffffffde
    1660:	00a32034 	adceq	r2, r3, r4, lsr r0
    1664:	04020000 	streq	r0, [r2], #-0
    1668:	0068dd04 	rsbeq	sp, r8, r4, lsl #26
    166c:	04080200 	streq	r0, [r8], #-512	@ 0xfffffe00
    1670:	0000496d 	andeq	r4, r0, sp, ror #18
    1674:	68040802 	stmdavs	r4, {r1, fp}
    1678:	07000049 	streq	r0, [r0, -r9, asr #32]
    167c:	00400107 	subeq	r0, r0, r7, lsl #2
    1680:	57040000 	strpl	r0, [r4, -r0]
    1684:	00011301 	andeq	r1, r1, r1, lsl #6
    1688:	64460800 	strbvs	r0, [r6], #-2048	@ 0xfffff800
    168c:	08000000 	stmdaeq	r0, {}	@ <UNPREDICTABLE>
    1690:	00004eda 	ldrdeq	r4, [r0], -sl
    1694:	6a260801 	bvs	9836a0 <_Min_Stack_Size+0x9832a0>
    1698:	08020000 	stmdaeq	r2, {}	@ <UNPREDICTABLE>
    169c:	00003df4 	strdeq	r3, [r0], -r4
    16a0:	31f50803 	mvnscc	r0, r3, lsl #16
    16a4:	00040000 	andeq	r0, r4, r0
    16a8:	00030203 	andeq	r0, r3, r3, lsl #4
    16ac:	025d0400 	subseq	r0, sp, #0, 8
    16b0:	000000e6 	andeq	r0, r0, r6, ror #1
    16b4:	9f052809 	svcls	0x00052809
    16b8:	0001be09 	andeq	fp, r1, r9, lsl #28
    16bc:	52430a00 	subpl	r0, r3, #0, 20
    16c0:	0ca10500 	cfstr32eq	mvfx0, [r1]
    16c4:	000000c5 	andeq	r0, r0, r5, asr #1
    16c8:	0b002302 	bleq	a2d8 <_Min_Stack_Size+0x9ed8>
    16cc:	0000770a 	andeq	r7, r0, sl, lsl #14
    16d0:	c50ca205 	strgt	sl, [ip, #-517]	@ 0xfffffdfb
    16d4:	02000000 	andeq	r0, r0, #0
    16d8:	430a0423 	movwmi	r0, #42019	@ 0xa423
    16dc:	05005249 	streq	r5, [r0, #-585]	@ 0xfffffdb7
    16e0:	00c50ca3 	sbceq	r0, r5, r3, lsr #25
    16e4:	23020000 	movwcs	r0, #8192	@ 0x2000
    16e8:	77d90b08 	ldrbvc	r0, [r9, r8, lsl #22]
    16ec:	a4050000 	strge	r0, [r5], #-0
    16f0:	0000c50c 	andeq	ip, r0, ip, lsl #10
    16f4:	0c230200 	sfmeq	f0, 4, [r3], #-0
    16f8:	0078480b 	rsbseq	r4, r8, fp, lsl #16
    16fc:	0ca50500 	cfstr32eq	mvfx0, [r5]
    1700:	000000c5 	andeq	r0, r0, r5, asr #1
    1704:	0b102302 	bleq	40a314 <_Min_Stack_Size+0x409f14>
    1708:	000079d7 	ldrdeq	r7, [r0], -r7	@ <UNPREDICTABLE>
    170c:	c50ca605 	strgt	sl, [ip, #-1541]	@ 0xfffff9fb
    1710:	02000000 	andeq	r0, r0, #0
    1714:	2e0b1423 	cdpcs	4, 0, cr1, cr11, cr3, {1}
    1718:	05000075 	streq	r0, [r0, #-117]	@ 0xffffff8b
    171c:	00c50ca7 	sbceq	r0, r5, r7, lsr #25
    1720:	23020000 	movwcs	r0, #8192	@ 0x2000
    1724:	77190b18 			@ <UNDEFINED> instruction: 0x77190b18
    1728:	a8050000 	stmdage	r5, {}	@ <UNPREDICTABLE>
    172c:	0000c50c 	andeq	ip, r0, ip, lsl #10
    1730:	1c230200 	sfmne	f0, 4, [r3], #-0
    1734:	0076470b 	rsbseq	r4, r6, fp, lsl #14
    1738:	0ca90500 	cfstr32eq	mvfx0, [r9]
    173c:	000000c5 	andeq	r0, r0, r5, asr #1
    1740:	0a202302 	beq	80a350 <_Min_Stack_Size+0x809f50>
    1744:	00525343 	subseq	r5, r2, r3, asr #6
    1748:	c50caa05 	strgt	sl, [ip, #-2565]	@ 0xfffff5fb
    174c:	02000000 	andeq	r0, r0, #0
    1750:	03002423 	movweq	r2, #1059	@ 0x423
    1754:	00007422 	andeq	r7, r0, r2, lsr #8
    1758:	1f02ab05 	svcne	0x0002ab05
    175c:	07000001 	streq	r0, [r0, -r1]
    1760:	00400107 	subeq	r0, r0, r7, lsl #2
    1764:	17060000 	strne	r0, [r6, -r0]
    1768:	0001eb01 	andeq	lr, r1, r1, lsl #22
    176c:	753f0800 	ldrvc	r0, [pc, #-2048]!	@ f74 <_Min_Stack_Size+0xb74>
    1770:	08000000 	stmdaeq	r0, {}	@ <UNPREDICTABLE>
    1774:	00007536 	andeq	r7, r0, r6, lsr r5
    1778:	77f00801 	ldrbvc	r0, [r0, r1, lsl #16]!
    177c:	00020000 	andeq	r0, r2, r0
    1780:	0079b103 	rsbseq	fp, r9, r3, lsl #2
    1784:	021b0600 	andseq	r0, fp, #0, 12
    1788:	000001ca 	andeq	r0, r0, sl, asr #3
    178c:	40010707 	andmi	r0, r1, r7, lsl #14
    1790:	06000000 	streq	r0, [r0], -r0
    1794:	0218011e 	andseq	r0, r8, #-2147483641	@ 0x80000007
    1798:	8a080000 	bhi	2017a0 <_Min_Stack_Size+0x2013a0>
    179c:	00000079 	andeq	r0, r0, r9, ror r0
    17a0:	00749808 	rsbseq	r9, r4, r8, lsl #16
    17a4:	07080100 	streq	r0, [r8, -r0, lsl #2]
    17a8:	0200007a 	andeq	r0, r0, #122	@ 0x7a
    17ac:	74710300 	ldrbtvc	r0, [r1], #-768	@ 0xfffffd00
    17b0:	22060000 	andcs	r0, r6, #0
    17b4:	0001f702 	andeq	pc, r1, r2, lsl #14
    17b8:	01070700 	tsteq	r7, r0, lsl #14
    17bc:	00000040 	andeq	r0, r0, r0, asr #32
    17c0:	51012606 	tstpl	r1, r6, lsl #12
    17c4:	08000002 	stmdaeq	r0, {r1}
    17c8:	00007851 	andeq	r7, r0, r1, asr r8
    17cc:	78660800 	stmdavc	r6!, {fp}^
    17d0:	08040000 	stmdaeq	r4, {}	@ <UNPREDICTABLE>
    17d4:	0000787b 	andeq	r7, r0, fp, ror r8
    17d8:	7a8a0805 	bvc	fe2837f4 <_estack+0xde27e7f4>
    17dc:	08060000 	stmdaeq	r6, {}	@ <UNPREDICTABLE>
    17e0:	000075de 	ldrdeq	r7, [r0], -lr
    17e4:	31030007 	tstcc	r3, r7
    17e8:	06000079 			@ <UNDEFINED> instruction: 0x06000079
    17ec:	0224022c 	eoreq	r0, r4, #44, 4	@ 0xc0000002
    17f0:	07070000 	streq	r0, [r7, -r0]
    17f4:	00004001 	andeq	r4, r0, r1
    17f8:	01300600 	teqeq	r0, r0, lsl #12
    17fc:	000002a2 	andeq	r0, r0, r2, lsr #5
    1800:	0074da08 	rsbseq	sp, r4, r8, lsl #20
    1804:	ef080000 	svc	0x00080000
    1808:	08000074 	stmdaeq	r0, {r2, r4, r5, r6}
    180c:	00750408 	rsbseq	r0, r5, r8, lsl #8
    1810:	19080900 	stmdbne	r8, {r8, fp}
    1814:	0a000075 	beq	19f0 <_Min_Stack_Size+0x15f0>
    1818:	00772108 	rsbseq	r2, r7, r8, lsl #2
    181c:	03080b00 	movweq	r0, #35584	@ 0x8b00
    1820:	0c000078 	stceq	0, cr0, [r0], {120}	@ 0x78
    1824:	00754808 	rsbseq	r4, r5, r8, lsl #16
    1828:	c3080d00 	movwgt	r0, #36096	@ 0x8d00
    182c:	0e000074 	mcreq	0, 0, r0, cr0, cr4, {3}
    1830:	007abb08 	rsbseq	fp, sl, r8, lsl #22
    1834:	03000f00 	movweq	r0, #3840	@ 0xf00
    1838:	00007737 	andeq	r7, r0, r7, lsr r7
    183c:	5d023a06 	vstrpl	s6, [r2, #-24]	@ 0xffffffe8
    1840:	07000002 	streq	r0, [r0, -r2]
    1844:	00400107 	subeq	r0, r0, r7, lsl #2
    1848:	3f060000 	svccc	0x00060000
    184c:	00031701 	andeq	r1, r3, r1, lsl #14
    1850:	765e0800 	ldrbvc	r0, [lr], -r0, lsl #16
    1854:	08000000 	stmdaeq	r0, {}	@ <UNPREDICTABLE>
    1858:	0000766f 	andeq	r7, r0, pc, ror #12
    185c:	79a00801 	stmibvc	r0!, {r0, fp}
    1860:	08020000 	stmdaeq	r2, {}	@ <UNPREDICTABLE>
    1864:	00007680 	andeq	r7, r0, r0, lsl #13
    1868:	76910803 	ldrvc	r0, [r1], r3, lsl #16
    186c:	08040000 	stmdaeq	r4, {}	@ <UNPREDICTABLE>
    1870:	000076a2 	andeq	r7, r0, r2, lsr #13
    1874:	76b30805 	ldrtvc	r0, [r3], r5, lsl #16
    1878:	08060000 	stmdaeq	r6, {}	@ <UNPREDICTABLE>
    187c:	000076c4 	andeq	r7, r0, r4, asr #13
    1880:	7a300807 	bvc	c038a4 <_Min_Stack_Size+0xc034a4>
    1884:	08080000 	stmdaeq	r8, {}	@ <UNPREDICTABLE>
    1888:	00007486 	andeq	r7, r0, r6, lsl #9
    188c:	7a420809 	bvc	10838b8 <_Min_Stack_Size+0x10834b8>
    1890:	080a0000 	stmdaeq	sl, {}	@ <UNPREDICTABLE>
    1894:	0000764c 	andeq	r7, r0, ip, asr #12
    1898:	7a54080b 	bvc	15038cc <_Min_Stack_Size+0x15034cc>
    189c:	080c0000 	stmdaeq	ip, {}	@ <UNPREDICTABLE>
    18a0:	00007a66 	andeq	r7, r0, r6, ror #20
    18a4:	7a78080d 	bvc	1e038e0 <_Min_Stack_Size+0x1e034e0>
    18a8:	000e0000 	andeq	r0, lr, r0
    18ac:	00779503 	rsbseq	r9, r7, r3, lsl #10
    18b0:	024f0600 	subeq	r0, pc, #0, 12
    18b4:	000002ae 	andeq	r0, r0, lr, lsr #5
    18b8:	40010707 	andmi	r0, r1, r7, lsl #14
    18bc:	06000000 	streq	r0, [r0], -r0
    18c0:	04520155 	ldrbeq	r0, [r2], #-341	@ 0xfffffeab
    18c4:	db080000 	blle	2018cc <_Min_Stack_Size+0x2014cc>
    18c8:	00000078 	andeq	r0, r0, r8, ror r0
    18cc:	0075d408 	rsbseq	sp, r5, r8, lsl #8
    18d0:	d5080100 	strle	r0, [r8, #-256]	@ 0xffffff00
    18d4:	02000076 	andeq	r0, r0, #118	@ 0x76
    18d8:	007a9f08 	rsbseq	r9, sl, r8, lsl #30
    18dc:	ba080300 	blt	2024e4 <_Min_Stack_Size+0x2020e4>
    18e0:	04000074 	streq	r0, [r0], #-116	@ 0xffffff8c
    18e4:	00770f08 	rsbseq	r0, r7, r8, lsl #30
    18e8:	ca080500 	bgt	202cf0 <_Min_Stack_Size+0x2028f0>
    18ec:	06000075 			@ <UNDEFINED> instruction: 0x06000075
    18f0:	00744d08 	rsbseq	r4, r4, r8, lsl #26
    18f4:	f9080700 			@ <UNDEFINED> instruction: 0xf9080700
    18f8:	08000077 	stmdaeq	r0, {r0, r1, r2, r4, r5, r6}
    18fc:	00755f08 	rsbseq	r5, r5, r8, lsl #30
    1900:	69080900 	stmdbvs	r8, {r8, fp}
    1904:	0a000075 	beq	1ae0 <_Min_Stack_Size+0x16e0>
    1908:	00757308 	rsbseq	r7, r5, r8, lsl #6
    190c:	7d080b00 	vstrvc	d0, [r8, #-0]
    1910:	0c000075 	stceq	0, cr0, [r0], {117}	@ 0x75
    1914:	00758708 	rsbseq	r8, r5, r8, lsl #14
    1918:	91080d00 	tstls	r8, r0, lsl #26
    191c:	0e000075 	mcreq	0, 0, r0, cr0, cr5, {3}
    1920:	0077b308 	rsbseq	fp, r7, r8, lsl #6
    1924:	18080f00 	stmdane	r8, {r8, r9, sl, fp}
    1928:	10000074 	andne	r0, r0, r4, ror r0
    192c:	00774f08 	rsbseq	r4, r7, r8, lsl #30
    1930:	ac081100 	stfges	f1, [r8], {-0}
    1934:	12000075 	andne	r0, r0, #117	@ 0x75
    1938:	00778108 	rsbseq	r8, r7, r8, lsl #2
    193c:	49081300 	stmdbmi	r8, {r8, r9, ip}
    1940:	14000079 	strne	r0, [r0], #-121	@ 0xffffff87
    1944:	0077bd08 	rsbseq	fp, r7, r8, lsl #26
    1948:	8b081500 	blhi	206d50 <_Min_Stack_Size+0x206950>
    194c:	16000077 			@ <UNDEFINED> instruction: 0x16000077
    1950:	00740208 	rsbseq	r0, r4, r8, lsl #4
    1954:	26081700 	strcs	r1, [r8], -r0, lsl #14
    1958:	18000076 	stmdane	r0, {r1, r2, r4, r5, r6}
    195c:	00775908 	rsbseq	r5, r7, r8, lsl #18
    1960:	63081900 	movwvs	r1, #35072	@ 0x8900
    1964:	1a000077 	bne	1b48 <_Min_Stack_Size+0x1748>
    1968:	00776d08 	rsbseq	r6, r7, r8, lsl #26
    196c:	77081b00 	strvc	r1, [r8, -r0, lsl #22]
    1970:	1c000077 	stcne	0, cr0, [r0], {119}	@ 0x77
    1974:	00783408 	rsbseq	r3, r8, r8, lsl #8
    1978:	3e081d00 	cdpcc	13, 0, cr1, cr8, cr0, {0}
    197c:	1e000078 	mcrne	0, 0, r0, cr0, cr8, {3}
    1980:	00740d08 	rsbseq	r0, r4, r8, lsl #26
    1984:	31081f00 	tstcc	r8, r0, lsl #30
    1988:	20000076 	andcs	r0, r0, r6, ror r0
    198c:	00763c08 	rsbseq	r3, r6, r8, lsl #24
    1990:	a9082100 	stmdbge	r8, {r8, sp}
    1994:	22000077 	andcs	r0, r0, #119	@ 0x77
    1998:	0075b608 	rsbseq	fp, r5, r8, lsl #12
    199c:	c0082300 	andgt	r2, r8, r0, lsl #6
    19a0:	24000075 	strcs	r0, [r0], #-117	@ 0xffffff8b
    19a4:	00795508 	rsbseq	r5, r9, r8, lsl #10
    19a8:	61082500 	tstvs	r8, r0, lsl #10
    19ac:	26000079 			@ <UNDEFINED> instruction: 0x26000079
    19b0:	00760a08 	rsbseq	r0, r6, r8, lsl #20
    19b4:	6d082700 	stcvs	7, cr2, [r8, #-0]
    19b8:	28000079 	stmdacs	r0, {r0, r3, r4, r5, r6}
    19bc:	007a1c08 	rsbseq	r1, sl, r8, lsl #24
    19c0:	26082900 	strcs	r2, [r8], -r0, lsl #18
    19c4:	2a00007a 	bcs	1bb4 <_Min_Stack_Size+0x17b4>
    19c8:	00791408 	rsbseq	r1, r9, r8, lsl #8
    19cc:	19082b00 	stmdbne	r8, {r8, r9, fp, sp}
    19d0:	2c000078 	stccs	0, cr0, [r0], {120}	@ 0x78
    19d4:	0078a208 	rsbseq	sl, r8, r8, lsl #4
    19d8:	97082d00 	strls	r2, [r8, -r0, lsl #26]
    19dc:	2e000079 	mcrcs	0, 0, r0, cr0, cr9, {3}
    19e0:	0078e508 	rsbseq	lr, r8, r8, lsl #10
    19e4:	03002f00 	movweq	r2, #3840	@ 0xf00
    19e8:	000075f4 	strdeq	r7, [r0], -r4
    19ec:	23028606 	movwcs	r8, #9734	@ 0x2606
    19f0:	0c000003 	stceq	0, cr0, [r0], {3}
    19f4:	000000b4 	strheq	r0, [r0], -r4
    19f8:	0000046e 	andeq	r0, r0, lr, ror #8
    19fc:	0000840d 	andeq	r8, r0, sp, lsl #8
    1a00:	06000700 	streq	r0, [r0], -r0, lsl #14
    1a04:	0000045e 	andeq	r0, r0, lr, asr r4
    1a08:	0076f80e 	rsbseq	pc, r6, lr, lsl #16
    1a0c:	0d0e0100 	stfeqs	f0, [lr, #-0]
    1a10:	0000046e 	andeq	r0, r0, lr, ror #8
    1a14:	00030501 	andeq	r0, r3, r1, lsl #10
    1a18:	0c000000 	stceq	0, cr0, [r0], {-0}
    1a1c:	000000b4 	strheq	r0, [r0], -r4
    1a20:	00000496 	muleq	r0, r6, r4
    1a24:	0000840d 	andeq	r8, r0, sp, lsl #8
    1a28:	06000f00 	streq	r0, [r0], -r0, lsl #30
    1a2c:	00000486 	andeq	r0, r0, r6, lsl #9
    1a30:	0078900e 	rsbseq	r9, r8, lr
    1a34:	0d0f0100 	stfeqs	f0, [pc, #-0]	@ 1a3c <_Min_Stack_Size+0x163c>
    1a38:	00000496 	muleq	r0, r6, r4
    1a3c:	00030501 	andeq	r0, r3, r1, lsl #10
    1a40:	0f000000 	svceq	0x00000000
    1a44:	007ad201 	rsbseq	sp, sl, r1, lsl #4
    1a48:	01990100 	orrseq	r0, r9, r0, lsl #2
    1a4c:	01130117 	tsteq	r3, r7, lsl r1
	...
    1a58:	0a440000 	beq	1101a60 <_Min_Stack_Size+0x1101660>
    1a5c:	09010000 	stmdbeq	r1, {}	@ <UNPREDICTABLE>
    1a60:	10000005 	andne	r0, r0, r5
    1a64:	00007457 	andeq	r7, r0, r7, asr r4
    1a68:	34019901 	strcc	r9, [r1], #-2305	@ 0xfffff6ff
    1a6c:	00000509 	andeq	r0, r0, r9, lsl #10
    1a70:	116c9102 	cmnne	ip, r2, lsl #2
    1a74:	00746572 	rsbseq	r6, r4, r2, ror r5
    1a78:	18019b01 	stmdane	r1, {r0, r8, r9, fp, ip, pc}
    1a7c:	00000113 	andeq	r0, r0, r3, lsl r1
    1a80:	12779102 	rsbsne	r9, r7, #-2147483648	@ 0x80000000
	...
    1a8c:	00744213 	rsbseq	r4, r4, r3, lsl r2
    1a90:	019f0100 	orrseq	r0, pc, r0, lsl #2
    1a94:	0000b90a 	andeq	fp, r0, sl, lsl #18
    1a98:	70910200 	addsvc	r0, r1, r0, lsl #4
    1a9c:	04140000 	ldreq	r0, [r4], #-0
    1aa0:	000000b9 	strheq	r0, [r0], -r9
    1aa4:	74a5010f 	strtvc	r0, [r5], #271	@ 0x10f
    1aa8:	82010000 	andhi	r0, r1, #0
    1aac:	13011701 	movwne	r1, #5889	@ 0x1701
    1ab0:	00000001 	andeq	r0, r0, r1
    1ab4:	00000000 	andeq	r0, r0, r0
    1ab8:	94000000 	strls	r0, [r0], #-0
    1abc:	0100000a 	tsteq	r0, sl
    1ac0:	0000056a 	andeq	r0, r0, sl, ror #10
    1ac4:	00745710 	rsbseq	r5, r4, r0, lsl r7
    1ac8:	01820100 	orreq	r0, r2, r0, lsl #2
    1acc:	00050934 	andeq	r0, r5, r4, lsr r9
    1ad0:	6c910200 	lfmvs	f0, 4, [r1], {0}
    1ad4:	74657211 	strbtvc	r7, [r5], #-529	@ 0xfffffdef
    1ad8:	01840100 	orreq	r0, r4, r0, lsl #2
    1adc:	00011318 	andeq	r1, r1, r8, lsl r3
    1ae0:	77910200 	ldrvc	r0, [r1, r0, lsl #4]
    1ae4:	00000012 	andeq	r0, r0, r2, lsl r0
    1ae8:	00000000 	andeq	r0, r0, r0
    1aec:	74421300 	strbvc	r1, [r2], #-768	@ 0xfffffd00
    1af0:	88010000 	stmdahi	r1, {}	@ <UNPREDICTABLE>
    1af4:	00b90a01 	adcseq	r0, r9, r1, lsl #20
    1af8:	91020000 	mrsls	r0, (UNDEF: 2)
    1afc:	0f000070 	svceq	0x00000070
    1b00:	00791d01 	rsbseq	r1, r9, r1, lsl #26
    1b04:	016b0100 	cmneq	fp, r0, lsl #2
    1b08:	01130117 	tsteq	r3, r7, lsl r1
	...
    1b14:	0ae40000 	beq	ff901b1c <_estack+0xdf8fcb1c>
    1b18:	c5010000 	strgt	r0, [r1, #-0]
    1b1c:	10000005 	andne	r0, r0, r5
    1b20:	00007457 	andeq	r7, r0, r7, asr r4
    1b24:	33016b01 	movwcc	r6, #6913	@ 0x1b01
    1b28:	00000509 	andeq	r0, r0, r9, lsl #10
    1b2c:	116c9102 	cmnne	ip, r2, lsl #2
    1b30:	00746572 	rsbseq	r6, r4, r2, ror r5
    1b34:	18016d01 	stmdane	r1, {r0, r8, sl, fp, sp, lr}
    1b38:	00000113 	andeq	r0, r0, r3, lsl r1
    1b3c:	12779102 	rsbsne	r9, r7, #-2147483648	@ 0x80000000
	...
    1b48:	00744213 	rsbseq	r4, r4, r3, lsl r2
    1b4c:	01710100 	cmneq	r1, r0, lsl #2
    1b50:	0000b90a 	andeq	fp, r0, sl, lsl #18
    1b54:	70910200 	addsvc	r0, r1, r0, lsl #4
    1b58:	01150000 	tsteq	r5, r0
    1b5c:	00007900 	andeq	r7, r0, r0, lsl #18
    1b60:	17013101 	strne	r3, [r1, -r1, lsl #2]
    1b64:	00011301 	andeq	r1, r1, r1, lsl #6
	...
    1b70:	000b3400 	andeq	r3, fp, r0, lsl #8
    1b74:	063e0100 	ldrteq	r0, [lr], -r0, lsl #2
    1b78:	57100000 	ldrpl	r0, [r0, -r0]
    1b7c:	01000074 	tsteq	r0, r4, ror r0
    1b80:	09330131 	ldmdbeq	r3!, {r0, r4, r5, r8}
    1b84:	02000005 	andeq	r0, r0, #5
    1b88:	72116c91 	andsvc	r6, r1, #37120	@ 0x9100
    1b8c:	01007465 	tsteq	r0, r5, ror #8
    1b90:	13180133 	tstne	r8, #-1073741812	@ 0xc000000c
    1b94:	02000001 	andeq	r0, r0, #1
    1b98:	00167791 	mulseq	r6, r1, r7
    1b9c:	00000000 	andeq	r0, r0, r0
    1ba0:	23000000 	movwcs	r0, #0
    1ba4:	13000006 	movwne	r0, #6
    1ba8:	00007616 	andeq	r7, r0, r6, lsl r6
    1bac:	19014901 	stmdbne	r1, {r0, r8, fp, lr}
    1bb0:	00000317 	andeq	r0, r0, r7, lsl r3
    1bb4:	00759102 	rsbseq	r9, r5, r2, lsl #2
    1bb8:	00000012 	andeq	r0, r0, r2, lsl r0
    1bbc:	00000000 	andeq	r0, r0, r0
    1bc0:	76161300 	ldrvc	r1, [r6], -r0, lsl #6
    1bc4:	50010000 	andpl	r0, r1, r0
    1bc8:	03171901 	tsteq	r7, #16384	@ 0x4000
    1bcc:	91020000 	mrsls	r0, (UNDEF: 2)
    1bd0:	17000076 	smlsdxne	r0, r6, r0, r0
    1bd4:	0076df01 	rsbseq	sp, r6, r1, lsl #30
    1bd8:	17f10100 	ldrbne	r0, [r1, r0, lsl #2]!
    1bdc:	00011301 	andeq	r1, r1, r1, lsl #6
	...
    1be8:	000b9000 	andeq	r9, fp, r0
    1bec:	067c0100 	ldrbteq	r0, [ip], -r0, lsl #2
    1bf0:	f8180000 			@ <UNDEFINED> instruction: 0xf8180000
    1bf4:	01000079 	tsteq	r0, r9, ror r0
    1bf8:	045246f1 	ldrbeq	r4, [r2], #-1777	@ 0xfffff90f
    1bfc:	91020000 	mrsls	r0, (UNDEF: 2)
    1c00:	6572196f 	ldrbvs	r1, [r2, #-2415]!	@ 0xfffff691
    1c04:	f3010074 	vqadd.u8	q0, <illegal reg q0.5>, q10
    1c08:	00011318 	andeq	r1, r1, r8, lsl r3
    1c0c:	77910200 	ldrvc	r0, [r1, r0, lsl #4]
    1c10:	de011700 	cdple	7, 0, cr1, cr1, cr0, {0}
    1c14:	01000079 	tsteq	r0, r9, ror r0
    1c18:	130117aa 	movwne	r1, #6058	@ 0x17aa
    1c1c:	28000001 	stmdacs	r0, {r0}
    1c20:	8c08000b 	stchi	0, cr0, [r8], {11}
    1c24:	ec08000f 	stc	0, cr0, [r8], {15}
    1c28:	0100000b 	tsteq	r0, fp
    1c2c:	000006ba 			@ <UNDEFINED> instruction: 0x000006ba
    1c30:	0079f818 	rsbseq	pc, r9, r8, lsl r8	@ <UNPREDICTABLE>
    1c34:	47aa0100 	strmi	r0, [sl, r0, lsl #2]!
    1c38:	00000452 	andeq	r0, r0, r2, asr r4
    1c3c:	196f9102 	stmdbne	pc!, {r1, r8, ip, pc}^	@ <UNPREDICTABLE>
    1c40:	00746572 	rsbseq	r6, r4, r2, ror r5
    1c44:	1318ac01 	tstne	r8, #256	@ 0x100
    1c48:	02000001 	andeq	r0, r0, #1
    1c4c:	17007791 			@ <UNDEFINED> instruction: 0x17007791
    1c50:	00797901 	rsbseq	r7, r9, r1, lsl #18
    1c54:	175a0100 	ldrbne	r0, [sl, -r0, lsl #2]
    1c58:	00011301 	andeq	r1, r1, r1, lsl #6
	...
    1c64:	000c4800 	andeq	r4, ip, r0, lsl #16
    1c68:	07340100 	ldreq	r0, [r4, -r0, lsl #2]!
    1c6c:	34180000 	ldrcc	r0, [r8], #-0
    1c70:	01000074 	tsteq	r0, r4, ror r0
    1c74:	02183d5a 	andseq	r3, r8, #5760	@ 0x1680
    1c78:	91020000 	mrsls	r0, (UNDEF: 2)
    1c7c:	7464186f 	strbtvc	r1, [r4], #-2159	@ 0xfffff791
    1c80:	5a010000 	bpl	41c88 <_Min_Stack_Size+0x41888>
    1c84:	00031760 	andeq	r1, r3, r0, ror #14
    1c88:	6e910200 	cdpvs	2, 9, cr0, cr1, cr0, {0}
    1c8c:	0078ee18 	rsbseq	lr, r8, r8, lsl lr
    1c90:	1b5b0100 	blne	16c2098 <_Min_Stack_Size+0x16c1c98>
    1c94:	00000251 	andeq	r0, r0, r1, asr r2
    1c98:	186d9102 	stmdane	sp!, {r1, r8, ip, pc}^
    1c9c:	00007822 	andeq	r7, r0, r2, lsr #16
    1ca0:	51465b01 	cmppl	r6, r1, lsl #22
    1ca4:	02000002 	andeq	r0, r0, #2
    1ca8:	c6186c91 			@ <UNDEFINED> instruction: 0xc6186c91
    1cac:	01000079 	tsteq	r0, r9, ror r0
    1cb0:	02a21b5c 	adceq	r1, r2, #92, 22	@ 0x17000
    1cb4:	91020000 	mrsls	r0, (UNDEF: 2)
    1cb8:	65721900 	ldrbvs	r1, [r2, #-2304]!	@ 0xfffff700
    1cbc:	5e010074 	mcrpl	0, 0, r0, cr1, cr4, {3}
    1cc0:	00011318 	andeq	r1, r1, r8, lsl r3
    1cc4:	77910200 	ldrvc	r0, [r1, r0, lsl #4]
    1cc8:	9b011a00 	blls	484d0 <_Min_Stack_Size+0x480d0>
    1ccc:	01000075 	tsteq	r0, r5, ror r0
    1cd0:	1301171b 	movwne	r1, #5915	@ 0x171b
    1cd4:	d0000001 	andle	r0, r0, r1
    1cd8:	28080009 	stmdacs	r8, {r0, r3}
    1cdc:	a408000b 	strge	r0, [r8], #-11
    1ce0:	0100000c 	tsteq	r0, ip
    1ce4:	0077e218 	rsbseq	lr, r7, r8, lsl r2
    1ce8:	3d1b0100 	ldfccs	f0, [fp, #-0]
    1cec:	000001eb 	andeq	r0, r0, fp, ror #3
    1cf0:	186f9102 	stmdane	pc!, {r1, r8, ip, pc}^	@ <UNPREDICTABLE>
    1cf4:	000078ee 	andeq	r7, r0, lr, ror #17
    1cf8:	511b1c01 	tstpl	fp, r1, lsl #24
    1cfc:	02000002 	andeq	r0, r0, #2
    1d00:	22186e91 	andscs	r6, r8, #2320	@ 0x910
    1d04:	01000078 	tsteq	r0, r8, ror r0
    1d08:	0251461c 	subseq	r4, r1, #28, 12	@ 0x1c00000
    1d0c:	91020000 	mrsls	r0, (UNDEF: 2)
    1d10:	79c6186d 	stmibvc	r6, {r0, r2, r3, r5, r6, fp, ip}^
    1d14:	1c010000 	stcne	0, cr0, [r1], {-0}
    1d18:	0002a271 	andeq	sl, r2, r1, ror r2
    1d1c:	6c910200 	lfmvs	f0, 4, [r1], {0}
    1d20:	74657219 	strbtvc	r7, [r5], #-537	@ 0xfffffde7
    1d24:	181e0100 	ldmdane	lr, {r8}
    1d28:	00000113 	andeq	r0, r0, r3, lsl r1
    1d2c:	00779102 	rsbseq	r9, r7, r2, lsl #2
    1d30:	00067500 	andeq	r7, r6, r0, lsl #10
    1d34:	cc000200 	sfmgt	f0, 4, [r0], {-0}
    1d38:	04000005 	streq	r0, [r0], #-5
    1d3c:	00263401 	eoreq	r3, r6, r1, lsl #8
    1d40:	7b120c00 	blvc	484d48 <_Min_Stack_Size+0x484948>
    1d44:	290f0000 	stmdbcs	pc, {}	@ <UNPREDICTABLE>
    1d48:	01880000 	orreq	r0, r8, r0
	...
    1d54:	270c0000 	strcs	r0, [ip, -r0]
    1d58:	1aab0000 	bne	feac1d60 <_estack+0xdeabcd60>
    1d5c:	01020000 	mrseq	r0, (UNDEF: 2)
    1d60:	0004e606 	andeq	lr, r4, r6, lsl #12
    1d64:	0ec50300 	cdpeq	3, 12, cr0, cr5, cr0, {0}
    1d68:	2b020000 	blcs	81d70 <_Min_Stack_Size+0x81970>
    1d6c:	00004018 	andeq	r4, r0, r8, lsl r0
    1d70:	08010200 	stmdaeq	r1, {r9}
    1d74:	000042dc 	ldrdeq	r4, [r0], -ip
    1d78:	fc050202 	stc2	2, cr0, [r5], {2}
    1d7c:	02000005 	andeq	r0, r0, #5
    1d80:	50f60702 	rscspl	r0, r6, r2, lsl #14
    1d84:	04020000 	streq	r0, [r2], #-0
    1d88:	00391a05 	eorseq	r1, r9, r5, lsl #20
    1d8c:	38dc0300 	ldmcc	ip, {r8, r9}^
    1d90:	4f020000 	svcmi	0x00020000
    1d94:	00006819 	andeq	r6, r0, r9, lsl r8
    1d98:	07040200 	streq	r0, [r4, -r0, lsl #4]
    1d9c:	00001614 	andeq	r1, r0, r4, lsl r6
    1da0:	f1050802 			@ <UNDEFINED> instruction: 0xf1050802
    1da4:	0200003b 	andeq	r0, r0, #59	@ 0x3b
    1da8:	5b790708 	blpl	1e439d0 <_Min_Stack_Size+0x1e435d0>
    1dac:	04040000 	streq	r0, [r4], #-0
    1db0:	746e6905 	strbtvc	r6, [lr], #-2309	@ 0xfffff6fb
    1db4:	07040200 	streq	r0, [r4, -r0, lsl #4]
    1db8:	00001bdd 	ldrdeq	r1, [r0], -sp
    1dbc:	000ec703 	andeq	ip, lr, r3, lsl #14
    1dc0:	13180300 	tstne	r8, #0, 6
    1dc4:	00000034 	andeq	r0, r0, r4, lsr r0
    1dc8:	0038de03 	eorseq	sp, r8, r3, lsl #28
    1dcc:	14300300 	ldrtne	r0, [r0], #-768	@ 0xfffffd00
    1dd0:	0000005c 	andeq	r0, r0, ip, asr r0
    1dd4:	00009705 	andeq	r9, r0, r5, lsl #14
    1dd8:	71fd0300 	mvnsvc	r0, r0, lsl #6
    1ddc:	22040000 	andcs	r0, r4, #0
    1de0:	00008b16 	andeq	r8, r0, r6, lsl fp
    1de4:	22840300 	addcs	r0, r4, #0, 6
    1de8:	28040000 	stmdacs	r4, {}	@ <UNPREDICTABLE>
    1dec:	00009717 	andeq	r9, r0, r7, lsl r7
    1df0:	22830300 	addcs	r0, r3, #0, 6
    1df4:	34040000 	strcc	r0, [r4], #-0
    1df8:	0000a320 	andeq	sl, r0, r0, lsr #6
    1dfc:	04040200 	streq	r0, [r4], #-512	@ 0xfffffe00
    1e00:	000068dd 	ldrdeq	r6, [r0], -sp
    1e04:	6d040802 	stcvs	8, cr0, [r4, #-8]
    1e08:	02000049 	andeq	r0, r0, #73	@ 0x49
    1e0c:	49680408 	stmdbmi	r8!, {r3, sl}^
    1e10:	07060000 	streq	r0, [r6, -r0]
    1e14:	00004001 	andeq	r4, r0, r1
    1e18:	01570400 	cmpeq	r7, r0, lsl #8
    1e1c:	0000010e 	andeq	r0, r0, lr, lsl #2
    1e20:	00644607 	rsbeq	r4, r4, r7, lsl #12
    1e24:	da070000 	ble	1c1e2c <_Min_Stack_Size+0x1c1a2c>
    1e28:	0100004e 	tsteq	r0, lr, asr #32
    1e2c:	006a2607 	rsbeq	r2, sl, r7, lsl #12
    1e30:	f4070200 	vst1.8	{d0-d3}, [r7], r0
    1e34:	0300003d 	movweq	r0, #61	@ 0x3d
    1e38:	0031f507 	eorseq	pc, r1, r7, lsl #10
    1e3c:	03000400 	movweq	r0, #1024	@ 0x400
    1e40:	00000302 	andeq	r0, r0, r2, lsl #6
    1e44:	e1025d04 	tst	r2, r4, lsl #26
    1e48:	08000000 	stmdaeq	r0, {}	@ <UNPREDICTABLE>
    1e4c:	09b1051c 	ldmibeq	r1!, {r2, r3, r4, r8, sl}
    1e50:	0000018d 	andeq	r0, r0, sp, lsl #3
    1e54:	4c524309 	mrrcmi	3, 0, r4, r2, cr9
    1e58:	0cb30500 	cfldr32eq	mvfx0, [r3]
    1e5c:	000000c0 	andeq	r0, r0, r0, asr #1
    1e60:	09002302 	stmdbeq	r0, {r1, r8, r9, sp}
    1e64:	00485243 	subeq	r5, r8, r3, asr #4
    1e68:	c00cb405 	andgt	fp, ip, r5, lsl #8
    1e6c:	02000000 	andeq	r0, r0, #0
    1e70:	49090423 	stmdbmi	r9, {r0, r1, r5, sl}
    1e74:	05005244 	streq	r5, [r0, #-580]	@ 0xfffffdbc
    1e78:	00c00cb5 	strheq	r0, [r0], #197	@ 0xc5
    1e7c:	23020000 	movwcs	r0, #8192	@ 0x2000
    1e80:	444f0908 	strbmi	r0, [pc], #-2312	@ 1e88 <_Min_Stack_Size+0x1a88>
    1e84:	b6050052 			@ <UNDEFINED> instruction: 0xb6050052
    1e88:	0000c00c 	andeq	ip, r0, ip
    1e8c:	0c230200 	sfmeq	f0, 4, [r3], #-0
    1e90:	00613f0a 	rsbeq	r3, r1, sl, lsl #30
    1e94:	0cb70500 	cfldr32eq	mvfx0, [r7]
    1e98:	000000c0 	andeq	r0, r0, r0, asr #1
    1e9c:	09102302 	ldmdbeq	r0, {r1, r8, r9, sp}
    1ea0:	00525242 	subseq	r5, r2, r2, asr #4
    1ea4:	c00cb805 	andgt	fp, ip, r5, lsl #16
    1ea8:	02000000 	andeq	r0, r0, #0
    1eac:	110a1423 	tstne	sl, r3, lsr #8
    1eb0:	05000034 	streq	r0, [r0, #-52]	@ 0xffffffcc
    1eb4:	00c00cb9 	strheq	r0, [r0], #201	@ 0xc9
    1eb8:	23020000 	movwcs	r0, #8192	@ 0x2000
    1ebc:	a3030018 	movwge	r0, #12312	@ 0x3018
    1ec0:	05000045 	streq	r0, [r0, #-69]	@ 0xffffffbb
    1ec4:	011a02ba 			@ <UNDEFINED> instruction: 0x011a02ba
    1ec8:	07060000 	streq	r0, [r6, -r0]
    1ecc:	00004001 	andeq	r4, r0, r1
    1ed0:	01200600 			@ <UNDEFINED> instruction: 0x01200600
    1ed4:	00000208 	andeq	r0, r0, r8, lsl #4
    1ed8:	00224c07 	eoreq	r4, r2, r7, lsl #24
    1edc:	57070000 	strpl	r0, [r7, -r0]
    1ee0:	01000022 	tsteq	r0, r2, lsr #32
    1ee4:	00226207 	eoreq	r6, r2, r7, lsl #4
    1ee8:	6d070200 	sfmvs	f0, 4, [r7, #-0]
    1eec:	03000022 	movweq	r0, #34	@ 0x22
    1ef0:	00227807 	eoreq	r7, r2, r7, lsl #16
    1ef4:	c8070400 	stmdagt	r7, {sl}
    1ef8:	05000047 	streq	r0, [r0, #-71]	@ 0xffffffb9
    1efc:	0047e207 	subeq	lr, r7, r7, lsl #4
    1f00:	8b070600 	blhi	1c3708 <_Min_Stack_Size+0x1c3308>
    1f04:	07000022 	streq	r0, [r0, -r2, lsr #32]
    1f08:	00229607 	eoreq	r9, r2, r7, lsl #12
    1f0c:	a1070800 	tstge	r7, r0, lsl #16
    1f10:	09000022 	stmdbeq	r0, {r1, r5}
    1f14:	00511b07 	subseq	r1, r1, r7, lsl #22
    1f18:	c4070a00 	strgt	r0, [r7], #-2560	@ 0xfffff600
    1f1c:	0b00004f 	bleq	2060 <_Min_Stack_Size+0x1c60>
    1f20:	004fd007 	subeq	sp, pc, r7
    1f24:	a2070c00 	andge	r0, r7, #0, 24
    1f28:	0d000051 	stceq	0, cr0, [r0, #-324]	@ 0xfffffebc
    1f2c:	004feb07 	subeq	lr, pc, r7, lsl #22
    1f30:	f7070e00 			@ <UNDEFINED> instruction: 0xf7070e00
    1f34:	0f00004f 	svceq	0x0000004f
    1f38:	54970300 	ldrpl	r0, [r7], #768	@ 0x300
    1f3c:	32060000 	andcc	r0, r6, #0
    1f40:	00019902 	andeq	r9, r1, r2, lsl #18
    1f44:	8d040b00 	vstrhi	d0, [r4, #-0]
    1f48:	06000001 	streq	r0, [r0], -r1
    1f4c:	00400107 	subeq	r0, r0, r7, lsl #2
    1f50:	17070000 	strne	r0, [r7, -r0]
    1f54:	00023b01 	andeq	r3, r2, r1, lsl #22
    1f58:	753f0700 	ldrvc	r0, [pc, #-1792]!	@ 1860 <_Min_Stack_Size+0x1460>
    1f5c:	07000000 	streq	r0, [r0, -r0]
    1f60:	00007536 	andeq	r7, r0, r6, lsr r5
    1f64:	77f00701 	ldrbvc	r0, [r0, r1, lsl #14]!
    1f68:	00020000 	andeq	r0, r2, r0
    1f6c:	0079b103 	rsbseq	fp, r9, r3, lsl #2
    1f70:	021b0700 	andseq	r0, fp, #0, 14
    1f74:	0000021a 	andeq	r0, r0, sl, lsl r2
    1f78:	40010706 	andmi	r0, r1, r6, lsl #14
    1f7c:	07000000 	streq	r0, [r0, -r0]
    1f80:	02740126 	rsbseq	r0, r4, #-2147483639	@ 0x80000009
    1f84:	51070000 	mrspl	r0, (UNDEF: 7)
    1f88:	00000078 	andeq	r0, r0, r8, ror r0
    1f8c:	00786607 	rsbseq	r6, r8, r7, lsl #12
    1f90:	7b070400 	blvc	1c2f98 <_Min_Stack_Size+0x1c2b98>
    1f94:	05000078 	streq	r0, [r0, #-120]	@ 0xffffff88
    1f98:	007a8a07 	rsbseq	r8, sl, r7, lsl #20
    1f9c:	de070600 	cfmadd32le	mvax0, mvfx0, mvfx7, mvfx0
    1fa0:	07000075 	smlsdxeq	r0, r5, r0, r0
    1fa4:	79310300 	ldmdbvc	r1!, {r8, r9}
    1fa8:	2c070000 	stccs	0, cr0, [r7], {-0}
    1fac:	00024702 	andeq	r4, r2, r2, lsl #14
    1fb0:	01070600 	tsteq	r7, r0, lsl #12
    1fb4:	00000040 	andeq	r0, r0, r0, asr #32
    1fb8:	c5013007 	strgt	r3, [r1, #-7]
    1fbc:	07000002 	streq	r0, [r0, -r2]
    1fc0:	000074da 	ldrdeq	r7, [r0], -sl
    1fc4:	74ef0700 	strbtvc	r0, [pc], #1792	@ 1fcc <_Min_Stack_Size+0x1bcc>
    1fc8:	07080000 	streq	r0, [r8, -r0]
    1fcc:	00007504 	andeq	r7, r0, r4, lsl #10
    1fd0:	75190709 	ldrvc	r0, [r9, #-1801]	@ 0xfffff8f7
    1fd4:	070a0000 	streq	r0, [sl, -r0]
    1fd8:	00007721 	andeq	r7, r0, r1, lsr #14
    1fdc:	7803070b 	stmdavc	r3, {r0, r1, r3, r8, r9, sl}
    1fe0:	070c0000 	streq	r0, [ip, -r0]
    1fe4:	00007548 	andeq	r7, r0, r8, asr #10
    1fe8:	74c3070d 	strbvc	r0, [r3], #1805	@ 0x70d
    1fec:	070e0000 	streq	r0, [lr, -r0]
    1ff0:	00007abb 			@ <UNDEFINED> instruction: 0x00007abb
    1ff4:	3703000f 	strcc	r0, [r3, -pc]
    1ff8:	07000077 	smlsdxeq	r0, r7, r0, r0
    1ffc:	0280023a 	addeq	r0, r0, #-1610612733	@ 0xa0000003
    2000:	07060000 	streq	r0, [r6, -r0]
    2004:	00004001 	andeq	r4, r0, r1
    2008:	01550700 	cmpeq	r5, r0, lsl #14
    200c:	00000400 	andeq	r0, r0, r0, lsl #8
    2010:	0078db07 	rsbseq	sp, r8, r7, lsl #22
    2014:	d4070000 	strle	r0, [r7], #-0
    2018:	01000075 	tsteq	r0, r5, ror r0
    201c:	0076d507 	rsbseq	sp, r6, r7, lsl #10
    2020:	9f070200 	svcls	0x00070200
    2024:	0300007a 	movweq	r0, #122	@ 0x7a
    2028:	0074ba07 	rsbseq	fp, r4, r7, lsl #20
    202c:	0f070400 	svceq	0x00070400
    2030:	05000077 	streq	r0, [r0, #-119]	@ 0xffffff89
    2034:	0075ca07 	rsbseq	ip, r5, r7, lsl #20
    2038:	4d070600 	stcmi	6, cr0, [r7, #-0]
    203c:	07000074 	smlsdxeq	r0, r4, r0, r0
    2040:	0077f907 	rsbseq	pc, r7, r7, lsl #18
    2044:	5f070800 	svcpl	0x00070800
    2048:	09000075 	stmdbeq	r0, {r0, r2, r4, r5, r6}
    204c:	00756907 	rsbseq	r6, r5, r7, lsl #18
    2050:	73070a00 	movwvc	r0, #31232	@ 0x7a00
    2054:	0b000075 	bleq	2230 <_Min_Stack_Size+0x1e30>
    2058:	00757d07 	rsbseq	r7, r5, r7, lsl #26
    205c:	87070c00 	strhi	r0, [r7, -r0, lsl #24]
    2060:	0d000075 	stceq	0, cr0, [r0, #-468]	@ 0xfffffe2c
    2064:	00759107 	rsbseq	r9, r5, r7, lsl #2
    2068:	b3070e00 	movwlt	r0, #32256	@ 0x7e00
    206c:	0f000077 	svceq	0x00000077
    2070:	00741807 	rsbseq	r1, r4, r7, lsl #16
    2074:	4f071000 	svcmi	0x00071000
    2078:	11000077 	tstne	r0, r7, ror r0
    207c:	0075ac07 	rsbseq	sl, r5, r7, lsl #24
    2080:	81071200 	mrshi	r1, (UNDEF: 39)
    2084:	13000077 	movwne	r0, #119	@ 0x77
    2088:	00794907 	rsbseq	r4, r9, r7, lsl #18
    208c:	bd071400 	cfstrslt	mvf1, [r7, #-0]
    2090:	15000077 	strne	r0, [r0, #-119]	@ 0xffffff89
    2094:	00778b07 	rsbseq	r8, r7, r7, lsl #22
    2098:	02071600 	andeq	r1, r7, #0, 12
    209c:	17000074 	smlsdxne	r0, r4, r0, r0
    20a0:	00762607 	rsbseq	r2, r6, r7, lsl #12
    20a4:	59071800 	stmdbpl	r7, {fp, ip}
    20a8:	19000077 	stmdbne	r0, {r0, r1, r2, r4, r5, r6}
    20ac:	00776307 	rsbseq	r6, r7, r7, lsl #6
    20b0:	6d071a00 	vstrvs	s2, [r7, #-0]
    20b4:	1b000077 	blne	2298 <_Min_Stack_Size+0x1e98>
    20b8:	00777707 	rsbseq	r7, r7, r7, lsl #14
    20bc:	34071c00 	strcc	r1, [r7], #-3072	@ 0xfffff400
    20c0:	1d000078 	stcne	0, cr0, [r0, #-480]	@ 0xfffffe20
    20c4:	00783e07 	rsbseq	r3, r8, r7, lsl #28
    20c8:	0d071e00 	stceq	14, cr1, [r7, #-0]
    20cc:	1f000074 	svcne	0x00000074
    20d0:	00763107 	rsbseq	r3, r6, r7, lsl #2
    20d4:	3c072000 	stccc	0, cr2, [r7], {-0}
    20d8:	21000076 	tstcs	r0, r6, ror r0
    20dc:	0077a907 	rsbseq	sl, r7, r7, lsl #18
    20e0:	b6072200 	strlt	r2, [r7], -r0, lsl #4
    20e4:	23000075 	movwcs	r0, #117	@ 0x75
    20e8:	0075c007 	rsbseq	ip, r5, r7
    20ec:	55072400 	strpl	r2, [r7, #-1024]	@ 0xfffffc00
    20f0:	25000079 	strcs	r0, [r0, #-121]	@ 0xffffff87
    20f4:	00796107 	rsbseq	r6, r9, r7, lsl #2
    20f8:	0a072600 	beq	1cb900 <_Min_Stack_Size+0x1cb500>
    20fc:	27000076 	smlsdxcs	r0, r6, r0, r0
    2100:	00796d07 	rsbseq	r6, r9, r7, lsl #26
    2104:	1c072800 	stcne	8, cr2, [r7], {-0}
    2108:	2900007a 	stmdbcs	r0, {r1, r3, r4, r5, r6}
    210c:	007a2607 	rsbseq	r2, sl, r7, lsl #12
    2110:	14072a00 	strne	r2, [r7], #-2560	@ 0xfffff600
    2114:	2b000079 	blcs	2300 <_Min_Stack_Size+0x1f00>
    2118:	00781907 	rsbseq	r1, r8, r7, lsl #18
    211c:	a2072c00 	andge	r2, r7, #0, 24
    2120:	2d000078 	stccs	0, cr0, [r0, #-480]	@ 0xfffffe20
    2124:	00799707 	rsbseq	r9, r9, r7, lsl #14
    2128:	e5072e00 	str	r2, [r7, #-3584]	@ 0xfffff200
    212c:	2f000078 	svccs	0x00000078
    2130:	75f40300 	ldrbvc	r0, [r4, #768]!	@ 0x300
    2134:	86070000 	strhi	r0, [r7], -r0
    2138:	0002d102 	andeq	sp, r2, r2, lsl #2
    213c:	01070600 	tsteq	r7, r0, lsl #12
    2140:	00000040 	andeq	r0, r0, r0, asr #32
    2144:	7b011508 	blvc	4756c <_Min_Stack_Size+0x4716c>
    2148:	07000004 	streq	r0, [r0, -r4]
    214c:	00000f77 	andeq	r0, r0, r7, ror pc
    2150:	0f830700 	svceq	0x00830700
    2154:	07010000 	streq	r0, [r1, -r0]
    2158:	00006581 	andeq	r6, r0, r1, lsl #11
    215c:	0fba0702 	svceq	0x00ba0702
    2160:	07030000 	streq	r0, [r3, -r0]
    2164:	00000fc6 	andeq	r0, r0, r6, asr #31
    2168:	0fd20704 	svceq	0x00d20704
    216c:	07050000 	streq	r0, [r5, -r0]
    2170:	00000fde 	ldrdeq	r0, [r0], -lr
    2174:	0fea0706 	svceq	0x00ea0706
    2178:	07070000 	streq	r0, [r7, -r0]
    217c:	00000ff6 	strdeq	r0, [r0], -r6
    2180:	10020708 	andne	r0, r2, r8, lsl #14
    2184:	07090000 	streq	r0, [r9, -r0]
    2188:	00004f96 	muleq	r0, r6, pc	@ <UNPREDICTABLE>
    218c:	63b2070a 			@ <UNDEFINED> instruction: 0x63b2070a
    2190:	070b0000 	streq	r0, [fp, -r0]
    2194:	000063d5 	ldrdeq	r6, [r0], -r5
    2198:	63e7070c 	mvnvs	r0, #12, 14	@ 0x300000
    219c:	070d0000 	streq	r0, [sp, -r0]
    21a0:	0000640f 	andeq	r6, r0, pc, lsl #8
    21a4:	641c070e 	ldrvs	r0, [ip], #-1806	@ 0xfffff8f2
    21a8:	000f0000 	andeq	r0, pc, r0
    21ac:	0041f303 	subeq	pc, r1, r3, lsl #6
    21b0:	02260800 	eoreq	r0, r6, #0, 16
    21b4:	0000040c 	andeq	r0, r0, ip, lsl #8
    21b8:	40010706 	andmi	r0, r1, r6, lsl #14
    21bc:	08000000 	stmdaeq	r0, {}	@ <UNPREDICTABLE>
    21c0:	04a8012a 	strteq	r0, [r8], #298	@ 0x12a
    21c4:	c2070000 	andgt	r0, r7, #0
    21c8:	00000066 	andeq	r0, r0, r6, rrx
    21cc:	00189607 	andseq	r9, r8, r7, lsl #12
    21d0:	c8070100 	stmdagt	r7, {r8}
    21d4:	02000064 	andeq	r0, r0, #100	@ 0x64
    21d8:	1e1f0300 	cdpne	3, 1, cr0, cr15, cr0, {0}
    21dc:	2e080000 	cdpcs	0, 0, cr0, cr8, cr0, {0}
    21e0:	00048702 	andeq	r8, r4, r2, lsl #14
    21e4:	080c0800 	stmdaeq	ip, {fp}
    21e8:	04fa0931 	ldrbteq	r0, [sl], #2353	@ 0x931
    21ec:	8c0a0000 	stchi	0, cr0, [sl], {-0}
    21f0:	0800002d 	stmdaeq	r0, {r0, r2, r3, r5}
    21f4:	047b1933 	ldrbteq	r1, [fp], #-2355	@ 0xfffff6cd
    21f8:	23020000 	movwcs	r0, #8192	@ 0x2000
    21fc:	4b4f0a00 	blmi	13c4a04 <_Min_Stack_Size+0x13c4604>
    2200:	34080000 	strcc	r0, [r8], #-0
    2204:	00021419 	andeq	r1, r2, r9, lsl r4
    2208:	04230200 	strteq	r0, [r3], #-512	@ 0xfffffe00
    220c:	0030500a 	eorseq	r5, r0, sl
    2210:	19350800 	ldmdbne	r5!, {fp}
    2214:	00000208 	andeq	r0, r0, r8, lsl #4
    2218:	0a082302 	beq	20ae28 <_Min_Stack_Size+0x20aa28>
    221c:	00001626 	andeq	r1, r0, r6, lsr #12
    2220:	a80e3608 	stmdage	lr, {r3, r9, sl, ip, sp}
    2224:	02000000 	andeq	r0, r0, #0
    2228:	03000923 	movweq	r0, #2339	@ 0x923
    222c:	000000ff 	strdeq	r0, [r0], -pc	@ <UNPREDICTABLE>
    2230:	b4023708 	strlt	r3, [r2], #-1800	@ 0xfffff8f8
    2234:	08000004 	stmdaeq	r0, {r2}
    2238:	09390814 	ldmdbeq	r9!, {r2, r4, fp}
    223c:	0000054c 	andeq	r0, r0, ip, asr #10
    2240:	004cf50a 	subeq	pc, ip, sl, lsl #10
    2244:	193b0800 	ldmdbne	fp!, {fp}
    2248:	000004fa 	strdeq	r0, [r0], -sl
    224c:	0a002302 	beq	ae5c <_Min_Stack_Size+0xaa5c>
    2250:	00004527 	andeq	r4, r0, r7, lsr #10
    2254:	a8193c08 	ldmdage	r9, {r3, sl, fp, ip, sp}
    2258:	02000004 	andeq	r0, r0, #4
    225c:	720a0c23 	andvc	r0, sl, #8960	@ 0x2300
    2260:	08000029 	stmdaeq	r0, {r0, r3, r5}
    2264:	00a80e3d 	adceq	r0, r8, sp, lsr lr
    2268:	23020000 	movwcs	r0, #8192	@ 0x2000
    226c:	4e270a0d 	vmulmi.f32	s0, s14, s26
    2270:	3e080000 	cdpcc	0, 0, cr0, cr8, cr0, {0}
    2274:	00054e08 	andeq	r4, r5, r8, lsl #28
    2278:	10230200 	eorne	r0, r3, r0, lsl #4
    227c:	0b010c00 	bleq	45284 <_Min_Stack_Size+0x44e84>
    2280:	00054c04 	andeq	r4, r5, r4, lsl #24
    2284:	6c1f0300 	ldcvs	3, cr0, [pc], {-0}
    2288:	3f080000 	svccc	0x00080000
    228c:	00050602 	andeq	r0, r5, r2, lsl #12
    2290:	7b200d00 	blvc	805698 <_Min_Stack_Size+0x805298>
    2294:	0f010000 	svceq	0x00010000
    2298:	0000b408 	andeq	fp, r0, r8, lsl #8
    229c:	03050100 	movweq	r0, #20736	@ 0x5100
    22a0:	20000060 	andcs	r0, r0, r0, rrx
    22a4:	007b0a0d 	rsbseq	r0, fp, sp, lsl #20
    22a8:	08100100 	ldmdaeq	r0, {r8}
    22ac:	000000b4 	strheq	r0, [r0], -r4
    22b0:	64030501 	strvs	r0, [r3], #-1281	@ 0xfffffaff
    22b4:	0d200000 	stceq	0, cr0, [r0, #-0]
    22b8:	00007b2b 	andeq	r7, r0, fp, lsr #22
    22bc:	a8071101 	stmdage	r7, {r0, r8, ip}
    22c0:	01000000 	mrseq	r0, (UNDEF: 0)
    22c4:	00680305 	rsbeq	r0, r8, r5, lsl #6
    22c8:	e70d2000 	str	r2, [sp, -r0]
    22cc:	0100007a 	tsteq	r0, sl, ror r0
    22d0:	007d051b 	rsbseq	r0, sp, fp, lsl r5
    22d4:	05010000 	streq	r0, [r1, #-0]
    22d8:	00000003 	andeq	r0, r0, r3
    22dc:	7aec0d20 	bvc	ffb05764 <_estack+0xdfb00764>
    22e0:	1c010000 	stcne	0, cr0, [r1], {-0}
    22e4:	00007d05 	andeq	r7, r0, r5, lsl #26
    22e8:	03050100 	movweq	r0, #20736	@ 0x5100
    22ec:	20000004 	andcs	r0, r0, r4
    22f0:	007af10d 	rsbseq	pc, sl, sp, lsl #2
    22f4:	051d0100 	ldreq	r0, [sp, #-256]	@ 0xffffff00
    22f8:	0000007d 	andeq	r0, r0, sp, ror r0
    22fc:	6c030501 	cfstr32vs	mvfx0, [r3], {1}
    2300:	0e200000 	cdpeq	0, 2, cr0, cr0, cr0, {0}
    2304:	004b5c01 	subeq	r5, fp, r1, lsl #24
    2308:	18930800 	ldmne	r3, {fp}
    230c:	00010e01 	andeq	r0, r1, r1, lsl #28
    2310:	05eb0100 	strbeq	r0, [fp, #256]!	@ 0x100
    2314:	eb0f0000 	bl	3c231c <_Min_Stack_Size+0x3c1f1c>
    2318:	00000005 	andeq	r0, r0, r5
    231c:	0554040b 	ldrbeq	r0, [r4, #-1035]	@ 0xfffffbf5
    2320:	010e0000 	mrseq	r0, (UNDEF: 14)
    2324:	000079de 	ldrdeq	r7, [r0], -lr
    2328:	0118bc07 	tsteq	r8, r7, lsl #24
    232c:	0000010e 	andeq	r0, r0, lr, lsl #2
    2330:	00060a01 	andeq	r0, r6, r1, lsl #20
    2334:	04000f00 	streq	r0, [r0], #-3840	@ 0xfffff100
    2338:	0e000000 	cdpeq	0, 0, cr0, cr0, cr0, {0}
    233c:	00759b01 	rsbseq	r9, r5, r1, lsl #22
    2340:	18b60700 	ldmne	r6!, {r8, r9, sl}
    2344:	00010e01 	andeq	r0, r1, r1, lsl #28
    2348:	06320100 	ldrteq	r0, [r2], -r0, lsl #2
    234c:	3b0f0000 	blcc	3c2354 <_Min_Stack_Size+0x3c1f54>
    2350:	0f000002 	svceq	0x00000002
    2354:	00000274 	andeq	r0, r0, r4, ror r2
    2358:	0002740f 	andeq	r7, r2, pc, lsl #8
    235c:	02c50f00 	sbceq	r0, r5, #0, 30
    2360:	10000000 	andne	r0, r0, r0
    2364:	007af601 	rsbseq	pc, sl, r1, lsl #12
    2368:	05210100 	streq	r0, [r1, #-256]!	@ 0xffffff00
    236c:	00007d01 	andeq	r7, r0, r1, lsl #26
    2370:	000fb000 	andeq	fp, pc, r0
    2374:	00107408 	andseq	r7, r0, r8, lsl #8
    2378:	000d0008 	andeq	r0, sp, r8
    237c:	06610100 	strbteq	r0, [r1], -r0, lsl #2
    2380:	33110000 	tstcc	r1, #0
    2384:	0100007b 	tsteq	r0, fp, ror r0
    2388:	0554122c 	ldrbeq	r1, [r4, #-556]	@ 0xfffffdd4
    238c:	91020000 	mrsls	r0, (UNDEF: 2)
    2390:	01120064 	tsteq	r2, r4, rrx
    2394:	00007afb 	strdeq	r7, [r0], -fp
    2398:	01061301 	tsteq	r6, r1, lsl #6
    239c:	08000f8c 	stmdaeq	r0, {r2, r3, r7, r8, r9, sl, fp}
    23a0:	08000fb0 	stmdaeq	r0, {r4, r5, r7, r8, r9, sl, fp}
    23a4:	00000d38 	andeq	r0, r0, r8, lsr sp
    23a8:	002c0001 	eoreq	r0, ip, r1
    23ac:	00020000 	andeq	r0, r2, r0
    23b0:	000006e8 	andeq	r0, r0, r8, ror #13
    23b4:	2c6c0104 	stfcse	f0, [ip], #-16
    23b8:	01a00000 	moveq	r0, r0
    23bc:	7b3b0000 	blvc	ec23c4 <_Min_Stack_Size+0xec1fc4>
    23c0:	290f0000 	stmdbcs	pc, {}	@ <UNPREDICTABLE>
    23c4:	7b5e0000 	blvc	17823cc <_Min_Stack_Size+0x1781fcc>
    23c8:	80010000 	andhi	r0, r1, r0
    23cc:	007b6c02 	rsbseq	r6, fp, r2, lsl #24
    23d0:	00107500 	andseq	r7, r0, r0, lsl #10
    23d4:	0010ad08 	andseq	sl, r0, r8, lsl #26
    23d8:	Address 0x23d8 is out of bounds.


Disassembly of section .debug_abbrev:

00000000 <.debug_abbrev>:
   0:	25011101 	strcs	r1, [r1, #-257]	@ 0xfffffeff
   4:	030b130e 	movweq	r1, #45838	@ 0xb30e
   8:	550e1b0e 	strpl	r1, [lr, #-2830]	@ 0xfffff4f2
   c:	52011106 	andpl	r1, r1, #-2147483647	@ 0x80000001
  10:	99061001 	stmdbls	r6, {r0, ip}
  14:	00000642 	andeq	r0, r0, r2, asr #12
  18:	0b002402 	bleq	9028 <_Min_Stack_Size+0x8c28>
  1c:	030b3e0b 	movweq	r3, #48651	@ 0xbe0b
  20:	0300000e 	movweq	r0, #14
  24:	0e030016 	mcreq	0, 0, r0, cr3, cr6, {0}
  28:	0b3b0b3a 	bleq	ec2d18 <_Min_Stack_Size+0xec2918>
  2c:	13490b39 	movtne	r0, #39737	@ 0x9b39
  30:	24040000 	strcs	r0, [r4], #-0
  34:	3e0b0b00 	vmlacc.f64	d0, d11, d0
  38:	0008030b 	andeq	r0, r8, fp, lsl #6
  3c:	00350500 	eorseq	r0, r5, r0, lsl #10
  40:	00001349 	andeq	r1, r0, r9, asr #6
  44:	3e010406 	cdpcc	4, 0, cr0, cr1, cr6, {0}
  48:	490b0b0b 	stmdbmi	fp, {r0, r1, r3, r8, r9, fp}
  4c:	3b0b3a13 	blcc	2ce8a0 <_Min_Stack_Size+0x2ce4a0>
  50:	010b390b 	tsteq	fp, fp, lsl #18
  54:	07000013 	smladeq	r0, r3, r0, r0
  58:	0e030028 	cdpeq	0, 0, cr0, cr3, cr8, {1}
  5c:	00000b1c 	andeq	r0, r0, ip, lsl fp
  60:	0b011308 	bleq	44c88 <_Min_Stack_Size+0x44888>
  64:	3b0b3a0b 	blcc	2ce898 <_Min_Stack_Size+0x2ce498>
  68:	010b390b 	tsteq	fp, fp, lsl #18
  6c:	09000013 	stmdbeq	r0, {r0, r1, r4}
  70:	0803000d 	stmdaeq	r3, {r0, r2, r3}
  74:	0b3b0b3a 	bleq	ec2d64 <_Min_Stack_Size+0xec2964>
  78:	13490b39 	movtne	r0, #39737	@ 0x9b39
  7c:	00000a38 	andeq	r0, r0, r8, lsr sl
  80:	03000d0a 	movweq	r0, #3338	@ 0xd0a
  84:	3b0b3a0e 	blcc	2ce8c4 <_Min_Stack_Size+0x2ce4c4>
  88:	490b390b 	stmdbmi	fp, {r0, r1, r3, r8, fp, ip, sp}
  8c:	000a3813 	andeq	r3, sl, r3, lsl r8
  90:	01010b00 	tsteq	r1, r0, lsl #22
  94:	13011349 	movwne	r1, #4937	@ 0x1349
  98:	210c0000 	mrscs	r0, (UNDEF: 12)
  9c:	2f134900 	svccs	0x00134900
  a0:	0d00000b 	stceq	0, cr0, [r0, #-44]	@ 0xffffffd4
  a4:	0b0b000f 	bleq	2c00e8 <_Min_Stack_Size+0x2bfce8>
  a8:	00001349 	andeq	r1, r0, r9, asr #6
  ac:	2700150e 	strcs	r1, [r0, -lr, lsl #10]
  b0:	0f00000c 	svceq	0x0000000c
  b4:	0e030034 	mcreq	0, 0, r0, cr3, cr4, {1}
  b8:	0b3b0b3a 	bleq	ec2da8 <_Min_Stack_Size+0xec29a8>
  bc:	13490b39 	movtne	r0, #39737	@ 0x9b39
  c0:	00000a02 	andeq	r0, r0, r2, lsl #20
  c4:	3f012e10 	svccc	0x00012e10
  c8:	3a0e030c 	bcc	380d00 <_Min_Stack_Size+0x380900>
  cc:	390b3b0b 	stmdbcc	fp, {r0, r1, r3, r8, r9, fp, ip, sp}
  d0:	490c270b 	stmdbmi	ip, {r0, r1, r3, r8, r9, sl, sp}
  d4:	010c3c13 	tsteq	ip, r3, lsl ip
  d8:	11000013 	tstne	r0, r3, lsl r0
  dc:	13490005 	movtne	r0, #36869	@ 0x9005
  e0:	2e120000 	cdpcs	0, 1, cr0, cr2, cr0, {0}
  e4:	030c3f00 	movweq	r3, #52992	@ 0xcf00
  e8:	3b0b3a0e 	blcc	2ce928 <_Min_Stack_Size+0x2ce528>
  ec:	270b390b 	strcs	r3, [fp, -fp, lsl #18]
  f0:	1201110c 	andne	r1, r1, #12, 2
  f4:	96064001 	strls	r4, [r6], -r1
  f8:	00000c42 	andeq	r0, r0, r2, asr #24
  fc:	3f012e13 	svccc	0x00012e13
 100:	3a0e030c 	bcc	380d38 <_Min_Stack_Size+0x380938>
 104:	390b3b0b 	stmdbcc	fp, {r0, r1, r3, r8, r9, fp, ip, sp}
 108:	490c270b 	stmdbmi	ip, {r0, r1, r3, r8, r9, sl, sp}
 10c:	12011113 	andne	r1, r1, #-1073741820	@ 0xc0000004
 110:	96064001 	strls	r4, [r6], -r1
 114:	13010c42 	movwne	r0, #7234	@ 0x1c42
 118:	34140000 	ldrcc	r0, [r4], #-0
 11c:	3a080300 	bcc	200d24 <_Min_Stack_Size+0x200924>
 120:	390b3b0b 	stmdbcc	fp, {r0, r1, r3, r8, r9, fp, ip, sp}
 124:	0213490b 	andseq	r4, r3, #180224	@ 0x2c000
 128:	1500000a 	strne	r0, [r0, #-10]
 12c:	0e030005 	cdpeq	0, 0, cr0, cr3, cr5, {0}
 130:	0b3b0b3a 	bleq	ec2e20 <_Min_Stack_Size+0xec2a20>
 134:	13490b39 	movtne	r0, #39737	@ 0x9b39
 138:	00000a02 	andeq	r0, r0, r2, lsl #20
 13c:	3f012e16 	svccc	0x00012e16
 140:	3a0e030c 	bcc	380d78 <_Min_Stack_Size+0x380978>
 144:	390b3b0b 	stmdbcc	fp, {r0, r1, r3, r8, r9, fp, ip, sp}
 148:	490c270b 	stmdbmi	ip, {r0, r1, r3, r8, r9, sl, sp}
 14c:	12011113 	andne	r1, r1, #-1073741820	@ 0xc0000004
 150:	97064001 	strls	r4, [r6, -r1]
 154:	13010c42 	movwne	r0, #7234	@ 0x1c42
 158:	2e170000 	cdpcs	0, 1, cr0, cr7, cr0, {0}
 15c:	030c3f01 	movweq	r3, #52993	@ 0xcf01
 160:	3b0b3a0e 	blcc	2ce9a0 <_Min_Stack_Size+0x2ce5a0>
 164:	270b390b 	strcs	r3, [fp, -fp, lsl #18]
 168:	1113490c 	tstne	r3, ip, lsl #18
 16c:	40011201 	andmi	r1, r1, r1, lsl #4
 170:	0c429606 	mcrreq	6, 0, r9, r2, cr6
 174:	0b180000 	bleq	60017c <_Min_Stack_Size+0x5ffd7c>
 178:	12011101 	andne	r1, r1, #1073741824	@ 0x40000000
 17c:	00000001 	andeq	r0, r0, r1
 180:	25011101 	strcs	r1, [r1, #-257]	@ 0xfffffeff
 184:	030b130e 	movweq	r1, #45838	@ 0xb30e
 188:	550e1b0e 	strpl	r1, [lr, #-2830]	@ 0xfffff4f2
 18c:	52011106 	andpl	r1, r1, #-2147483647	@ 0x80000001
 190:	99061001 	stmdbls	r6, {r0, ip}
 194:	00000642 	andeq	r0, r0, r2, asr #12
 198:	0b002402 	bleq	91a8 <_Min_Stack_Size+0x8da8>
 19c:	030b3e0b 	movweq	r3, #48651	@ 0xbe0b
 1a0:	0300000e 	movweq	r0, #14
 1a4:	0e030016 	mcreq	0, 0, r0, cr3, cr6, {0}
 1a8:	0b3b0b3a 	bleq	ec2e98 <_Min_Stack_Size+0xec2a98>
 1ac:	13490b39 	movtne	r0, #39737	@ 0x9b39
 1b0:	24040000 	strcs	r0, [r4], #-0
 1b4:	3e0b0b00 	vmlacc.f64	d0, d11, d0
 1b8:	0008030b 	andeq	r0, r8, fp, lsl #6
 1bc:	00350500 	eorseq	r0, r5, r0, lsl #10
 1c0:	00001349 	andeq	r1, r0, r9, asr #6
 1c4:	3e010406 	cdpcc	4, 0, cr0, cr1, cr6, {0}
 1c8:	490b0b0b 	stmdbmi	fp, {r0, r1, r3, r8, r9, fp}
 1cc:	3b0b3a13 	blcc	2cea20 <_Min_Stack_Size+0x2ce620>
 1d0:	010b390b 	tsteq	fp, fp, lsl #18
 1d4:	07000013 	smladeq	r0, r3, r0, r0
 1d8:	0e030028 	cdpeq	0, 0, cr0, cr3, cr8, {1}
 1dc:	00000b1c 	andeq	r0, r0, ip, lsl fp
 1e0:	0b011308 	bleq	44e08 <_Min_Stack_Size+0x44a08>
 1e4:	3b0b3a0b 	blcc	2cea18 <_Min_Stack_Size+0x2ce618>
 1e8:	010b390b 	tsteq	fp, fp, lsl #18
 1ec:	09000013 	stmdbeq	r0, {r0, r1, r4}
 1f0:	0803000d 	stmdaeq	r3, {r0, r2, r3}
 1f4:	0b3b0b3a 	bleq	ec2ee4 <_Min_Stack_Size+0xec2ae4>
 1f8:	13490b39 	movtne	r0, #39737	@ 0x9b39
 1fc:	00000a38 	andeq	r0, r0, r8, lsr sl
 200:	03000d0a 	movweq	r0, #3338	@ 0xd0a
 204:	3b0b3a0e 	blcc	2cea44 <_Min_Stack_Size+0x2ce644>
 208:	490b390b 	stmdbmi	fp, {r0, r1, r3, r8, fp, ip, sp}
 20c:	000a3813 	andeq	r3, sl, r3, lsl r8
 210:	000f0b00 	andeq	r0, pc, r0, lsl #22
 214:	13490b0b 	movtne	r0, #39691	@ 0x9b0b
 218:	2e0c0000 	cdpcs	0, 0, cr0, cr12, cr0, {0}
 21c:	030c3f01 	movweq	r3, #52993	@ 0xcf01
 220:	3b0b3a0e 	blcc	2cea60 <_Min_Stack_Size+0x2ce660>
 224:	270b3905 	strcs	r3, [fp, -r5, lsl #18]
 228:	1113490c 	tstne	r3, ip, lsl #18
 22c:	40011201 	andmi	r1, r1, r1, lsl #4
 230:	0c429706 	mcrreq	7, 0, r9, r2, cr6
 234:	00001301 	andeq	r1, r0, r1, lsl #6
 238:	0300050d 	movweq	r0, #1293	@ 0x50d
 23c:	3b0b3a0e 	blcc	2cea7c <_Min_Stack_Size+0x2ce67c>
 240:	490b3905 	stmdbmi	fp, {r0, r2, r8, fp, ip, sp}
 244:	000a0213 	andeq	r0, sl, r3, lsl r2
 248:	00340e00 	eorseq	r0, r4, r0, lsl #28
 24c:	0b3a0803 	bleq	e82260 <_Min_Stack_Size+0xe81e60>
 250:	0b39053b 	bleq	e41744 <_Min_Stack_Size+0xe41344>
 254:	0a021349 	beq	84f80 <_Min_Stack_Size+0x84b80>
 258:	0b0f0000 	bleq	3c0260 <_Min_Stack_Size+0x3bfe60>
 25c:	00065501 	andeq	r5, r6, r1, lsl #10
 260:	00341000 	eorseq	r1, r4, r0
 264:	0b3a0e03 	bleq	e83a78 <_Min_Stack_Size+0xe83678>
 268:	0b39053b 	bleq	e4175c <_Min_Stack_Size+0xe4135c>
 26c:	0a021349 	beq	84f98 <_Min_Stack_Size+0x84b98>
 270:	0b110000 	bleq	440278 <_Min_Stack_Size+0x43fe78>
 274:	12011101 	andne	r1, r1, #1073741824	@ 0x40000000
 278:	12000001 	andne	r0, r0, #1
 27c:	0c3f012e 	ldfeqs	f0, [pc], #-184	@ 1cc <_Min_Heap_Size-0x34>
 280:	0b3a0e03 	bleq	e83a94 <_Min_Stack_Size+0xe83694>
 284:	0b390b3b 	bleq	e42f78 <_Min_Stack_Size+0xe42b78>
 288:	13490c27 	movtne	r0, #39975	@ 0x9c27
 28c:	01120111 	tsteq	r2, r1, lsl r1
 290:	42970640 	addsmi	r0, r7, #64, 12	@ 0x4000000
 294:	0013010c 	andseq	r0, r3, ip, lsl #2
 298:	00051300 	andeq	r1, r5, r0, lsl #6
 29c:	0b3a0e03 	bleq	e83ab0 <_Min_Stack_Size+0xe836b0>
 2a0:	0b390b3b 	bleq	e42f94 <_Min_Stack_Size+0xe42b94>
 2a4:	0a021349 	beq	84fd0 <_Min_Stack_Size+0x84bd0>
 2a8:	34140000 	ldrcc	r0, [r4], #-0
 2ac:	3a080300 	bcc	200eb4 <_Min_Stack_Size+0x200ab4>
 2b0:	390b3b0b 	stmdbcc	fp, {r0, r1, r3, r8, r9, fp, ip, sp}
 2b4:	0213490b 	andseq	r4, r3, #180224	@ 0x2c000
 2b8:	1500000a 	strne	r0, [r0, #-10]
 2bc:	0c3f012e 	ldfeqs	f0, [pc], #-184	@ 20c <_Min_Heap_Size+0xc>
 2c0:	0b3a0e03 	bleq	e83ad4 <_Min_Stack_Size+0xe836d4>
 2c4:	0b390b3b 	bleq	e42fb8 <_Min_Stack_Size+0xe42bb8>
 2c8:	13490c27 	movtne	r0, #39975	@ 0x9c27
 2cc:	01120111 	tsteq	r2, r1, lsl r1
 2d0:	42960640 	addsmi	r0, r6, #64, 12	@ 0x4000000
 2d4:	0013010c 	andseq	r0, r3, ip, lsl #2
 2d8:	00341600 	eorseq	r1, r4, r0, lsl #12
 2dc:	0b3a0e03 	bleq	e83af0 <_Min_Stack_Size+0xe836f0>
 2e0:	0b390b3b 	bleq	e42fd4 <_Min_Stack_Size+0xe42bd4>
 2e4:	0a021349 	beq	85010 <_Min_Stack_Size+0x84c10>
 2e8:	01000000 	mrseq	r0, (UNDEF: 0)
 2ec:	0e250111 	mcreq	1, 1, r0, cr5, cr1, {0}
 2f0:	0e030b13 	vmoveq.32	d3[0], r0
 2f4:	06550e1b 			@ <UNDEFINED> instruction: 0x06550e1b
 2f8:	01520111 	cmpeq	r2, r1, lsl r1
 2fc:	42990610 	addsmi	r0, r9, #16, 12	@ 0x1000000
 300:	02000006 	andeq	r0, r0, #6
 304:	0b0b0024 	bleq	2c039c <_Min_Stack_Size+0x2bff9c>
 308:	0e030b3e 	vmoveq.16	d3[0], r0
 30c:	16030000 	strne	r0, [r3], -r0
 310:	3a0e0300 	bcc	380f18 <_Min_Stack_Size+0x380b18>
 314:	390b3b0b 	stmdbcc	fp, {r0, r1, r3, r8, r9, fp, ip, sp}
 318:	0013490b 	andseq	r4, r3, fp, lsl #18
 31c:	00240400 	eoreq	r0, r4, r0, lsl #8
 320:	0b3e0b0b 	bleq	f82f54 <_Min_Stack_Size+0xf82b54>
 324:	00000803 	andeq	r0, r0, r3, lsl #16
 328:	49003505 	stmdbmi	r0, {r0, r2, r8, sl, ip, sp}
 32c:	06000013 			@ <UNDEFINED> instruction: 0x06000013
 330:	0b3e0104 	bleq	f80748 <_Min_Stack_Size+0xf80348>
 334:	13490b0b 	movtne	r0, #39691	@ 0x9b0b
 338:	0b3b0b3a 	bleq	ec3028 <_Min_Stack_Size+0xec2c28>
 33c:	13010b39 	movwne	r0, #6969	@ 0x1b39
 340:	28070000 	stmdacs	r7, {}	@ <UNPREDICTABLE>
 344:	1c0e0300 	stcne	3, cr0, [lr], {-0}
 348:	0800000b 	stmdaeq	r0, {r0, r1, r3}
 34c:	050b0113 	streq	r0, [fp, #-275]	@ 0xfffffeed
 350:	0b3b0b3a 	bleq	ec3040 <_Min_Stack_Size+0xec2c40>
 354:	13010b39 	movwne	r0, #6969	@ 0x1b39
 358:	0d090000 	stceq	0, cr0, [r9, #-0]
 35c:	3a0e0300 	bcc	380f64 <_Min_Stack_Size+0x380b64>
 360:	390b3b0b 	stmdbcc	fp, {r0, r1, r3, r8, r9, fp, ip, sp}
 364:	3813490b 	ldmdacc	r3, {r0, r1, r3, r8, fp, lr}
 368:	0a00000a 	beq	398 <_Min_Heap_Size+0x198>
 36c:	13490101 	movtne	r0, #37121	@ 0x9101
 370:	00001301 	andeq	r1, r0, r1, lsl #6
 374:	4900210b 	stmdbmi	r0, {r0, r1, r3, r8, sp}
 378:	000b2f13 	andeq	r2, fp, r3, lsl pc
 37c:	00210c00 	eoreq	r0, r1, r0, lsl #24
 380:	052f1349 	streq	r1, [pc, #-841]!	@ 3f <_Min_Heap_Size-0x1c1>
 384:	130d0000 	movwne	r0, #53248	@ 0xd000
 388:	3a0b0b01 	bcc	2c2f94 <_Min_Stack_Size+0x2c2b94>
 38c:	390b3b0b 	stmdbcc	fp, {r0, r1, r3, r8, r9, fp, ip, sp}
 390:	0013010b 	andseq	r0, r3, fp, lsl #2
 394:	000d0e00 	andeq	r0, sp, r0, lsl #28
 398:	0b3a0803 	bleq	e823ac <_Min_Stack_Size+0xe81fac>
 39c:	0b390b3b 	bleq	e43090 <_Min_Stack_Size+0xe42c90>
 3a0:	0a381349 	beq	e050cc <_Min_Stack_Size+0xe04ccc>
 3a4:	2e0f0000 	cdpcs	0, 0, cr0, cr15, cr0, {0}
 3a8:	030c3f01 	movweq	r3, #52993	@ 0xcf01
 3ac:	3b0b3a0e 	blcc	2cebec <_Min_Stack_Size+0x2ce7ec>
 3b0:	270b390b 	strcs	r3, [fp, -fp, lsl #18]
 3b4:	1113490c 	tstne	r3, ip, lsl #18
 3b8:	40011201 	andmi	r1, r1, r1, lsl #4
 3bc:	0c429706 	mcrreq	7, 0, r9, r2, cr6
 3c0:	00001301 	andeq	r1, r0, r1, lsl #6
 3c4:	03000510 	movweq	r0, #1296	@ 0x510
 3c8:	3b0b3a0e 	blcc	2cec08 <_Min_Stack_Size+0x2ce808>
 3cc:	490b390b 	stmdbmi	fp, {r0, r1, r3, r8, fp, ip, sp}
 3d0:	000a0213 	andeq	r0, sl, r3, lsl r2
 3d4:	00341100 	eorseq	r1, r4, r0, lsl #2
 3d8:	0b3a0803 	bleq	e823ec <_Min_Stack_Size+0xe81fec>
 3dc:	0b390b3b 	bleq	e430d0 <_Min_Stack_Size+0xe42cd0>
 3e0:	0a021349 	beq	8510c <_Min_Stack_Size+0x84d0c>
 3e4:	0b120000 	bleq	4803ec <_Min_Stack_Size+0x47ffec>
 3e8:	12011101 	andne	r1, r1, #1073741824	@ 0x40000000
 3ec:	13000001 	movwne	r0, #1
 3f0:	0e030034 	mcreq	0, 0, r0, cr3, cr4, {1}
 3f4:	0b3b0b3a 	bleq	ec30e4 <_Min_Stack_Size+0xec2ce4>
 3f8:	13490b39 	movtne	r0, #39737	@ 0x9b39
 3fc:	00000a02 	andeq	r0, r0, r2, lsl #20
 400:	0b000f14 	bleq	4058 <_Min_Stack_Size+0x3c58>
 404:	0013490b 	andseq	r4, r3, fp, lsl #18
 408:	012e1500 			@ <UNDEFINED> instruction: 0x012e1500
 40c:	0e030c3f 	mcreq	12, 0, r0, cr3, cr15, {1}
 410:	0b3b0b3a 	bleq	ec3100 <_Min_Stack_Size+0xec2d00>
 414:	0c270b39 			@ <UNDEFINED> instruction: 0x0c270b39
 418:	01111349 	tsteq	r1, r9, asr #6
 41c:	06400112 			@ <UNDEFINED> instruction: 0x06400112
 420:	000c4297 	muleq	ip, r7, r2
 424:	11010000 	mrsne	r0, (UNDEF: 1)
 428:	130e2501 	movwne	r2, #58625	@ 0xe501
 42c:	1b0e030b 	blne	381060 <_Min_Stack_Size+0x380c60>
 430:	1106550e 	tstne	r6, lr, lsl #10
 434:	10015201 	andne	r5, r1, r1, lsl #4
 438:	06429906 	strbeq	r9, [r2], -r6, lsl #18
 43c:	24020000 	strcs	r0, [r2], #-0
 440:	3e0b0b00 	vmlacc.f64	d0, d11, d0
 444:	000e030b 	andeq	r0, lr, fp, lsl #6
 448:	00160300 	andseq	r0, r6, r0, lsl #6
 44c:	0b3a0e03 	bleq	e83c60 <_Min_Stack_Size+0xe83860>
 450:	0b390b3b 	bleq	e43144 <_Min_Stack_Size+0xe42d44>
 454:	00001349 	andeq	r1, r0, r9, asr #6
 458:	0b002404 	bleq	9470 <_Min_Stack_Size+0x9070>
 45c:	030b3e0b 	movweq	r3, #48651	@ 0xbe0b
 460:	05000008 	streq	r0, [r0, #-8]
 464:	13490035 	movtne	r0, #36917	@ 0x9035
 468:	26060000 	strcs	r0, [r6], -r0
 46c:	00134900 	andseq	r4, r3, r0, lsl #18
 470:	01040700 	tsteq	r4, r0, lsl #14
 474:	0b0b0b3e 	bleq	2c3174 <_Min_Stack_Size+0x2c2d74>
 478:	0b3a1349 	bleq	e851a4 <_Min_Stack_Size+0xe84da4>
 47c:	0b390b3b 	bleq	e43170 <_Min_Stack_Size+0xe42d70>
 480:	00001301 	andeq	r1, r0, r1, lsl #6
 484:	03002808 	movweq	r2, #2056	@ 0x808
 488:	000b1c0e 	andeq	r1, fp, lr, lsl #24
 48c:	01130900 	tsteq	r3, r0, lsl #18
 490:	0b3a0b0b 	bleq	e830c4 <_Min_Stack_Size+0xe82cc4>
 494:	0b390b3b 	bleq	e43188 <_Min_Stack_Size+0xe42d88>
 498:	00001301 	andeq	r1, r0, r1, lsl #6
 49c:	03000d0a 	movweq	r0, #3338	@ 0xd0a
 4a0:	3b0b3a08 	blcc	2cecc8 <_Min_Stack_Size+0x2ce8c8>
 4a4:	490b390b 	stmdbmi	fp, {r0, r1, r3, r8, fp, ip, sp}
 4a8:	000a3813 	andeq	r3, sl, r3, lsl r8
 4ac:	000d0b00 	andeq	r0, sp, r0, lsl #22
 4b0:	0b3a0e03 	bleq	e83cc4 <_Min_Stack_Size+0xe838c4>
 4b4:	0b390b3b 	bleq	e431a8 <_Min_Stack_Size+0xe42da8>
 4b8:	0a381349 	beq	e051e4 <_Min_Stack_Size+0xe04de4>
 4bc:	010c0000 	mrseq	r0, (UNDEF: 12)
 4c0:	01134901 	tsteq	r3, r1, lsl #18
 4c4:	0d000013 	stceq	0, cr0, [r0, #-76]	@ 0xffffffb4
 4c8:	13490021 	movtne	r0, #36897	@ 0x9021
 4cc:	00000b2f 	andeq	r0, r0, pc, lsr #22
 4d0:	0300340e 	movweq	r3, #1038	@ 0x40e
 4d4:	3b0b3a0e 	blcc	2ced14 <_Min_Stack_Size+0x2ce914>
 4d8:	490b390b 	stmdbmi	fp, {r0, r1, r3, r8, fp, ip, sp}
 4dc:	020c3f13 	andeq	r3, ip, #19, 30	@ 0x4c
 4e0:	0f00000a 	svceq	0x0000000a
 4e4:	0c3f012e 	ldfeqs	f0, [pc], #-184	@ 434 <_Min_Stack_Size+0x34>
 4e8:	0b3a0e03 	bleq	e83cfc <_Min_Stack_Size+0xe838fc>
 4ec:	0b39053b 	bleq	e419e0 <_Min_Stack_Size+0xe415e0>
 4f0:	13490c27 	movtne	r0, #39975	@ 0x9c27
 4f4:	01120111 	tsteq	r2, r1, lsl r1
 4f8:	42960640 	addsmi	r0, r6, #64, 12	@ 0x4000000
 4fc:	0013010c 	andseq	r0, r3, ip, lsl #2
 500:	00051000 	andeq	r1, r5, r0
 504:	0b3a0e03 	bleq	e83d18 <_Min_Stack_Size+0xe83918>
 508:	0b39053b 	bleq	e419fc <_Min_Stack_Size+0xe415fc>
 50c:	0a021349 	beq	85238 <_Min_Stack_Size+0x84e38>
 510:	34110000 	ldrcc	r0, [r1], #-0
 514:	3a080300 	bcc	20111c <_Min_Stack_Size+0x200d1c>
 518:	39053b0b 	stmdbcc	r5, {r0, r1, r3, r8, r9, fp, ip, sp}
 51c:	0213490b 	andseq	r4, r3, #180224	@ 0x2c000
 520:	1200000a 	andne	r0, r0, #10
 524:	0111010b 	tsteq	r1, fp, lsl #2
 528:	00000112 	andeq	r0, r0, r2, lsl r1
 52c:	03003413 	movweq	r3, #1043	@ 0x413
 530:	3b0b3a0e 	blcc	2ced70 <_Min_Stack_Size+0x2ce970>
 534:	490b3905 	stmdbmi	fp, {r0, r2, r8, fp, ip, sp}
 538:	000a0213 	andeq	r0, sl, r3, lsl r2
 53c:	000f1400 	andeq	r1, pc, r0, lsl #8
 540:	13490b0b 	movtne	r0, #39691	@ 0x9b0b
 544:	2e150000 	cdpcs	0, 1, cr0, cr5, cr0, {0}
 548:	030c3f01 	movweq	r3, #52993	@ 0xcf01
 54c:	3b0b3a0e 	blcc	2ced8c <_Min_Stack_Size+0x2ce98c>
 550:	270b3905 	strcs	r3, [fp, -r5, lsl #18]
 554:	1113490c 	tstne	r3, ip, lsl #18
 558:	40011201 	andmi	r1, r1, r1, lsl #4
 55c:	0c429706 	mcrreq	7, 0, r9, r2, cr6
 560:	00001301 	andeq	r1, r0, r1, lsl #6
 564:	11010b16 	tstne	r1, r6, lsl fp
 568:	01011201 	tsteq	r1, r1, lsl #4
 56c:	17000013 	smladne	r0, r3, r0, r0
 570:	0c3f012e 	ldfeqs	f0, [pc], #-184	@ 4c0 <_Min_Stack_Size+0xc0>
 574:	0b3a0e03 	bleq	e83d88 <_Min_Stack_Size+0xe83988>
 578:	0b390b3b 	bleq	e4326c <_Min_Stack_Size+0xe42e6c>
 57c:	13490c27 	movtne	r0, #39975	@ 0x9c27
 580:	01120111 	tsteq	r2, r1, lsl r1
 584:	42970640 	addsmi	r0, r7, #64, 12	@ 0x4000000
 588:	0013010c 	andseq	r0, r3, ip, lsl #2
 58c:	00051800 	andeq	r1, r5, r0, lsl #16
 590:	0b3a0e03 	bleq	e83da4 <_Min_Stack_Size+0xe839a4>
 594:	0b390b3b 	bleq	e43288 <_Min_Stack_Size+0xe42e88>
 598:	0a021349 	beq	852c4 <_Min_Stack_Size+0x84ec4>
 59c:	34190000 	ldrcc	r0, [r9], #-0
 5a0:	3a080300 	bcc	2011a8 <_Min_Stack_Size+0x200da8>
 5a4:	390b3b0b 	stmdbcc	fp, {r0, r1, r3, r8, r9, fp, ip, sp}
 5a8:	0213490b 	andseq	r4, r3, #180224	@ 0x2c000
 5ac:	1a00000a 	bne	5dc <_Min_Stack_Size+0x1dc>
 5b0:	0c3f012e 	ldfeqs	f0, [pc], #-184	@ 500 <_Min_Stack_Size+0x100>
 5b4:	0b3a0e03 	bleq	e83dc8 <_Min_Stack_Size+0xe839c8>
 5b8:	0b390b3b 	bleq	e432ac <_Min_Stack_Size+0xe42eac>
 5bc:	13490c27 	movtne	r0, #39975	@ 0x9c27
 5c0:	01120111 	tsteq	r2, r1, lsl r1
 5c4:	42970640 	addsmi	r0, r7, #64, 12	@ 0x4000000
 5c8:	0000000c 	andeq	r0, r0, ip
 5cc:	25011101 	strcs	r1, [r1, #-257]	@ 0xfffffeff
 5d0:	030b130e 	movweq	r1, #45838	@ 0xb30e
 5d4:	550e1b0e 	strpl	r1, [lr, #-2830]	@ 0xfffff4f2
 5d8:	52011106 	andpl	r1, r1, #-2147483647	@ 0x80000001
 5dc:	99061001 	stmdbls	r6, {r0, ip}
 5e0:	00000642 	andeq	r0, r0, r2, asr #12
 5e4:	0b002402 	bleq	95f4 <_Min_Stack_Size+0x91f4>
 5e8:	030b3e0b 	movweq	r3, #48651	@ 0xbe0b
 5ec:	0300000e 	movweq	r0, #14
 5f0:	0e030016 	mcreq	0, 0, r0, cr3, cr6, {0}
 5f4:	0b3b0b3a 	bleq	ec32e4 <_Min_Stack_Size+0xec2ee4>
 5f8:	13490b39 	movtne	r0, #39737	@ 0x9b39
 5fc:	24040000 	strcs	r0, [r4], #-0
 600:	3e0b0b00 	vmlacc.f64	d0, d11, d0
 604:	0008030b 	andeq	r0, r8, fp, lsl #6
 608:	00350500 	eorseq	r0, r5, r0, lsl #10
 60c:	00001349 	andeq	r1, r0, r9, asr #6
 610:	3e010406 	cdpcc	4, 0, cr0, cr1, cr6, {0}
 614:	490b0b0b 	stmdbmi	fp, {r0, r1, r3, r8, r9, fp}
 618:	3b0b3a13 	blcc	2cee6c <_Min_Stack_Size+0x2cea6c>
 61c:	010b390b 	tsteq	fp, fp, lsl #18
 620:	07000013 	smladeq	r0, r3, r0, r0
 624:	0e030028 	cdpeq	0, 0, cr0, cr3, cr8, {1}
 628:	00000b1c 	andeq	r0, r0, ip, lsl fp
 62c:	0b011308 	bleq	45254 <_Min_Stack_Size+0x44e54>
 630:	3b0b3a0b 	blcc	2cee64 <_Min_Stack_Size+0x2cea64>
 634:	010b390b 	tsteq	fp, fp, lsl #18
 638:	09000013 	stmdbeq	r0, {r0, r1, r4}
 63c:	0803000d 	stmdaeq	r3, {r0, r2, r3}
 640:	0b3b0b3a 	bleq	ec3330 <_Min_Stack_Size+0xec2f30>
 644:	13490b39 	movtne	r0, #39737	@ 0x9b39
 648:	00000a38 	andeq	r0, r0, r8, lsr sl
 64c:	03000d0a 	movweq	r0, #3338	@ 0xd0a
 650:	3b0b3a0e 	blcc	2cee90 <_Min_Stack_Size+0x2cea90>
 654:	490b390b 	stmdbmi	fp, {r0, r1, r3, r8, fp, ip, sp}
 658:	000a3813 	andeq	r3, sl, r3, lsl r8
 65c:	000f0b00 	andeq	r0, pc, r0, lsl #22
 660:	13490b0b 	movtne	r0, #39691	@ 0x9b0b
 664:	150c0000 	strne	r0, [ip, #-0]
 668:	000c2700 	andeq	r2, ip, r0, lsl #14
 66c:	00340d00 	eorseq	r0, r4, r0, lsl #26
 670:	0b3a0e03 	bleq	e83e84 <_Min_Stack_Size+0xe83a84>
 674:	0b390b3b 	bleq	e43368 <_Min_Stack_Size+0xe42f68>
 678:	0c3f1349 	ldceq	3, cr1, [pc], #-292	@ 55c <_Min_Stack_Size+0x15c>
 67c:	00000a02 	andeq	r0, r0, r2, lsl #20
 680:	3f012e0e 	svccc	0x00012e0e
 684:	3a0e030c 	bcc	3812bc <_Min_Stack_Size+0x380ebc>
 688:	390b3b0b 	stmdbcc	fp, {r0, r1, r3, r8, r9, fp, ip, sp}
 68c:	490c270b 	stmdbmi	ip, {r0, r1, r3, r8, r9, sl, sp}
 690:	010c3c13 	tsteq	ip, r3, lsl ip
 694:	0f000013 	svceq	0x00000013
 698:	13490005 	movtne	r0, #36869	@ 0x9005
 69c:	2e100000 	cdpcs	0, 1, cr0, cr0, cr0, {0}
 6a0:	030c3f01 	movweq	r3, #52993	@ 0xcf01
 6a4:	3b0b3a0e 	blcc	2ceee4 <_Min_Stack_Size+0x2ceae4>
 6a8:	270b390b 	strcs	r3, [fp, -fp, lsl #18]
 6ac:	1113490c 	tstne	r3, ip, lsl #18
 6b0:	40011201 	andmi	r1, r1, r1, lsl #4
 6b4:	0c429606 	mcrreq	6, 0, r9, r2, cr6
 6b8:	00001301 	andeq	r1, r0, r1, lsl #6
 6bc:	03003411 	movweq	r3, #1041	@ 0x411
 6c0:	3b0b3a0e 	blcc	2cef00 <_Min_Stack_Size+0x2ceb00>
 6c4:	490b390b 	stmdbmi	fp, {r0, r1, r3, r8, fp, ip, sp}
 6c8:	000a0213 	andeq	r0, sl, r3, lsl r2
 6cc:	002e1200 	eoreq	r1, lr, r0, lsl #4
 6d0:	0e030c3f 	mcreq	12, 0, r0, cr3, cr15, {1}
 6d4:	0b3b0b3a 	bleq	ec33c4 <_Min_Stack_Size+0xec2fc4>
 6d8:	0c270b39 			@ <UNDEFINED> instruction: 0x0c270b39
 6dc:	01120111 	tsteq	r2, r1, lsl r1
 6e0:	42970640 	addsmi	r0, r7, #64, 12	@ 0x4000000
 6e4:	0000000c 	andeq	r0, r0, ip
 6e8:	10011101 	andne	r1, r1, r1, lsl #2
 6ec:	03065506 	movweq	r5, #25862	@ 0x6506
 6f0:	250e1b0e 	strcs	r1, [lr, #-2830]	@ 0xfffff4f2
 6f4:	0005130e 	andeq	r1, r5, lr, lsl #6
 6f8:	002e0200 	eoreq	r0, lr, r0, lsl #4
 6fc:	01110e03 	tsteq	r1, r3, lsl #28
 700:	00000112 	andeq	r0, r0, r2, lsl r1
	...

Disassembly of section .debug_loc:

00000000 <.debug_loc>:
   0:	0800056c 	stmdaeq	r0, {r2, r3, r5, r6, r8, sl}
   4:	0800056e 	stmdaeq	r0, {r1, r2, r3, r5, r6, r8, sl}
   8:	007d0002 	rsbseq	r0, sp, r2
   c:	0800056e 	stmdaeq	r0, {r1, r2, r3, r5, r6, r8, sl}
  10:	08000570 	stmdaeq	r0, {r4, r5, r6, r8, sl}
  14:	087d0002 	ldmdaeq	sp!, {r1}^
  18:	08000570 	stmdaeq	r0, {r4, r5, r6, r8, sl}
  1c:	08000630 	stmdaeq	r0, {r4, r5, r9, sl}
  20:	08770002 	ldmdaeq	r7!, {r1}^
	...
  2c:	080004c4 	stmdaeq	r0, {r2, r6, r7, sl}
  30:	080004c6 	stmdaeq	r0, {r1, r2, r6, r7, sl}
  34:	007d0002 	rsbseq	r0, sp, r2
  38:	080004c6 	stmdaeq	r0, {r1, r2, r6, r7, sl}
  3c:	080004c8 	stmdaeq	r0, {r3, r6, r7, sl}
  40:	087d0002 	ldmdaeq	sp!, {r1}^
  44:	080004c8 	stmdaeq	r0, {r3, r6, r7, sl}
  48:	0800056c 	stmdaeq	r0, {r2, r3, r5, r6, r8, sl}
  4c:	08770002 	ldmdaeq	r7!, {r1}^
	...
  58:	080004a0 	stmdaeq	r0, {r5, r7, sl}
  5c:	080004a2 	stmdaeq	r0, {r1, r5, r7, sl}
  60:	007d0002 	rsbseq	r0, sp, r2
  64:	080004a2 	stmdaeq	r0, {r1, r5, r7, sl}
  68:	080004a4 	stmdaeq	r0, {r2, r5, r7, sl}
  6c:	087d0002 	ldmdaeq	sp!, {r1}^
  70:	080004a4 	stmdaeq	r0, {r2, r5, r7, sl}
  74:	080004c4 	stmdaeq	r0, {r2, r6, r7, sl}
  78:	08770002 	ldmdaeq	r7!, {r1}^
	...
  84:	0800047c 	stmdaeq	r0, {r2, r3, r4, r5, r6, sl}
  88:	0800047e 	stmdaeq	r0, {r1, r2, r3, r4, r5, r6, sl}
  8c:	007d0002 	rsbseq	r0, sp, r2
  90:	0800047e 	stmdaeq	r0, {r1, r2, r3, r4, r5, r6, sl}
  94:	08000480 	stmdaeq	r0, {r7, sl}
  98:	087d0002 	ldmdaeq	sp!, {r1}^
  9c:	08000480 	stmdaeq	r0, {r7, sl}
  a0:	080004a0 	stmdaeq	r0, {r5, r7, sl}
  a4:	08770002 	ldmdaeq	r7!, {r1}^
	...
  b0:	08000458 	stmdaeq	r0, {r3, r4, r6, sl}
  b4:	0800045a 	stmdaeq	r0, {r1, r3, r4, r6, sl}
  b8:	007d0002 	rsbseq	r0, sp, r2
  bc:	0800045a 	stmdaeq	r0, {r1, r3, r4, r6, sl}
  c0:	0800045c 	stmdaeq	r0, {r2, r3, r4, r6, sl}
  c4:	087d0002 	ldmdaeq	sp!, {r1}^
  c8:	0800045c 	stmdaeq	r0, {r2, r3, r4, r6, sl}
  cc:	0800047c 	stmdaeq	r0, {r2, r3, r4, r5, r6, sl}
  d0:	08770002 	ldmdaeq	r7!, {r1}^
	...
  dc:	08000434 	stmdaeq	r0, {r2, r4, r5, sl}
  e0:	08000436 	stmdaeq	r0, {r1, r2, r4, r5, sl}
  e4:	007d0002 	rsbseq	r0, sp, r2
  e8:	08000436 	stmdaeq	r0, {r1, r2, r4, r5, sl}
  ec:	08000438 	stmdaeq	r0, {r3, r4, r5, sl}
  f0:	087d0002 	ldmdaeq	sp!, {r1}^
  f4:	08000438 	stmdaeq	r0, {r3, r4, r5, sl}
  f8:	08000458 	stmdaeq	r0, {r3, r4, r6, sl}
  fc:	08770002 	ldmdaeq	r7!, {r1}^
	...
 108:	08000410 	stmdaeq	r0, {r4, sl}
 10c:	08000412 	stmdaeq	r0, {r1, r4, sl}
 110:	007d0002 	rsbseq	r0, sp, r2
 114:	08000412 	stmdaeq	r0, {r1, r4, sl}
 118:	08000414 	stmdaeq	r0, {r2, r4, sl}
 11c:	087d0002 	ldmdaeq	sp!, {r1}^
 120:	08000414 	stmdaeq	r0, {r2, r4, sl}
 124:	08000434 	stmdaeq	r0, {r2, r4, r5, sl}
 128:	08770002 	ldmdaeq	r7!, {r1}^
	...
 13c:	007d0002 	rsbseq	r0, sp, r2
	...
 148:	087d0002 	ldmdaeq	sp!, {r1}^
	...
 154:	107d0002 	rsbsne	r0, sp, r2
	...
 160:	10770002 	rsbsne	r0, r7, r2
	...
 16c:	08770002 	ldmdaeq	r7!, {r1}^
	...
 178:	087d0002 	ldmdaeq	sp!, {r1}^
	...
 184:	080003c4 	stmdaeq	r0, {r2, r6, r7, r8, r9}
 188:	080003c6 	stmdaeq	r0, {r1, r2, r6, r7, r8, r9}
 18c:	007d0002 	rsbseq	r0, sp, r2
 190:	080003c6 	stmdaeq	r0, {r1, r2, r6, r7, r8, r9}
 194:	080003c8 	stmdaeq	r0, {r3, r6, r7, r8, r9}
 198:	087d0002 	ldmdaeq	sp!, {r1}^
 19c:	080003c8 	stmdaeq	r0, {r3, r6, r7, r8, r9}
 1a0:	080003ca 	stmdaeq	r0, {r1, r3, r6, r7, r8, r9}
 1a4:	187d0002 	ldmdane	sp!, {r1}^
 1a8:	080003ca 	stmdaeq	r0, {r1, r3, r6, r7, r8, r9}
 1ac:	08000406 	stmdaeq	r0, {r1, r2, sl}
 1b0:	18770002 	ldmdane	r7!, {r1}^
 1b4:	08000406 	stmdaeq	r0, {r1, r2, sl}
 1b8:	08000408 	stmdaeq	r0, {r3, sl}
 1bc:	08770002 	ldmdaeq	r7!, {r1}^
 1c0:	08000408 	stmdaeq	r0, {r3, sl}
 1c4:	08000410 	stmdaeq	r0, {r4, sl}
 1c8:	087d0002 	ldmdaeq	sp!, {r1}^
	...
 1d4:	08000378 	stmdaeq	r0, {r3, r4, r5, r6, r8, r9}
 1d8:	0800037a 	stmdaeq	r0, {r1, r3, r4, r5, r6, r8, r9}
 1dc:	007d0002 	rsbseq	r0, sp, r2
 1e0:	0800037a 	stmdaeq	r0, {r1, r3, r4, r5, r6, r8, r9}
 1e4:	0800037c 	stmdaeq	r0, {r2, r3, r4, r5, r6, r8, r9}
 1e8:	087d0002 	ldmdaeq	sp!, {r1}^
 1ec:	0800037c 	stmdaeq	r0, {r2, r3, r4, r5, r6, r8, r9}
 1f0:	0800037e 	stmdaeq	r0, {r1, r2, r3, r4, r5, r6, r8, r9}
 1f4:	187d0002 	ldmdane	sp!, {r1}^
 1f8:	0800037e 	stmdaeq	r0, {r1, r2, r3, r4, r5, r6, r8, r9}
 1fc:	080003bc 	stmdaeq	r0, {r2, r3, r4, r5, r7, r8, r9}
 200:	18770002 	ldmdane	r7!, {r1}^
 204:	080003bc 	stmdaeq	r0, {r2, r3, r4, r5, r7, r8, r9}
 208:	080003be 	stmdaeq	r0, {r1, r2, r3, r4, r5, r7, r8, r9}
 20c:	08770002 	ldmdaeq	r7!, {r1}^
 210:	080003be 	stmdaeq	r0, {r1, r2, r3, r4, r5, r7, r8, r9}
 214:	080003c4 	stmdaeq	r0, {r2, r6, r7, r8, r9}
 218:	087d0002 	ldmdaeq	sp!, {r1}^
	...
 22c:	007d0002 	rsbseq	r0, sp, r2
	...
 238:	047d0002 	ldrbteq	r0, [sp], #-2
	...
 244:	187d0002 	ldmdane	sp!, {r1}^
	...
 250:	18770002 	ldmdane	r7!, {r1}^
	...
 25c:	04770002 	ldrbteq	r0, [r7], #-2
	...
 268:	047d0002 	ldrbteq	r0, [sp], #-2
	...
 274:	007d0002 	rsbseq	r0, sp, r2
	...
 280:	0800034c 	stmdaeq	r0, {r2, r3, r6, r8, r9}
 284:	0800034e 	stmdaeq	r0, {r1, r2, r3, r6, r8, r9}
 288:	007d0002 	rsbseq	r0, sp, r2
 28c:	0800034e 	stmdaeq	r0, {r1, r2, r3, r6, r8, r9}
 290:	08000350 	stmdaeq	r0, {r4, r6, r8, r9}
 294:	087d0002 	ldmdaeq	sp!, {r1}^
 298:	08000350 	stmdaeq	r0, {r4, r6, r8, r9}
 29c:	08000352 	stmdaeq	r0, {r1, r4, r6, r8, r9}
 2a0:	187d0002 	ldmdane	sp!, {r1}^
 2a4:	08000352 	stmdaeq	r0, {r1, r4, r6, r8, r9}
 2a8:	08000374 	stmdaeq	r0, {r2, r4, r5, r6, r8, r9}
 2ac:	18770002 	ldmdane	r7!, {r1}^
 2b0:	08000374 	stmdaeq	r0, {r2, r4, r5, r6, r8, r9}
 2b4:	08000376 	stmdaeq	r0, {r1, r2, r4, r5, r6, r8, r9}
 2b8:	08770002 	ldmdaeq	r7!, {r1}^
 2bc:	08000376 	stmdaeq	r0, {r1, r2, r4, r5, r6, r8, r9}
 2c0:	08000378 	stmdaeq	r0, {r3, r4, r5, r6, r8, r9}
 2c4:	087d0002 	ldmdaeq	sp!, {r1}^
	...
 2d0:	08000170 	stmdaeq	r0, {r4, r5, r6, r8}
 2d4:	08000172 	stmdaeq	r0, {r1, r4, r5, r6, r8}
 2d8:	007d0002 	rsbseq	r0, sp, r2
 2dc:	08000172 	stmdaeq	r0, {r1, r4, r5, r6, r8}
 2e0:	08000174 	stmdaeq	r0, {r2, r4, r5, r6, r8}
 2e4:	087d0002 	ldmdaeq	sp!, {r1}^
 2e8:	08000174 	stmdaeq	r0, {r2, r4, r5, r6, r8}
 2ec:	08000176 	stmdaeq	r0, {r1, r2, r4, r5, r6, r8}
 2f0:	207d0002 	rsbscs	r0, sp, r2
 2f4:	08000176 	stmdaeq	r0, {r1, r2, r4, r5, r6, r8}
 2f8:	0800032c 	stmdaeq	r0, {r2, r3, r5, r8, r9}
 2fc:	20770002 	rsbscs	r0, r7, r2
 300:	0800032c 	stmdaeq	r0, {r2, r3, r5, r8, r9}
 304:	0800032e 	stmdaeq	r0, {r1, r2, r3, r5, r8, r9}
 308:	08770002 	ldmdaeq	r7!, {r1}^
 30c:	0800032e 	stmdaeq	r0, {r1, r2, r3, r5, r8, r9}
 310:	0800034c 	stmdaeq	r0, {r2, r3, r6, r8, r9}
 314:	087d0002 	ldmdaeq	sp!, {r1}^
	...
 328:	007d0002 	rsbseq	r0, sp, r2
	...
 334:	047d0002 	ldrbteq	r0, [sp], #-2
	...
 340:	187d0002 	ldmdane	sp!, {r1}^
	...
 34c:	18770002 	ldmdane	r7!, {r1}^
	...
 358:	04770002 	ldrbteq	r0, [r7], #-2
	...
 364:	047d0002 	ldrbteq	r0, [sp], #-2
	...
 370:	007d0002 	rsbseq	r0, sp, r2
	...
 384:	007d0002 	rsbseq	r0, sp, r2
	...
 390:	047d0002 	ldrbteq	r0, [sp], #-2
	...
 39c:	187d0002 	ldmdane	sp!, {r1}^
	...
 3a8:	18770002 	ldmdane	r7!, {r1}^
	...
 3b4:	04770002 	ldrbteq	r0, [r7], #-2
	...
 3c0:	047d0002 	ldrbteq	r0, [sp], #-2
	...
 3cc:	007d0002 	rsbseq	r0, sp, r2
	...
 3e0:	007d0002 	rsbseq	r0, sp, r2
	...
 3ec:	047d0002 	ldrbteq	r0, [sp], #-2
	...
 3f8:	187d0002 	ldmdane	sp!, {r1}^
	...
 404:	18770002 	ldmdane	r7!, {r1}^
	...
 410:	04770002 	ldrbteq	r0, [r7], #-2
	...
 41c:	047d0002 	ldrbteq	r0, [sp], #-2
	...
 428:	007d0002 	rsbseq	r0, sp, r2
	...
 43c:	007d0002 	rsbseq	r0, sp, r2
	...
 448:	047d0002 	ldrbteq	r0, [sp], #-2
	...
 454:	187d0002 	ldmdane	sp!, {r1}^
	...
 460:	18770002 	ldmdane	r7!, {r1}^
	...
 46c:	04770002 	ldrbteq	r0, [r7], #-2
	...
 478:	047d0002 	ldrbteq	r0, [sp], #-2
	...
 484:	007d0002 	rsbseq	r0, sp, r2
	...
 498:	007d0002 	rsbseq	r0, sp, r2
	...
 4a4:	047d0002 	ldrbteq	r0, [sp], #-2
	...
 4b0:	187d0002 	ldmdane	sp!, {r1}^
	...
 4bc:	18770002 	ldmdane	r7!, {r1}^
	...
 4c8:	04770002 	ldrbteq	r0, [r7], #-2
	...
 4d4:	047d0002 	ldrbteq	r0, [sp], #-2
	...
 4e0:	007d0002 	rsbseq	r0, sp, r2
	...
 4f4:	007d0002 	rsbseq	r0, sp, r2
	...
 500:	047d0002 	ldrbteq	r0, [sp], #-2
	...
 50c:	207d0002 	rsbscs	r0, sp, r2
	...
 518:	20770002 	rsbscs	r0, r7, r2
	...
 524:	04770002 	ldrbteq	r0, [r7], #-2
	...
 530:	047d0002 	ldrbteq	r0, [sp], #-2
	...
 53c:	007d0002 	rsbseq	r0, sp, r2
	...
 550:	007d0002 	rsbseq	r0, sp, r2
	...
 55c:	047d0002 	ldrbteq	r0, [sp], #-2
	...
 568:	187d0002 	ldmdane	sp!, {r1}^
	...
 574:	18770002 	ldmdane	r7!, {r1}^
	...
 580:	04770002 	ldrbteq	r0, [r7], #-2
	...
 58c:	047d0002 	ldrbteq	r0, [sp], #-2
	...
 598:	007d0002 	rsbseq	r0, sp, r2
	...
 5ac:	007d0002 	rsbseq	r0, sp, r2
	...
 5b8:	047d0002 	ldrbteq	r0, [sp], #-2
	...
 5c4:	187d0002 	ldmdane	sp!, {r1}^
	...
 5d0:	18770002 	ldmdane	r7!, {r1}^
	...
 5dc:	04770002 	ldrbteq	r0, [r7], #-2
	...
 5e8:	047d0002 	ldrbteq	r0, [sp], #-2
	...
 5f4:	007d0002 	rsbseq	r0, sp, r2
	...
 600:	080008bc 	stmdaeq	r0, {r2, r3, r4, r5, r7, fp}
 604:	080008be 	stmdaeq	r0, {r1, r2, r3, r4, r5, r7, fp}
 608:	007d0002 	rsbseq	r0, sp, r2
 60c:	080008be 	stmdaeq	r0, {r1, r2, r3, r4, r5, r7, fp}
 610:	080008c0 	stmdaeq	r0, {r6, r7, fp}
 614:	047d0002 	ldrbteq	r0, [sp], #-2
 618:	080008c0 	stmdaeq	r0, {r6, r7, fp}
 61c:	080008c2 	stmdaeq	r0, {r1, r6, r7, fp}
 620:	187d0002 	ldmdane	sp!, {r1}^
 624:	080008c2 	stmdaeq	r0, {r1, r6, r7, fp}
 628:	08000936 	stmdaeq	r0, {r1, r2, r4, r5, r8, fp}
 62c:	18770002 	ldmdane	r7!, {r1}^
 630:	08000936 	stmdaeq	r0, {r1, r2, r4, r5, r8, fp}
 634:	08000938 	stmdaeq	r0, {r3, r4, r5, r8, fp}
 638:	04770002 	ldrbteq	r0, [r7], #-2
 63c:	08000938 	stmdaeq	r0, {r3, r4, r5, r8, fp}
 640:	0800093a 	stmdaeq	r0, {r1, r3, r4, r5, r8, fp}
 644:	047d0002 	ldrbteq	r0, [sp], #-2
 648:	0800093a 	stmdaeq	r0, {r1, r3, r4, r5, r8, fp}
 64c:	0800093c 	stmdaeq	r0, {r2, r3, r4, r5, r8, fp}
 650:	007d0002 	rsbseq	r0, sp, r2
	...
 664:	007d0002 	rsbseq	r0, sp, r2
	...
 670:	047d0002 	ldrbteq	r0, [sp], #-2
	...
 67c:	207d0002 	rsbscs	r0, sp, r2
	...
 688:	20770002 	rsbscs	r0, r7, r2
	...
 694:	04770002 	ldrbteq	r0, [r7], #-2
	...
 6a0:	047d0002 	ldrbteq	r0, [sp], #-2
	...
 6ac:	007d0002 	rsbseq	r0, sp, r2
	...
 6b8:	0800070c 	stmdaeq	r0, {r2, r3, r8, r9, sl}
 6bc:	0800070e 	stmdaeq	r0, {r1, r2, r3, r8, r9, sl}
 6c0:	007d0002 	rsbseq	r0, sp, r2
 6c4:	0800070e 	stmdaeq	r0, {r1, r2, r3, r8, r9, sl}
 6c8:	08000710 	stmdaeq	r0, {r4, r8, r9, sl}
 6cc:	087d0002 	ldmdaeq	sp!, {r1}^
 6d0:	08000710 	stmdaeq	r0, {r4, r8, r9, sl}
 6d4:	08000712 	stmdaeq	r0, {r1, r4, r8, r9, sl}
 6d8:	207d0002 	rsbscs	r0, sp, r2
 6dc:	08000712 	stmdaeq	r0, {r1, r4, r8, r9, sl}
 6e0:	080008b8 	stmdaeq	r0, {r3, r4, r5, r7, fp}
 6e4:	20770002 	rsbscs	r0, r7, r2
 6e8:	080008b8 	stmdaeq	r0, {r3, r4, r5, r7, fp}
 6ec:	080008ba 	stmdaeq	r0, {r1, r3, r4, r5, r7, fp}
 6f0:	08770002 	ldmdaeq	r7!, {r1}^
 6f4:	080008ba 	stmdaeq	r0, {r1, r3, r4, r5, r7, fp}
 6f8:	080008bc 	stmdaeq	r0, {r2, r3, r4, r5, r7, fp}
 6fc:	087d0002 	ldmdaeq	sp!, {r1}^
	...
 708:	08000630 	stmdaeq	r0, {r4, r5, r9, sl}
 70c:	08000632 	stmdaeq	r0, {r1, r4, r5, r9, sl}
 710:	007d0002 	rsbseq	r0, sp, r2
 714:	08000632 	stmdaeq	r0, {r1, r4, r5, r9, sl}
 718:	08000634 	stmdaeq	r0, {r2, r4, r5, r9, sl}
 71c:	047d0002 	ldrbteq	r0, [sp], #-2
 720:	08000634 	stmdaeq	r0, {r2, r4, r5, r9, sl}
 724:	08000636 	stmdaeq	r0, {r1, r2, r4, r5, r9, sl}
 728:	187d0002 	ldmdane	sp!, {r1}^
 72c:	08000636 	stmdaeq	r0, {r1, r2, r4, r5, r9, sl}
 730:	08000704 	stmdaeq	r0, {r2, r8, r9, sl}
 734:	18770002 	ldmdane	r7!, {r1}^
 738:	08000704 	stmdaeq	r0, {r2, r8, r9, sl}
 73c:	08000706 	stmdaeq	r0, {r1, r2, r8, r9, sl}
 740:	04770002 	ldrbteq	r0, [r7], #-2
 744:	08000706 	stmdaeq	r0, {r1, r2, r8, r9, sl}
 748:	08000708 	stmdaeq	r0, {r3, r8, r9, sl}
 74c:	047d0002 	ldrbteq	r0, [sp], #-2
 750:	08000708 	stmdaeq	r0, {r3, r8, r9, sl}
 754:	0800070a 	stmdaeq	r0, {r1, r3, r8, r9, sl}
 758:	007d0002 	rsbseq	r0, sp, r2
	...
 76c:	007d0002 	rsbseq	r0, sp, r2
	...
 778:	047d0002 	ldrbteq	r0, [sp], #-2
	...
 784:	187d0002 	ldmdane	sp!, {r1}^
	...
 790:	18770002 	ldmdane	r7!, {r1}^
	...
 79c:	04770002 	ldrbteq	r0, [r7], #-2
	...
 7a8:	047d0002 	ldrbteq	r0, [sp], #-2
	...
 7b4:	007d0002 	rsbseq	r0, sp, r2
	...
 7c8:	007d0002 	rsbseq	r0, sp, r2
	...
 7d4:	087d0002 	ldmdaeq	sp!, {r1}^
	...
 7e0:	187d0002 	ldmdane	sp!, {r1}^
	...
 7ec:	18770002 	ldmdane	r7!, {r1}^
	...
 7f8:	08770002 	ldmdaeq	r7!, {r1}^
	...
 804:	087d0002 	ldmdaeq	sp!, {r1}^
	...
 810:	007d0002 	rsbseq	r0, sp, r2
	...
 824:	007d0002 	rsbseq	r0, sp, r2
	...
 830:	047d0002 	ldrbteq	r0, [sp], #-2
	...
 83c:	187d0002 	ldmdane	sp!, {r1}^
	...
 848:	18770002 	ldmdane	r7!, {r1}^
	...
 854:	04770002 	ldrbteq	r0, [r7], #-2
	...
 860:	047d0002 	ldrbteq	r0, [sp], #-2
	...
 86c:	007d0002 	rsbseq	r0, sp, r2
	...
 880:	007d0002 	rsbseq	r0, sp, r2
	...
 88c:	047d0002 	ldrbteq	r0, [sp], #-2
	...
 898:	187d0002 	ldmdane	sp!, {r1}^
	...
 8a4:	18770002 	ldmdane	r7!, {r1}^
	...
 8b0:	04770002 	ldrbteq	r0, [r7], #-2
	...
 8bc:	047d0002 	ldrbteq	r0, [sp], #-2
	...
 8c8:	007d0002 	rsbseq	r0, sp, r2
	...
 8dc:	007d0002 	rsbseq	r0, sp, r2
	...
 8e8:	047d0002 	ldrbteq	r0, [sp], #-2
	...
 8f4:	187d0002 	ldmdane	sp!, {r1}^
	...
 900:	18770002 	ldmdane	r7!, {r1}^
	...
 90c:	04770002 	ldrbteq	r0, [r7], #-2
	...
 918:	047d0002 	ldrbteq	r0, [sp], #-2
	...
 924:	007d0002 	rsbseq	r0, sp, r2
	...
 938:	007d0002 	rsbseq	r0, sp, r2
	...
 944:	047d0002 	ldrbteq	r0, [sp], #-2
	...
 950:	187d0002 	ldmdane	sp!, {r1}^
	...
 95c:	18770002 	ldmdane	r7!, {r1}^
	...
 968:	04770002 	ldrbteq	r0, [r7], #-2
	...
 974:	047d0002 	ldrbteq	r0, [sp], #-2
	...
 980:	007d0002 	rsbseq	r0, sp, r2
	...
 98c:	08000984 	stmdaeq	r0, {r2, r7, r8, fp}
 990:	08000986 	stmdaeq	r0, {r1, r2, r7, r8, fp}
 994:	007d0002 	rsbseq	r0, sp, r2
 998:	08000986 	stmdaeq	r0, {r1, r2, r7, r8, fp}
 99c:	08000988 	stmdaeq	r0, {r3, r7, r8, fp}
 9a0:	047d0002 	ldrbteq	r0, [sp], #-2
 9a4:	08000988 	stmdaeq	r0, {r3, r7, r8, fp}
 9a8:	0800098a 	stmdaeq	r0, {r1, r3, r7, r8, fp}
 9ac:	187d0002 	ldmdane	sp!, {r1}^
 9b0:	0800098a 	stmdaeq	r0, {r1, r3, r7, r8, fp}
 9b4:	080009c4 	stmdaeq	r0, {r2, r6, r7, r8, fp}
 9b8:	18770002 	ldmdane	r7!, {r1}^
 9bc:	080009c4 	stmdaeq	r0, {r2, r6, r7, r8, fp}
 9c0:	080009c6 	stmdaeq	r0, {r1, r2, r6, r7, r8, fp}
 9c4:	04770002 	ldrbteq	r0, [r7], #-2
 9c8:	080009c6 	stmdaeq	r0, {r1, r2, r6, r7, r8, fp}
 9cc:	080009c8 	stmdaeq	r0, {r3, r6, r7, r8, fp}
 9d0:	047d0002 	ldrbteq	r0, [sp], #-2
 9d4:	080009c8 	stmdaeq	r0, {r3, r6, r7, r8, fp}
 9d8:	080009d0 	stmdaeq	r0, {r4, r6, r7, r8, fp}
 9dc:	007d0002 	rsbseq	r0, sp, r2
	...
 9e8:	0800093c 	stmdaeq	r0, {r2, r3, r4, r5, r8, fp}
 9ec:	0800093e 	stmdaeq	r0, {r1, r2, r3, r4, r5, r8, fp}
 9f0:	007d0002 	rsbseq	r0, sp, r2
 9f4:	0800093e 	stmdaeq	r0, {r1, r2, r3, r4, r5, r8, fp}
 9f8:	08000940 	stmdaeq	r0, {r6, r8, fp}
 9fc:	047d0002 	ldrbteq	r0, [sp], #-2
 a00:	08000940 	stmdaeq	r0, {r6, r8, fp}
 a04:	08000942 	stmdaeq	r0, {r1, r6, r8, fp}
 a08:	187d0002 	ldmdane	sp!, {r1}^
 a0c:	08000942 	stmdaeq	r0, {r1, r6, r8, fp}
 a10:	0800097a 	stmdaeq	r0, {r1, r3, r4, r5, r6, r8, fp}
 a14:	18770002 	ldmdane	r7!, {r1}^
 a18:	0800097a 	stmdaeq	r0, {r1, r3, r4, r5, r6, r8, fp}
 a1c:	0800097c 	stmdaeq	r0, {r2, r3, r4, r5, r6, r8, fp}
 a20:	04770002 	ldrbteq	r0, [r7], #-2
 a24:	0800097c 	stmdaeq	r0, {r2, r3, r4, r5, r6, r8, fp}
 a28:	0800097e 	stmdaeq	r0, {r1, r2, r3, r4, r5, r6, r8, fp}
 a2c:	047d0002 	ldrbteq	r0, [sp], #-2
 a30:	0800097e 	stmdaeq	r0, {r1, r2, r3, r4, r5, r6, r8, fp}
 a34:	08000984 	stmdaeq	r0, {r2, r7, r8, fp}
 a38:	007d0002 	rsbseq	r0, sp, r2
	...
 a4c:	007d0002 	rsbseq	r0, sp, r2
	...
 a58:	087d0002 	ldmdaeq	sp!, {r1}^
	...
 a64:	187d0002 	ldmdane	sp!, {r1}^
	...
 a70:	18770002 	ldmdane	r7!, {r1}^
	...
 a7c:	08770002 	ldmdaeq	r7!, {r1}^
	...
 a88:	087d0002 	ldmdaeq	sp!, {r1}^
	...
 a9c:	007d0002 	rsbseq	r0, sp, r2
	...
 aa8:	087d0002 	ldmdaeq	sp!, {r1}^
	...
 ab4:	187d0002 	ldmdane	sp!, {r1}^
	...
 ac0:	18770002 	ldmdane	r7!, {r1}^
	...
 acc:	08770002 	ldmdaeq	r7!, {r1}^
	...
 ad8:	087d0002 	ldmdaeq	sp!, {r1}^
	...
 aec:	007d0002 	rsbseq	r0, sp, r2
	...
 af8:	087d0002 	ldmdaeq	sp!, {r1}^
	...
 b04:	187d0002 	ldmdane	sp!, {r1}^
	...
 b10:	18770002 	ldmdane	r7!, {r1}^
	...
 b1c:	08770002 	ldmdaeq	r7!, {r1}^
	...
 b28:	087d0002 	ldmdaeq	sp!, {r1}^
	...
 b3c:	007d0002 	rsbseq	r0, sp, r2
	...
 b48:	047d0002 	ldrbteq	r0, [sp], #-2
	...
 b54:	187d0002 	ldmdane	sp!, {r1}^
	...
 b60:	18770002 	ldmdane	r7!, {r1}^
	...
 b6c:	04770002 	ldrbteq	r0, [r7], #-2
	...
 b78:	047d0002 	ldrbteq	r0, [sp], #-2
	...
 b84:	007d0002 	rsbseq	r0, sp, r2
	...
 b98:	007d0002 	rsbseq	r0, sp, r2
	...
 ba4:	047d0002 	ldrbteq	r0, [sp], #-2
	...
 bb0:	187d0002 	ldmdane	sp!, {r1}^
	...
 bbc:	18770002 	ldmdane	r7!, {r1}^
	...
 bc8:	04770002 	ldrbteq	r0, [r7], #-2
	...
 bd4:	047d0002 	ldrbteq	r0, [sp], #-2
	...
 be0:	007d0002 	rsbseq	r0, sp, r2
	...
 bec:	08000b28 	stmdaeq	r0, {r3, r5, r8, r9, fp}
 bf0:	08000b2a 	stmdaeq	r0, {r1, r3, r5, r8, r9, fp}
 bf4:	007d0002 	rsbseq	r0, sp, r2
 bf8:	08000b2a 	stmdaeq	r0, {r1, r3, r5, r8, r9, fp}
 bfc:	08000b2c 	stmdaeq	r0, {r2, r3, r5, r8, r9, fp}
 c00:	047d0002 	ldrbteq	r0, [sp], #-2
 c04:	08000b2c 	stmdaeq	r0, {r2, r3, r5, r8, r9, fp}
 c08:	08000b2e 	stmdaeq	r0, {r1, r2, r3, r5, r8, r9, fp}
 c0c:	187d0002 	ldmdane	sp!, {r1}^
 c10:	08000b2e 	stmdaeq	r0, {r1, r2, r3, r5, r8, r9, fp}
 c14:	08000f80 	stmdaeq	r0, {r7, r8, r9, sl, fp}
 c18:	18770002 	ldmdane	r7!, {r1}^
 c1c:	08000f80 	stmdaeq	r0, {r7, r8, r9, sl, fp}
 c20:	08000f82 	stmdaeq	r0, {r1, r7, r8, r9, sl, fp}
 c24:	04770002 	ldrbteq	r0, [r7], #-2
 c28:	08000f82 	stmdaeq	r0, {r1, r7, r8, r9, sl, fp}
 c2c:	08000f84 	stmdaeq	r0, {r2, r7, r8, r9, sl, fp}
 c30:	047d0002 	ldrbteq	r0, [sp], #-2
 c34:	08000f84 	stmdaeq	r0, {r2, r7, r8, r9, sl, fp}
 c38:	08000f8c 	stmdaeq	r0, {r2, r3, r7, r8, r9, sl, fp}
 c3c:	007d0002 	rsbseq	r0, sp, r2
	...
 c50:	007d0002 	rsbseq	r0, sp, r2
	...
 c5c:	087d0002 	ldmdaeq	sp!, {r1}^
	...
 c68:	187d0002 	ldmdane	sp!, {r1}^
	...
 c74:	18770002 	ldmdane	r7!, {r1}^
	...
 c80:	08770002 	ldmdaeq	r7!, {r1}^
	...
 c8c:	087d0002 	ldmdaeq	sp!, {r1}^
	...
 c98:	007d0002 	rsbseq	r0, sp, r2
	...
 ca4:	080009d0 	stmdaeq	r0, {r4, r6, r7, r8, fp}
 ca8:	080009d2 	stmdaeq	r0, {r1, r4, r6, r7, r8, fp}
 cac:	007d0002 	rsbseq	r0, sp, r2
 cb0:	080009d2 	stmdaeq	r0, {r1, r4, r6, r7, r8, fp}
 cb4:	080009d4 	stmdaeq	r0, {r2, r4, r6, r7, r8, fp}
 cb8:	087d0002 	ldmdaeq	sp!, {r1}^
 cbc:	080009d4 	stmdaeq	r0, {r2, r4, r6, r7, r8, fp}
 cc0:	080009d6 	stmdaeq	r0, {r1, r2, r4, r6, r7, r8, fp}
 cc4:	187d0002 	ldmdane	sp!, {r1}^
 cc8:	080009d6 	stmdaeq	r0, {r1, r2, r4, r6, r7, r8, fp}
 ccc:	08000b1e 	stmdaeq	r0, {r1, r2, r3, r4, r8, r9, fp}
 cd0:	18770002 	ldmdane	r7!, {r1}^
 cd4:	08000b1e 	stmdaeq	r0, {r1, r2, r3, r4, r8, r9, fp}
 cd8:	08000b20 	stmdaeq	r0, {r5, r8, r9, fp}
 cdc:	08770002 	ldmdaeq	r7!, {r1}^
 ce0:	08000b20 	stmdaeq	r0, {r5, r8, r9, fp}
 ce4:	08000b22 	stmdaeq	r0, {r1, r5, r8, r9, fp}
 ce8:	087d0002 	ldmdaeq	sp!, {r1}^
 cec:	08000b22 	stmdaeq	r0, {r1, r5, r8, r9, fp}
 cf0:	08000b28 	stmdaeq	r0, {r3, r5, r8, r9, fp}
 cf4:	007d0002 	rsbseq	r0, sp, r2
	...
 d00:	08000fb0 	stmdaeq	r0, {r4, r5, r7, r8, r9, sl, fp}
 d04:	08000fb2 	stmdaeq	r0, {r1, r4, r5, r7, r8, r9, sl, fp}
 d08:	007d0002 	rsbseq	r0, sp, r2
 d0c:	08000fb2 	stmdaeq	r0, {r1, r4, r5, r7, r8, r9, sl, fp}
 d10:	08000fb4 	stmdaeq	r0, {r2, r4, r5, r7, r8, r9, sl, fp}
 d14:	087d0002 	ldmdaeq	sp!, {r1}^
 d18:	08000fb4 	stmdaeq	r0, {r2, r4, r5, r7, r8, r9, sl, fp}
 d1c:	08000fb6 	stmdaeq	r0, {r1, r2, r4, r5, r7, r8, r9, sl, fp}
 d20:	287d0002 	ldmdacs	sp!, {r1}^
 d24:	08000fb6 	stmdaeq	r0, {r1, r2, r4, r5, r7, r8, r9, sl, fp}
 d28:	08001074 	stmdaeq	r0, {r2, r4, r5, r6, ip}
 d2c:	28770002 	ldmdacs	r7!, {r1}^
	...
 d38:	08000f8c 	stmdaeq	r0, {r2, r3, r7, r8, r9, sl, fp}
 d3c:	08000f8e 	stmdaeq	r0, {r1, r2, r3, r7, r8, r9, sl, fp}
 d40:	007d0002 	rsbseq	r0, sp, r2
 d44:	08000f8e 	stmdaeq	r0, {r1, r2, r3, r7, r8, r9, sl, fp}
 d48:	08000f90 	stmdaeq	r0, {r4, r7, r8, r9, sl, fp}
 d4c:	047d0002 	ldrbteq	r0, [sp], #-2
 d50:	08000f90 	stmdaeq	r0, {r4, r7, r8, r9, sl, fp}
 d54:	08000fa2 	stmdaeq	r0, {r1, r5, r7, r8, r9, sl, fp}
 d58:	04770002 	ldrbteq	r0, [r7], #-2
 d5c:	08000fa2 	stmdaeq	r0, {r1, r5, r7, r8, r9, sl, fp}
 d60:	08000fa4 	stmdaeq	r0, {r2, r5, r7, r8, r9, sl, fp}
 d64:	047d0002 	ldrbteq	r0, [sp], #-2
 d68:	08000fa4 	stmdaeq	r0, {r2, r5, r7, r8, r9, sl, fp}
 d6c:	08000fb0 	stmdaeq	r0, {r4, r5, r7, r8, r9, sl, fp}
 d70:	007d0002 	rsbseq	r0, sp, r2
	...

Disassembly of section .debug_aranges:

00000000 <.debug_aranges>:
   0:	0000007c 	andeq	r0, r0, ip, ror r0
   4:	00000002 	andeq	r0, r0, r2
   8:	00040000 	andeq	r0, r4, r0
   c:	00000000 	andeq	r0, r0, r0
  10:	08000170 	stmdaeq	r0, {r4, r5, r6, r8}
  14:	000001dc 	ldrdeq	r0, [r0], -ip
  18:	0800034c 	stmdaeq	r0, {r2, r3, r6, r8, r9}
  1c:	0000002c 	andeq	r0, r0, ip, lsr #32
  20:	00000000 	andeq	r0, r0, r0
  24:	00000044 	andeq	r0, r0, r4, asr #32
  28:	08000378 	stmdaeq	r0, {r3, r4, r5, r6, r8, r9}
  2c:	0000004c 	andeq	r0, r0, ip, asr #32
  30:	080003c4 	stmdaeq	r0, {r2, r6, r7, r8, r9}
  34:	0000004c 	andeq	r0, r0, ip, asr #32
  38:	00000000 	andeq	r0, r0, r0
  3c:	00000068 	andeq	r0, r0, r8, rrx
  40:	08000410 	stmdaeq	r0, {r4, sl}
  44:	00000024 	andeq	r0, r0, r4, lsr #32
  48:	08000434 	stmdaeq	r0, {r2, r4, r5, sl}
  4c:	00000024 	andeq	r0, r0, r4, lsr #32
  50:	08000458 	stmdaeq	r0, {r3, r4, r6, sl}
  54:	00000024 	andeq	r0, r0, r4, lsr #32
  58:	0800047c 	stmdaeq	r0, {r2, r3, r4, r5, r6, sl}
  5c:	00000024 	andeq	r0, r0, r4, lsr #32
  60:	080004a0 	stmdaeq	r0, {r5, r7, sl}
  64:	00000024 	andeq	r0, r0, r4, lsr #32
  68:	080004c4 	stmdaeq	r0, {r2, r6, r7, sl}
  6c:	000000a8 	andeq	r0, r0, r8, lsr #1
  70:	0800056c 	stmdaeq	r0, {r2, r3, r5, r6, r8, sl}
  74:	000000c4 	andeq	r0, r0, r4, asr #1
	...
  80:	00000074 	andeq	r0, r0, r4, ror r0
  84:	08000002 	stmdaeq	r0, {r1}
  88:	00040000 	andeq	r0, r4, r0
  8c:	00000000 	andeq	r0, r0, r0
  90:	08000630 	stmdaeq	r0, {r4, r5, r9, sl}
  94:	000000da 	ldrdeq	r0, [r0], -sl
  98:	0800070c 	stmdaeq	r0, {r2, r3, r8, r9, sl}
  9c:	000001b0 			@ <UNDEFINED> instruction: 0x000001b0
  a0:	00000000 	andeq	r0, r0, r0
  a4:	00000056 	andeq	r0, r0, r6, asr r0
  a8:	080008bc 	stmdaeq	r0, {r2, r3, r4, r5, r7, fp}
  ac:	00000080 	andeq	r0, r0, r0, lsl #1
  b0:	00000000 	andeq	r0, r0, r0
  b4:	0000004a 	andeq	r0, r0, sl, asr #32
  b8:	00000000 	andeq	r0, r0, r0
  bc:	000000a0 	andeq	r0, r0, r0, lsr #1
  c0:	00000000 	andeq	r0, r0, r0
  c4:	00000076 	andeq	r0, r0, r6, ror r0
  c8:	00000000 	andeq	r0, r0, r0
  cc:	0000003a 	andeq	r0, r0, sl, lsr r0
  d0:	00000000 	andeq	r0, r0, r0
  d4:	00000032 	andeq	r0, r0, r2, lsr r0
  d8:	00000000 	andeq	r0, r0, r0
  dc:	00000022 	andeq	r0, r0, r2, lsr #32
  e0:	00000000 	andeq	r0, r0, r0
  e4:	0000003c 	andeq	r0, r0, ip, lsr r0
  e8:	00000000 	andeq	r0, r0, r0
  ec:	0000003c 	andeq	r0, r0, ip, lsr r0
	...
  f8:	00000054 	andeq	r0, r0, r4, asr r0
  fc:	0fbe0002 	svceq	0x00be0002
 100:	00040000 	andeq	r0, r4, r0
 104:	00000000 	andeq	r0, r0, r0
 108:	0800093c 	stmdaeq	r0, {r2, r3, r4, r5, r8, fp}
 10c:	00000048 	andeq	r0, r0, r8, asr #32
 110:	08000984 	stmdaeq	r0, {r2, r7, r8, fp}
 114:	0000004c 	andeq	r0, r0, ip, asr #32
 118:	00000000 	andeq	r0, r0, r0
 11c:	00000060 	andeq	r0, r0, r0, rrx
 120:	00000000 	andeq	r0, r0, r0
 124:	0000004c 	andeq	r0, r0, ip, asr #32
 128:	00000000 	andeq	r0, r0, r0
 12c:	0000004c 	andeq	r0, r0, ip, asr #32
 130:	00000000 	andeq	r0, r0, r0
 134:	00000060 	andeq	r0, r0, r0, rrx
 138:	00000000 	andeq	r0, r0, r0
 13c:	000000c8 	andeq	r0, r0, r8, asr #1
 140:	00000000 	andeq	r0, r0, r0
 144:	00000048 	andeq	r0, r0, r8, asr #32
	...
 150:	00000054 	andeq	r0, r0, r4, asr r0
 154:	15950002 	ldrne	r0, [r5, #2]
 158:	00040000 	andeq	r0, r4, r0
 15c:	00000000 	andeq	r0, r0, r0
 160:	080009d0 	stmdaeq	r0, {r4, r6, r7, r8, fp}
 164:	00000158 	andeq	r0, r0, r8, asr r1
 168:	00000000 	andeq	r0, r0, r0
 16c:	00000248 	andeq	r0, r0, r8, asr #4
 170:	08000b28 	stmdaeq	r0, {r3, r5, r8, r9, fp}
 174:	00000464 	andeq	r0, r0, r4, ror #8
 178:	00000000 	andeq	r0, r0, r0
 17c:	000003d8 	ldrdeq	r0, [r0], -r8
 180:	00000000 	andeq	r0, r0, r0
 184:	000000c8 	andeq	r0, r0, r8, asr #1
 188:	00000000 	andeq	r0, r0, r0
 18c:	00000050 	andeq	r0, r0, r0, asr r0
 190:	00000000 	andeq	r0, r0, r0
 194:	00000050 	andeq	r0, r0, r0, asr r0
 198:	00000000 	andeq	r0, r0, r0
 19c:	00000050 	andeq	r0, r0, r0, asr r0
	...
 1a8:	00000024 	andeq	r0, r0, r4, lsr #32
 1ac:	1d310002 	ldcne	0, cr0, [r1, #-8]!
 1b0:	00040000 	andeq	r0, r4, r0
 1b4:	00000000 	andeq	r0, r0, r0
 1b8:	08000f8c 	stmdaeq	r0, {r2, r3, r7, r8, r9, sl, fp}
 1bc:	00000024 	andeq	r0, r0, r4, lsr #32
 1c0:	08000fb0 	stmdaeq	r0, {r4, r5, r7, r8, r9, sl, fp}
 1c4:	000000c4 	andeq	r0, r0, r4, asr #1
	...
 1d0:	00000024 	andeq	r0, r0, r4, lsr #32
 1d4:	23aa0002 			@ <UNDEFINED> instruction: 0x23aa0002
 1d8:	00040000 	andeq	r0, r4, r0
 1dc:	00000000 	andeq	r0, r0, r0
 1e0:	08001074 	stmdaeq	r0, {r2, r4, r5, r6, ip}
 1e4:	00000050 	andeq	r0, r0, r0, asr r0
 1e8:	080010c4 	stmdaeq	r0, {r2, r6, r7, ip}
 1ec:	00000002 	andeq	r0, r0, r2
	...

Disassembly of section .debug_ranges:

00000000 <.debug_ranges>:
   0:	08000170 	stmdaeq	r0, {r4, r5, r6, r8}
   4:	0800034c 	stmdaeq	r0, {r2, r3, r6, r8, r9}
   8:	0800034c 	stmdaeq	r0, {r2, r3, r6, r8, r9}
   c:	08000378 	stmdaeq	r0, {r3, r4, r5, r6, r8, r9}
  10:	00000001 	andeq	r0, r0, r1
  14:	00000001 	andeq	r0, r0, r1
  18:	08000378 	stmdaeq	r0, {r3, r4, r5, r6, r8, r9}
  1c:	080003c4 	stmdaeq	r0, {r2, r6, r7, r8, r9}
  20:	080003c4 	stmdaeq	r0, {r2, r6, r7, r8, r9}
  24:	08000410 	stmdaeq	r0, {r4, sl}
  28:	00000001 	andeq	r0, r0, r1
  2c:	00000001 	andeq	r0, r0, r1
  30:	08000410 	stmdaeq	r0, {r4, sl}
  34:	08000434 	stmdaeq	r0, {r2, r4, r5, sl}
  38:	08000434 	stmdaeq	r0, {r2, r4, r5, sl}
  3c:	08000458 	stmdaeq	r0, {r3, r4, r6, sl}
  40:	08000458 	stmdaeq	r0, {r3, r4, r6, sl}
  44:	0800047c 	stmdaeq	r0, {r2, r3, r4, r5, r6, sl}
  48:	0800047c 	stmdaeq	r0, {r2, r3, r4, r5, r6, sl}
  4c:	080004a0 	stmdaeq	r0, {r5, r7, sl}
  50:	080004a0 	stmdaeq	r0, {r5, r7, sl}
  54:	080004c4 	stmdaeq	r0, {r2, r6, r7, sl}
  58:	080004c4 	stmdaeq	r0, {r2, r6, r7, sl}
  5c:	0800056c 	stmdaeq	r0, {r2, r3, r5, r6, r8, sl}
  60:	0800056c 	stmdaeq	r0, {r2, r3, r5, r6, r8, sl}
  64:	08000630 	stmdaeq	r0, {r4, r5, r9, sl}
	...
  70:	00000001 	andeq	r0, r0, r1
  74:	00000001 	andeq	r0, r0, r1
  78:	00000001 	andeq	r0, r0, r1
  7c:	00000001 	andeq	r0, r0, r1
  80:	00000001 	andeq	r0, r0, r1
  84:	00000001 	andeq	r0, r0, r1
	...
  90:	08000630 	stmdaeq	r0, {r4, r5, r9, sl}
  94:	0800070a 	stmdaeq	r0, {r1, r3, r8, r9, sl}
  98:	0800070c 	stmdaeq	r0, {r2, r3, r8, r9, sl}
  9c:	080008bc 	stmdaeq	r0, {r2, r3, r4, r5, r7, fp}
  a0:	00000001 	andeq	r0, r0, r1
  a4:	00000001 	andeq	r0, r0, r1
  a8:	080008bc 	stmdaeq	r0, {r2, r3, r4, r5, r7, fp}
  ac:	0800093c 	stmdaeq	r0, {r2, r3, r4, r5, r8, fp}
  b0:	00000001 	andeq	r0, r0, r1
  b4:	00000001 	andeq	r0, r0, r1
  b8:	00000001 	andeq	r0, r0, r1
  bc:	00000001 	andeq	r0, r0, r1
  c0:	00000001 	andeq	r0, r0, r1
  c4:	00000001 	andeq	r0, r0, r1
  c8:	00000001 	andeq	r0, r0, r1
  cc:	00000001 	andeq	r0, r0, r1
  d0:	00000001 	andeq	r0, r0, r1
  d4:	00000001 	andeq	r0, r0, r1
  d8:	00000001 	andeq	r0, r0, r1
  dc:	00000001 	andeq	r0, r0, r1
  e0:	00000001 	andeq	r0, r0, r1
  e4:	00000001 	andeq	r0, r0, r1
  e8:	00000001 	andeq	r0, r0, r1
  ec:	00000001 	andeq	r0, r0, r1
	...
  f8:	0800093c 	stmdaeq	r0, {r2, r3, r4, r5, r8, fp}
  fc:	08000984 	stmdaeq	r0, {r2, r7, r8, fp}
 100:	08000984 	stmdaeq	r0, {r2, r7, r8, fp}
 104:	080009d0 	stmdaeq	r0, {r4, r6, r7, r8, fp}
 108:	00000001 	andeq	r0, r0, r1
 10c:	00000001 	andeq	r0, r0, r1
 110:	00000001 	andeq	r0, r0, r1
 114:	00000001 	andeq	r0, r0, r1
 118:	00000001 	andeq	r0, r0, r1
 11c:	00000001 	andeq	r0, r0, r1
 120:	00000001 	andeq	r0, r0, r1
 124:	00000001 	andeq	r0, r0, r1
 128:	00000001 	andeq	r0, r0, r1
 12c:	00000001 	andeq	r0, r0, r1
 130:	00000001 	andeq	r0, r0, r1
 134:	00000001 	andeq	r0, r0, r1
	...
 140:	080009d0 	stmdaeq	r0, {r4, r6, r7, r8, fp}
 144:	08000b28 	stmdaeq	r0, {r3, r5, r8, r9, fp}
 148:	00000001 	andeq	r0, r0, r1
 14c:	00000001 	andeq	r0, r0, r1
 150:	08000b28 	stmdaeq	r0, {r3, r5, r8, r9, fp}
 154:	08000f8c 	stmdaeq	r0, {r2, r3, r7, r8, r9, sl, fp}
 158:	00000001 	andeq	r0, r0, r1
 15c:	00000001 	andeq	r0, r0, r1
 160:	00000001 	andeq	r0, r0, r1
 164:	00000001 	andeq	r0, r0, r1
 168:	00000001 	andeq	r0, r0, r1
 16c:	00000001 	andeq	r0, r0, r1
 170:	00000001 	andeq	r0, r0, r1
 174:	00000001 	andeq	r0, r0, r1
 178:	00000001 	andeq	r0, r0, r1
 17c:	00000001 	andeq	r0, r0, r1
	...
 188:	08000f8c 	stmdaeq	r0, {r2, r3, r7, r8, r9, sl, fp}
 18c:	08000fb0 	stmdaeq	r0, {r4, r5, r7, r8, r9, sl, fp}
 190:	08000fb0 	stmdaeq	r0, {r4, r5, r7, r8, r9, sl, fp}
 194:	08001074 	stmdaeq	r0, {r2, r4, r5, r6, ip}
	...
 1a0:	ffffffff 			@ <UNDEFINED> instruction: 0xffffffff
 1a4:	00000000 	andeq	r0, r0, r0
 1a8:	08001074 	stmdaeq	r0, {r2, r4, r5, r6, ip}
 1ac:	080010c4 	stmdaeq	r0, {r2, r6, r7, ip}
 1b0:	080010c4 	stmdaeq	r0, {r2, r6, r7, ip}
 1b4:	080010c6 	stmdaeq	r0, {r1, r2, r6, r7, ip}
	...

Disassembly of section .debug_macro:

00000000 <.debug_macro>:
       0:	00020004 	andeq	r0, r2, r4
       4:	07000000 	streq	r0, [r0, -r0]
       8:	000000a9 	andeq	r0, r0, r9, lsr #1
       c:	03010003 	movweq	r0, #4099	@ 0x1003
      10:	0a05070a 	beq	141c40 <_Min_Stack_Size+0x141840>
      14:	00005aa4 	andeq	r5, r0, r4, lsr #21
      18:	05050c03 	streq	r0, [r5, #-3075]	@ 0xfffff3fd
      1c:	002b030a 	eoreq	r0, fp, sl, lsl #6
      20:	04100300 	ldreq	r0, [r0], #-768	@ 0xfffffd00
      24:	2fa40a05 	svccs	0x00a40a05
      28:	0c030000 	stceq	0, cr0, [r3], {-0}
      2c:	0a090309 	beq	240c58 <_Min_Stack_Size+0x240858>
      30:	216a0a05 	cmncs	sl, r5, lsl #20
      34:	0c030000 	stceq	0, cr0, [r3], {-0}
      38:	3f060502 	svccc	0x00060502
      3c:	03000047 	movweq	r0, #71	@ 0x47
      40:	16050b08 	strne	r0, [r5], -r8, lsl #22
      44:	00001e88 	andeq	r1, r0, r8, lsl #29
      48:	070c1c03 	streq	r1, [ip, -r3, lsl #24]
      4c:	00000b57 	andeq	r0, r0, r7, asr fp
      50:	0b790704 	bleq	1e41c68 <_Min_Stack_Size+0x1e41868>
      54:	07040000 	streq	r0, [r4, -r0]
      58:	00000c07 	andeq	r0, r0, r7, lsl #24
      5c:	0d0d0304 	stceq	3, cr0, [sp, #-16]
      60:	000c5807 	andeq	r5, ip, r7, lsl #16
      64:	0e030400 	cfcpyseq	mvf0, mvf3
      68:	0d5b0703 	ldcleq	7, cr0, [fp, #-12]
      6c:	07040000 	streq	r0, [r4, -r0]
      70:	00000dc5 	andeq	r0, r0, r5, asr #27
      74:	610d0504 	tstvs	sp, r4, lsl #10
      78:	04000021 	streq	r0, [r0], #-33	@ 0xffffffdf
      7c:	000fa407 	andeq	sl, pc, r7, lsl #8
      80:	f6070400 			@ <UNDEFINED> instruction: 0xf6070400
      84:	0400000f 	streq	r0, [r0], #-15
      88:	05060d03 	streq	r0, [r6, #-3331]	@ 0xfffff2fd
      8c:	00588e0a 	subseq	r8, r8, sl, lsl #28
      90:	0e030400 	cfcpyseq	mvf0, mvf3
      94:	14830708 	strne	r0, [r3], #1800	@ 0x708
      98:	07040000 	streq	r0, [r4, -r0]
      9c:	0000161f 	andeq	r1, r0, pc, lsl r6
      a0:	c80c0504 	stmdagt	ip, {r2, r8, sl}
      a4:	0400002f 	streq	r0, [r0], #-47	@ 0xffffffd1
      a8:	00000400 	andeq	r0, r0, r0, lsl #8
      ac:	42440005 	submi	r0, r4, #5
      b0:	00050000 	andeq	r0, r5, r0
      b4:	00002c56 	andeq	r2, r0, r6, asr ip
      b8:	41190005 	tstmi	r9, r5
      bc:	00050000 	andeq	r0, r5, r0
      c0:	00001bea 	andeq	r1, r0, sl, ror #23
      c4:	62420005 	subvs	r0, r2, #5
      c8:	00050000 	andeq	r0, r5, r0
      cc:	0000375e 	andeq	r3, r0, lr, asr r7
      d0:	57c70005 	strbpl	r0, [r7, r5]
      d4:	00050000 	andeq	r0, r5, r0
      d8:	00001a8a 	andeq	r1, r0, sl, lsl #21
      dc:	60750005 	rsbsvs	r0, r5, r5
      e0:	00050000 	andeq	r0, r5, r0
      e4:	00005d80 	andeq	r5, r0, r0, lsl #27
      e8:	1c8f0005 	stcne	0, cr0, [pc], {5}
      ec:	00050000 	andeq	r0, r5, r0
      f0:	00004daa 	andeq	r4, r0, sl, lsr #27
      f4:	34390005 	ldrtcc	r0, [r9], #-5
      f8:	00050000 	andeq	r0, r5, r0
      fc:	00006da4 	andeq	r6, r0, r4, lsr #27
     100:	02c10005 	sbceq	r0, r1, #5
     104:	00050000 	andeq	r0, r5, r0
     108:	00003627 	andeq	r3, r0, r7, lsr #12
     10c:	4a340005 	bmi	d00128 <_Min_Stack_Size+0xcffd28>
     110:	00050000 	andeq	r0, r5, r0
     114:	00001b94 	muleq	r0, r4, fp
     118:	03680005 	cmneq	r8, #5
     11c:	00050000 	andeq	r0, r5, r0
     120:	00001e33 	andeq	r1, r0, r3, lsr lr
     124:	1bfc0005 	blne	fff00140 <_estack+0xdfefb140>
     128:	00050000 	andeq	r0, r5, r0
     12c:	0000182f 	andeq	r1, r0, pc, lsr #16
     130:	1eab0005 	cdpne	0, 10, cr0, cr11, cr5, {0}
     134:	00050000 	andeq	r0, r5, r0
     138:	00005b3e 	andeq	r5, r0, lr, lsr fp
     13c:	40c50005 	sbcmi	r0, r5, r5
     140:	00050000 	andeq	r0, r5, r0
     144:	0000475a 	andeq	r4, r0, sl, asr r7
     148:	4e0a0005 	cdpmi	0, 0, cr0, cr10, cr5, {0}
     14c:	00050000 	andeq	r0, r5, r0
     150:	00000bd6 	ldrdeq	r0, [r0], -r6
     154:	04930005 	ldreq	r0, [r3], #5
     158:	00050000 	andeq	r0, r5, r0
     15c:	00003d82 	andeq	r3, r0, r2, lsl #27
     160:	42a00005 	adcmi	r0, r0, #5
     164:	00050000 	andeq	r0, r5, r0
     168:	000013fc 	strdeq	r1, [r0], -ip
     16c:	0af80005 	beq	ffe00188 <_estack+0xdfdfb188>
     170:	00050000 	andeq	r0, r5, r0
     174:	00001572 	andeq	r1, r0, r2, ror r5
     178:	6bb40005 	blvs	fed00194 <_estack+0xdecfb194>
     17c:	00050000 	andeq	r0, r5, r0
     180:	000025ad 	andeq	r2, r0, sp, lsr #11
     184:	1ee00005 	cdpne	0, 14, cr0, cr0, cr5, {0}
     188:	00050000 	andeq	r0, r5, r0
     18c:	000041b8 			@ <UNDEFINED> instruction: 0x000041b8
     190:	58380005 	ldmdapl	r8!, {r0, r2}
     194:	00050000 	andeq	r0, r5, r0
     198:	00004059 	andeq	r4, r0, r9, asr r0
     19c:	50e60005 	rscpl	r0, r6, r5
     1a0:	00050000 	andeq	r0, r5, r0
     1a4:	00001604 	andeq	r1, r0, r4, lsl #12
     1a8:	08570005 	ldmdaeq	r7, {r0, r2}^
     1ac:	00050000 	andeq	r0, r5, r0
     1b0:	000004d8 	ldrdeq	r0, [r0], -r8
     1b4:	05ed0005 	strbeq	r0, [sp, #5]!
     1b8:	00050000 	andeq	r0, r5, r0
     1bc:	0000390b 	andeq	r3, r0, fp, lsl #18
     1c0:	3be20005 	blcc	ff8801dc <_estack+0xdf87b1dc>
     1c4:	00050000 	andeq	r0, r5, r0
     1c8:	000042cd 	andeq	r4, r0, sp, asr #5
     1cc:	2f4f0005 	svccs	0x004f0005
     1d0:	00050000 	andeq	r0, r5, r0
     1d4:	00006469 	andeq	r6, r0, r9, ror #8
     1d8:	5b690005 	blpl	1a401f4 <_Min_Stack_Size+0x1a3fdf4>
     1dc:	00050000 	andeq	r0, r5, r0
     1e0:	00001411 	andeq	r1, r0, r1, lsl r4
     1e4:	67fb0005 	ldrbvs	r0, [fp, r5]!
     1e8:	00050000 	andeq	r0, r5, r0
     1ec:	00004d16 	andeq	r4, r0, r6, lsl sp
     1f0:	6f9d0005 	svcvs	0x009d0005
     1f4:	00050000 	andeq	r0, r5, r0
     1f8:	00004313 	andeq	r4, r0, r3, lsl r3
     1fc:	50830005 	addpl	r0, r3, r5
     200:	00050000 	andeq	r0, r5, r0
     204:	000057d8 	ldrdeq	r5, [r0], -r8
     208:	329d0005 	addscc	r0, sp, #5
     20c:	00050000 	andeq	r0, r5, r0
     210:	00001300 	andeq	r1, r0, r0, lsl #6
     214:	50270005 	eorpl	r0, r7, r5
     218:	00050000 	andeq	r0, r5, r0
     21c:	00004414 	andeq	r4, r0, r4, lsl r4
     220:	08840005 	stmeq	r4, {r0, r2}
     224:	00050000 	andeq	r0, r5, r0
     228:	0000307b 	andeq	r3, r0, fp, ror r0
     22c:	66780005 	ldrbtvs	r0, [r8], -r5
     230:	00050000 	andeq	r0, r5, r0
     234:	00001bc8 	andeq	r1, r0, r8, asr #23
     238:	0bf00005 	bleq	ffc00254 <_estack+0xdfbfb254>
     23c:	00050000 	andeq	r0, r5, r0
     240:	00005a72 	andeq	r5, r0, r2, ror sl
     244:	5a860005 	bpl	fe180260 <_estack+0xde17b260>
     248:	00050000 	andeq	r0, r5, r0
     24c:	0000231b 	andeq	r2, r0, fp, lsl r3
     250:	1f0d0005 	svcne	0x000d0005
     254:	00050000 	andeq	r0, r5, r0
     258:	00004ef6 	strdeq	r4, [r0], -r6
     25c:	38e70005 	stmiacc	r7!, {r0, r2}^
     260:	00050000 	andeq	r0, r5, r0
     264:	00005c18 	andeq	r5, r0, r8, lsl ip
     268:	49410005 	stmdbmi	r1, {r0, r2}^
     26c:	00050000 	andeq	r0, r5, r0
     270:	000002e8 	andeq	r0, r0, r8, ror #5
     274:	38740005 	ldmdacc	r4!, {r0, r2}^
     278:	00050000 	andeq	r0, r5, r0
     27c:	00004f55 	andeq	r4, r0, r5, asr pc
     280:	67640005 	strbvs	r0, [r4, -r5]!
     284:	00050000 	andeq	r0, r5, r0
     288:	00000167 	andeq	r0, r0, r7, ror #2
     28c:	6a4b0005 	bvs	12c02a8 <_Min_Stack_Size+0x12bfea8>
     290:	00050000 	andeq	r0, r5, r0
     294:	00000ecf 	andeq	r0, r0, pc, asr #29
     298:	43d60005 	bicsmi	r0, r6, #5
     29c:	00050000 	andeq	r0, r5, r0
     2a0:	00003b8c 	andeq	r3, r0, ip, lsl #23
     2a4:	380e0005 	stmdacc	lr, {r0, r2}
     2a8:	00050000 	andeq	r0, r5, r0
     2ac:	000039ec 	andeq	r3, r0, ip, ror #19
     2b0:	6c800005 	stcvs	0, cr0, [r0], {5}
     2b4:	00050000 	andeq	r0, r5, r0
     2b8:	00006513 	andeq	r6, r0, r3, lsl r5
     2bc:	0dc80005 	stcleq	0, cr0, [r8, #20]
     2c0:	00050000 	andeq	r0, r5, r0
     2c4:	00006752 	andeq	r6, r0, r2, asr r7
     2c8:	01fc0005 	mvnseq	r0, r5
     2cc:	00050000 	andeq	r0, r5, r0
     2d0:	000001d2 	ldrdeq	r0, [r0], -r2
     2d4:	6f100005 	svcvs	0x00100005
     2d8:	00050000 	andeq	r0, r5, r0
     2dc:	000013cf 	andeq	r1, r0, pc, asr #7
     2e0:	044c0005 	strbeq	r0, [ip], #-5
     2e4:	00050000 	andeq	r0, r5, r0
     2e8:	00005e1d 	andeq	r5, r0, sp, lsl lr
     2ec:	297e0005 	ldmdbcs	lr!, {r0, r2}^
     2f0:	00050000 	andeq	r0, r5, r0
     2f4:	00006168 	andeq	r6, r0, r8, ror #2
     2f8:	2e850005 	cdpcs	0, 8, cr0, cr5, cr5, {0}
     2fc:	00050000 	andeq	r0, r5, r0
     300:	0000602c 	andeq	r6, r0, ip, lsr #32
     304:	31130005 	tstcc	r3, r5
     308:	00050000 	andeq	r0, r5, r0
     30c:	000036b2 			@ <UNDEFINED> instruction: 0x000036b2
     310:	21f80005 	mvnscs	r0, r5
     314:	00050000 	andeq	r0, r5, r0
     318:	00006fc0 	andeq	r6, r0, r0, asr #31
     31c:	2bea0005 	blcs	ffa80338 <_estack+0xdfa7b338>
     320:	00050000 	andeq	r0, r5, r0
     324:	00002bc5 	andeq	r2, r0, r5, asr #23
     328:	2c840005 	stccs	0, cr0, [r4], {5}
     32c:	00050000 	andeq	r0, r5, r0
     330:	000049e5 	andeq	r4, r0, r5, ror #19
     334:	67d20005 	ldrbvs	r0, [r2, r5]
     338:	00050000 	andeq	r0, r5, r0
     33c:	00002332 	andeq	r2, r0, r2, lsr r3
     340:	6cc00005 	stclvs	0, cr0, [r0], {5}
     344:	00050000 	andeq	r0, r5, r0
     348:	00002ab5 			@ <UNDEFINED> instruction: 0x00002ab5
     34c:	3ce00005 	stclcc	0, cr0, [r0], #20
     350:	00050000 	andeq	r0, r5, r0
     354:	00002175 	andeq	r2, r0, r5, ror r1
     358:	18430005 	stmdane	r3, {r0, r2}^
     35c:	00050000 	andeq	r0, r5, r0
     360:	00003171 	andeq	r3, r0, r1, ror r1
     364:	5b900005 	blpl	fe400380 <_estack+0xde3fb380>
     368:	00050000 	andeq	r0, r5, r0
     36c:	00002e37 	andeq	r2, r0, r7, lsr lr
     370:	29ab0005 	stmibcs	fp!, {r0, r2}
     374:	00050000 	andeq	r0, r5, r0
     378:	000005de 	ldrdeq	r0, [r0], -lr
     37c:	1ac20005 	bne	ff080398 <_estack+0xdf07b398>
     380:	00050000 	andeq	r0, r5, r0
     384:	00005cfb 	strdeq	r5, [r0], -fp
     388:	62540005 	subsvs	r0, r4, #5
     38c:	00050000 	andeq	r0, r5, r0
     390:	0000244e 	andeq	r2, r0, lr, asr #8
     394:	4d5e0005 	ldclmi	0, cr0, [lr, #-20]	@ 0xffffffec
     398:	00050000 	andeq	r0, r5, r0
     39c:	00003286 	andeq	r3, r0, r6, lsl #5
     3a0:	63470005 	movtvs	r0, #28677	@ 0x7005
     3a4:	00050000 	andeq	r0, r5, r0
     3a8:	00004102 	andeq	r4, r0, r2, lsl #2
     3ac:	52030005 	andpl	r0, r3, #5
     3b0:	00050000 	andeq	r0, r5, r0
     3b4:	00000ee1 	andeq	r0, r0, r1, ror #29
     3b8:	1c710005 	ldclne	0, cr0, [r1], #-20	@ 0xffffffec
     3bc:	00050000 	andeq	r0, r5, r0
     3c0:	00001ba6 	andeq	r1, r0, r6, lsr #23
     3c4:	11fe0005 	mvnsne	r0, r5
     3c8:	00050000 	andeq	r0, r5, r0
     3cc:	00000b37 	andeq	r0, r0, r7, lsr fp
     3d0:	0dee0005 	stcleq	0, cr0, [lr, #20]!
     3d4:	00050000 	andeq	r0, r5, r0
     3d8:	00003ac1 	andeq	r3, r0, r1, asr #21
     3dc:	16b60005 	ldrtne	r0, [r6], r5
     3e0:	00050000 	andeq	r0, r5, r0
     3e4:	00003a33 	andeq	r3, r0, r3, lsr sl
     3e8:	0f5d0005 	svceq	0x005d0005
     3ec:	00050000 	andeq	r0, r5, r0
     3f0:	00003a86 	andeq	r3, r0, r6, lsl #21
     3f4:	09840005 	stmibeq	r4, {r0, r2}
     3f8:	00050000 	andeq	r0, r5, r0
     3fc:	000041e3 	andeq	r4, r0, r3, ror #3
     400:	2ef40005 	cdpcs	0, 15, cr0, cr4, cr5, {0}
     404:	00050000 	andeq	r0, r5, r0
     408:	000040d4 	ldrdeq	r4, [r0], -r4	@ <UNPREDICTABLE>
     40c:	302f0005 	eorcc	r0, pc, r5
     410:	00050000 	andeq	r0, r5, r0
     414:	00002ad6 	ldrdeq	r2, [r0], -r6
     418:	39560005 	ldmdbcc	r6, {r0, r2}^
     41c:	00050000 	andeq	r0, r5, r0
     420:	00003490 	muleq	r0, r0, r4
     424:	404b0005 	submi	r0, fp, r5
     428:	00050000 	andeq	r0, r5, r0
     42c:	00003bb8 			@ <UNDEFINED> instruction: 0x00003bb8
     430:	4ec10005 	cdpmi	0, 12, cr0, cr1, cr5, {0}
     434:	00050000 	andeq	r0, r5, r0
     438:	00001707 	andeq	r1, r0, r7, lsl #14
     43c:	1c410005 	mcrrne	0, 0, r0, r1, cr5
     440:	00050000 	andeq	r0, r5, r0
     444:	0000191c 	andeq	r1, r0, ip, lsl r9
     448:	38200005 	stmdacc	r0!, {r0, r2}
     44c:	00050000 	andeq	r0, r5, r0
     450:	00004e33 	andeq	r4, r0, r3, lsr lr
     454:	201c0005 	andscs	r0, ip, r5
     458:	00050000 	andeq	r0, r5, r0
     45c:	000024b3 			@ <UNDEFINED> instruction: 0x000024b3
     460:	23620005 	cmncs	r2, #5
     464:	00050000 	andeq	r0, r5, r0
     468:	00002a85 	andeq	r2, r0, r5, lsl #21
     46c:	2e500005 	cdpcs	0, 5, cr0, cr0, cr5, {0}
     470:	00050000 	andeq	r0, r5, r0
     474:	0000445b 	andeq	r4, r0, fp, asr r4
     478:	567a0005 	ldrbtpl	r0, [sl], -r5
     47c:	00050000 	andeq	r0, r5, r0
     480:	00006f36 	andeq	r6, r0, r6, lsr pc
     484:	5af30005 	bpl	ffcc04a0 <_estack+0xdfcbb4a0>
     488:	00050000 	andeq	r0, r5, r0
     48c:	00004a45 	andeq	r4, r0, r5, asr #20
     490:	0bac0005 	bleq	feb004ac <_estack+0xdeafb4ac>
     494:	00050000 	andeq	r0, r5, r0
     498:	00003416 	andeq	r3, r0, r6, lsl r4
     49c:	037f0005 	cmneq	pc, #5
     4a0:	00050000 	andeq	r0, r5, r0
     4a4:	00005f2a 	andeq	r5, r0, sl, lsr #30
     4a8:	687f0005 	ldmdavs	pc!, {r0, r2}^	@ <UNPREDICTABLE>
     4ac:	00050000 	andeq	r0, r5, r0
     4b0:	00003e37 	andeq	r3, r0, r7, lsr lr
     4b4:	12400005 	subne	r0, r0, #5
     4b8:	00050000 	andeq	r0, r5, r0
     4bc:	00002d95 	muleq	r0, r5, sp
     4c0:	3ea80005 	cdpcc	0, 10, cr0, cr8, cr5, {0}
     4c4:	00050000 	andeq	r0, r5, r0
     4c8:	0000315c 	andeq	r3, r0, ip, asr r1
     4cc:	5e060005 	cdppl	0, 0, cr0, cr6, cr5, {0}
     4d0:	00050000 	andeq	r0, r5, r0
     4d4:	000058fc 	strdeq	r5, [r0], -ip
     4d8:	169f0005 	ldrne	r0, [pc], r5
     4dc:	00050000 	andeq	r0, r5, r0
     4e0:	000005c9 	andeq	r0, r0, r9, asr #11
     4e4:	67120005 	ldrvs	r0, [r2, -r5]
     4e8:	00050000 	andeq	r0, r5, r0
     4ec:	0000058b 	andeq	r0, r0, fp, lsl #11
     4f0:	5bfd0005 	blpl	fff4050c <_estack+0xdff3b50c>
     4f4:	00050000 	andeq	r0, r5, r0
     4f8:	00002236 	andeq	r2, r0, r6, lsr r2
     4fc:	3e840005 	cdpcc	0, 8, cr0, cr4, cr5, {0}
     500:	00050000 	andeq	r0, r5, r0
     504:	00000018 	andeq	r0, r0, r8, lsl r0
     508:	62e30005 	rscvs	r0, r3, #5
     50c:	00050000 	andeq	r0, r5, r0
     510:	0000238d 	andeq	r2, r0, sp, lsl #7
     514:	46410005 	strbmi	r0, [r1], -r5
     518:	00050000 	andeq	r0, r5, r0
     51c:	0000026c 	andeq	r0, r0, ip, ror #4
     520:	332d0005 			@ <UNDEFINED> instruction: 0x332d0005
     524:	00050000 	andeq	r0, r5, r0
     528:	00003671 	andeq	r3, r0, r1, ror r6
     52c:	4a790005 	bmi	1e40548 <_Min_Stack_Size+0x1e40148>
     530:	00050000 	andeq	r0, r5, r0
     534:	0000288f 	andeq	r2, r0, pc, lsl #17
     538:	39d30005 	ldmibcc	r3, {r0, r2}^
     53c:	00050000 	andeq	r0, r5, r0
     540:	00004f0a 	andeq	r4, r0, sl, lsl #30
     544:	31df0005 	bicscc	r0, pc, r5
     548:	00050000 	andeq	r0, r5, r0
     54c:	00004b3f 	andeq	r4, r0, pc, lsr fp
     550:	09a00005 	stmibeq	r0!, {r0, r2}
     554:	00050000 	andeq	r0, r5, r0
     558:	000045b6 			@ <UNDEFINED> instruction: 0x000045b6
     55c:	15150005 	ldrne	r0, [r5, #-5]
     560:	00050000 	andeq	r0, r5, r0
     564:	00000924 	andeq	r0, r0, r4, lsr #18
     568:	05540005 	ldrbeq	r0, [r4, #-5]
     56c:	00050000 	andeq	r0, r5, r0
     570:	00005acb 	andeq	r5, r0, fp, asr #21
     574:	6eba0005 	cdpvs	0, 11, cr0, cr10, cr5, {0}
     578:	00050000 	andeq	r0, r5, r0
     57c:	0000563a 	andeq	r5, r0, sl, lsr r6
     580:	3da90005 	stccc	0, cr0, [r9, #20]!
     584:	00050000 	andeq	r0, r5, r0
     588:	00003207 	andeq	r3, r0, r7, lsl #4
     58c:	63640005 	cmnvs	r4, #5
     590:	00050000 	andeq	r0, r5, r0
     594:	000068f7 	strdeq	r6, [r0], -r7
     598:	28750005 	ldmdacs	r5!, {r0, r2}^
     59c:	00050000 	andeq	r0, r5, r0
     5a0:	000020a1 	andeq	r2, r0, r1, lsr #1
     5a4:	03960005 	orrseq	r0, r6, #5
     5a8:	00050000 	andeq	r0, r5, r0
     5ac:	00006780 	andeq	r6, r0, r0, lsl #15
     5b0:	0dae0005 	stceq	0, cr0, [lr, #20]!
     5b4:	00050000 	andeq	r0, r5, r0
     5b8:	00000a84 	andeq	r0, r0, r4, lsl #21
     5bc:	3b0c0005 	blcc	3005d8 <_Min_Stack_Size+0x3001d8>
     5c0:	00050000 	andeq	r0, r5, r0
     5c4:	00001b7b 	andeq	r1, r0, fp, ror fp
     5c8:	02530005 	subseq	r0, r3, #5
     5cc:	00050000 	andeq	r0, r5, r0
     5d0:	00000640 	andeq	r0, r0, r0, asr #12
     5d4:	35ef0005 	strbcc	r0, [pc, #5]!	@ 5e1 <_Min_Stack_Size+0x1e1>
     5d8:	00050000 	andeq	r0, r5, r0
     5dc:	00003b4e 	andeq	r3, r0, lr, asr #22
     5e0:	61940005 	orrsvs	r0, r4, r5
     5e4:	00050000 	andeq	r0, r5, r0
     5e8:	00000056 	andeq	r0, r0, r6, asr r0
     5ec:	40340005 	eorsmi	r0, r4, r5
     5f0:	00050000 	andeq	r0, r5, r0
     5f4:	000000e6 	andeq	r0, r0, r6, ror #1
     5f8:	3f4b0005 	svccc	0x004b0005
     5fc:	00050000 	andeq	r0, r5, r0
     600:	00004dbd 			@ <UNDEFINED> instruction: 0x00004dbd
     604:	6c690005 	stclvs	0, cr0, [r9], #-20	@ 0xffffffec
     608:	00050000 	andeq	r0, r5, r0
     60c:	00005109 	andeq	r5, r0, r9, lsl #2
     610:	442c0005 	strtmi	r0, [ip], #-5
     614:	00050000 	andeq	r0, r5, r0
     618:	000036e9 	andeq	r3, r0, r9, ror #13
     61c:	2d740005 	ldclcs	0, cr0, [r4, #-20]!	@ 0xffffffec
     620:	00050000 	andeq	r0, r5, r0
     624:	00002f1e 	andeq	r2, r0, lr, lsl pc
     628:	12260005 	eorne	r0, r6, #5
     62c:	00050000 	andeq	r0, r5, r0
     630:	00005575 	andeq	r5, r0, r5, ror r5
     634:	45690005 	strbmi	r0, [r9, #-5]!
     638:	00050000 	andeq	r0, r5, r0
     63c:	00003ae1 	andeq	r3, r0, r1, ror #21
     640:	128a0005 	addne	r0, sl, #5
     644:	00050000 	andeq	r0, r5, r0
     648:	00001c0f 	andeq	r1, r0, pc, lsl #24
     64c:	34780005 	ldrbtcc	r0, [r8], #-5
     650:	00050000 	andeq	r0, r5, r0
     654:	0000108b 	andeq	r1, r0, fp, lsl #1
     658:	126f0005 	rsbne	r0, pc, #5
     65c:	00050000 	andeq	r0, r5, r0
     660:	00002a2e 	andeq	r2, r0, lr, lsr #20
     664:	043a0005 	ldrteq	r0, [sl], #-5
     668:	00050000 	andeq	r0, r5, r0
     66c:	00006ac4 	andeq	r6, r0, r4, asr #21
     670:	2ec70005 	cdpcs	0, 12, cr0, cr7, cr5, {0}
     674:	00050000 	andeq	r0, r5, r0
     678:	00001fa1 	andeq	r1, r0, r1, lsr #31
     67c:	0b7a0005 	bleq	1e80698 <_Min_Stack_Size+0x1e80298>
     680:	00050000 	andeq	r0, r5, r0
     684:	0000331a 	andeq	r3, r0, sl, lsl r3
     688:	6d4e0005 	stclvs	0, cr0, [lr, #-20]	@ 0xffffffec
     68c:	00050000 	andeq	r0, r5, r0
     690:	000021d6 	ldrdeq	r2, [r0], -r6
     694:	09690005 	stmdbeq	r9!, {r0, r2}^
     698:	00050000 	andeq	r0, r5, r0
     69c:	00002b13 	andeq	r2, r0, r3, lsl fp
     6a0:	1a450005 	bne	11406bc <_Min_Stack_Size+0x11402bc>
     6a4:	00050000 	andeq	r0, r5, r0
     6a8:	00004d99 	muleq	r0, r9, sp
     6ac:	03ac0005 			@ <UNDEFINED> instruction: 0x03ac0005
     6b0:	00050000 	andeq	r0, r5, r0
     6b4:	00001c57 	andeq	r1, r0, r7, asr ip
     6b8:	30b00005 	adcscc	r0, r0, r5
     6bc:	00050000 	andeq	r0, r5, r0
     6c0:	00003e14 	andeq	r3, r0, r4, lsl lr
     6c4:	49bf0005 	ldmibmi	pc!, {r0, r2}	@ <UNPREDICTABLE>
     6c8:	00050000 	andeq	r0, r5, r0
     6cc:	00001062 	andeq	r1, r0, r2, rrx
     6d0:	3c960005 	ldccc	0, cr0, [r6], {5}
     6d4:	00050000 	andeq	r0, r5, r0
     6d8:	00003857 	andeq	r3, r0, r7, asr r8
     6dc:	3bff0005 	blcc	fffc06f8 <_estack+0xdffbb6f8>
     6e0:	00050000 	andeq	r0, r5, r0
     6e4:	000049f3 	strdeq	r4, [r0], -r3
     6e8:	2dc70005 	stclcs	0, cr0, [r7, #20]
     6ec:	00050000 	andeq	r0, r5, r0
     6f0:	0000420d 	andeq	r4, r0, sp, lsl #4
     6f4:	450a0005 	strmi	r0, [sl, #-5]
     6f8:	00050000 	andeq	r0, r5, r0
     6fc:	00000a4a 	andeq	r0, r0, sl, asr #20
     700:	6f610005 	svcvs	0x00610005
     704:	00050000 	andeq	r0, r5, r0
     708:	0000536f 	andeq	r5, r0, pc, ror #6
     70c:	50610005 	rsbpl	r0, r1, r5
     710:	00050000 	andeq	r0, r5, r0
     714:	00005b02 	andeq	r5, r0, r2, lsl #22
     718:	68e30005 	stmiavs	r3!, {r0, r2}^
     71c:	00050000 	andeq	r0, r5, r0
     720:	0000658d 	andeq	r6, r0, sp, lsl #11
     724:	65ba0005 	ldrvs	r0, [sl, #5]!
     728:	00050000 	andeq	r0, r5, r0
     72c:	00005988 	andeq	r5, r0, r8, lsl #19
     730:	55560005 	ldrbpl	r0, [r6, #-5]
     734:	00050000 	andeq	r0, r5, r0
     738:	00000842 	andeq	r0, r0, r2, asr #16
     73c:	369e0005 	ldrcc	r0, [lr], r5
     740:	00050000 	andeq	r0, r5, r0
     744:	00006525 	andeq	r6, r0, r5, lsr #10
     748:	15410005 	strbne	r0, [r1, #-5]
     74c:	00050000 	andeq	r0, r5, r0
     750:	00006221 	andeq	r6, r0, r1, lsr #4
     754:	4c3c0005 	ldcmi	0, cr0, [ip], #-20	@ 0xffffffec
     758:	00050000 	andeq	r0, r5, r0
     75c:	00004fa3 	andeq	r4, r0, r3, lsr #31
     760:	503f0005 	eorspl	r0, pc, r5
     764:	00050000 	andeq	r0, r5, r0
     768:	00005a57 	andeq	r5, r0, r7, asr sl
     76c:	65eb0005 	strbvs	r0, [fp, #5]!
     770:	00050000 	andeq	r0, r5, r0
     774:	000027c1 	andeq	r2, r0, r1, asr #15
     778:	3fab0005 	svccc	0x00ab0005
     77c:	00050000 	andeq	r0, r5, r0
     780:	0000053d 	andeq	r0, r0, sp, lsr r5
     784:	041d0005 	ldreq	r0, [sp], #-5
     788:	00050000 	andeq	r0, r5, r0
     78c:	000058de 	ldrdeq	r5, [r0], -lr
     790:	119d0005 	orrsne	r0, sp, r5
     794:	00050000 	andeq	r0, r5, r0
     798:	00005c43 	andeq	r5, r0, r3, asr #24
     79c:	4cd40005 	ldclmi	0, cr0, [r4], {5}
     7a0:	00050000 	andeq	r0, r5, r0
     7a4:	00002e67 	andeq	r2, r0, r7, ror #28
     7a8:	66d80005 	ldrbvs	r0, [r8], r5
     7ac:	00050000 	andeq	r0, r5, r0
     7b0:	00003844 	andeq	r3, r0, r4, asr #16
     7b4:	11af0005 			@ <UNDEFINED> instruction: 0x11af0005
     7b8:	00050000 	andeq	r0, r5, r0
     7bc:	0000249e 	muleq	r0, lr, r4
     7c0:	356c0005 	strbcc	r0, [ip, #-5]!
     7c4:	00050000 	andeq	r0, r5, r0
     7c8:	000026eb 	andeq	r2, r0, fp, ror #13
     7cc:	0b4f0005 	bleq	13c07e8 <_Min_Stack_Size+0x13c03e8>
     7d0:	00050000 	andeq	r0, r5, r0
     7d4:	00000e77 	andeq	r0, r0, r7, ror lr
     7d8:	63230005 			@ <UNDEFINED> instruction: 0x63230005
     7dc:	00050000 	andeq	r0, r5, r0
     7e0:	000050be 	strheq	r5, [r0], -lr
     7e4:	014a0005 	cmpeq	sl, r5
     7e8:	00050000 	andeq	r0, r5, r0
     7ec:	000002d4 	ldrdeq	r0, [r0], -r4
     7f0:	4ee20005 	cdpmi	0, 14, cr0, cr2, cr5, {0}
     7f4:	00050000 	andeq	r0, r5, r0
     7f8:	000038c5 	andeq	r3, r0, r5, asr #17
     7fc:	53060005 	movwpl	r0, #24581	@ 0x6005
     800:	00050000 	andeq	r0, r5, r0
     804:	000066f3 	strdeq	r6, [r0], -r3
     808:	57690005 	strbpl	r0, [r9, -r5]!
     80c:	00050000 	andeq	r0, r5, r0
     810:	0000309c 	muleq	r0, ip, r0
     814:	01130005 	tsteq	r3, r5
     818:	00050000 	andeq	r0, r5, r0
     81c:	00002b4c 	andeq	r2, r0, ip, asr #22
     820:	1a6b0005 	bne	1ac083c <_Min_Stack_Size+0x1ac043c>
     824:	00050000 	andeq	r0, r5, r0
     828:	00001e46 	andeq	r1, r0, r6, asr #28
     82c:	61f80005 	mvnsvs	r0, r5
     830:	00050000 	andeq	r0, r5, r0
     834:	00006384 	andeq	r6, r0, r4, lsl #7
     838:	3f7f0005 	svccc	0x007f0005
     83c:	00050000 	andeq	r0, r5, r0
     840:	00004f22 	andeq	r4, r0, r2, lsr #30
     844:	68450005 	stmdavs	r5, {r0, r2}^
     848:	00050000 	andeq	r0, r5, r0
     84c:	000056ed 	andeq	r5, r0, sp, ror #13
     850:	699e0005 	ldmibvs	lr, {r0, r2}
     854:	00050000 	andeq	r0, r5, r0
     858:	00006db7 			@ <UNDEFINED> instruction: 0x00006db7
     85c:	0c1c0005 	ldceq	0, cr0, [ip], {5}
     860:	00050000 	andeq	r0, r5, r0
     864:	00000485 	andeq	r0, r0, r5, lsl #9
     868:	4fb50005 	svcmi	0x00b50005
     86c:	00050000 	andeq	r0, r5, r0
     870:	0000539e 	muleq	r0, lr, r3
     874:	1d0f0005 	stcne	0, cr0, [pc, #-20]	@ 868 <_Min_Stack_Size+0x468>
     878:	00050000 	andeq	r0, r5, r0
     87c:	00000245 	andeq	r0, r0, r5, asr #4
     880:	418f0005 	orrmi	r0, pc, r5
     884:	00050000 	andeq	r0, r5, r0
     888:	00001b4e 	andeq	r1, r0, lr, asr #22
     88c:	013a0005 	teqeq	sl, r5
     890:	00050000 	andeq	r0, r5, r0
     894:	00004fdc 	ldrdeq	r4, [r0], -ip
     898:	0bc60005 	bleq	ff1808b4 <_estack+0xdf17b8b4>
     89c:	00050000 	andeq	r0, r5, r0
     8a0:	000057b8 			@ <UNDEFINED> instruction: 0x000057b8
     8a4:	3e270005 	cdpcc	0, 2, cr0, cr7, cr5, {0}
     8a8:	00050000 	andeq	r0, r5, r0
     8ac:	000034f4 	strdeq	r3, [r0], -r4
     8b0:	512d0005 			@ <UNDEFINED> instruction: 0x512d0005
     8b4:	00050000 	andeq	r0, r5, r0
     8b8:	00005538 	andeq	r5, r0, r8, lsr r5
     8bc:	20400005 	subcs	r0, r0, r5
     8c0:	00050000 	andeq	r0, r5, r0
     8c4:	00003a66 	andeq	r3, r0, r6, ror #20
     8c8:	55470005 	strbpl	r0, [r7, #-5]
     8cc:	00050000 	andeq	r0, r5, r0
     8d0:	00002ee5 	andeq	r2, r0, r5, ror #29
     8d4:	22f20005 	rscscs	r0, r2, #5
     8d8:	00050000 	andeq	r0, r5, r0
     8dc:	00006d27 	andeq	r6, r0, r7, lsr #26
     8e0:	28bc0005 	ldmcs	ip!, {r0, r2}
     8e4:	00050000 	andeq	r0, r5, r0
     8e8:	000047d3 	ldrdeq	r4, [r0], -r3
     8ec:	002b0005 	eoreq	r0, fp, r5
     8f0:	00050000 	andeq	r0, r5, r0
     8f4:	000066b3 			@ <UNDEFINED> instruction: 0x000066b3
     8f8:	44040005 	strmi	r0, [r4], #-5
     8fc:	00050000 	andeq	r0, r5, r0
     900:	00001f20 	andeq	r1, r0, r0, lsr #30
     904:	13670005 	cmnne	r7, #5
     908:	00050000 	andeq	r0, r5, r0
     90c:	00005d1f 	andeq	r5, r0, pc, lsl sp
     910:	190c0005 	stmdbne	ip, {r0, r2}
     914:	00050000 	andeq	r0, r5, r0
     918:	000061e8 	andeq	r6, r0, r8, ror #3
     91c:	5ab60005 	bpl	fed80938 <_estack+0xded7b938>
     920:	00050000 	andeq	r0, r5, r0
     924:	00002bae 	andeq	r2, r0, lr, lsr #23
     928:	19f90005 	ldmibne	r9!, {r0, r2}^
     92c:	00050000 	andeq	r0, r5, r0
     930:	00005d3d 	andeq	r5, r0, sp, lsr sp
     934:	00d20005 	sbcseq	r0, r2, r5
     938:	00050000 	andeq	r0, r5, r0
     93c:	000007d3 	ldrdeq	r0, [r0], -r3
     940:	1f300005 	svcne	0x00300005
     944:	00050000 	andeq	r0, r5, r0
     948:	00004c4e 	andeq	r4, r0, lr, asr #24
     94c:	14a50005 	strtne	r0, [r5], #5
     950:	00050000 	andeq	r0, r5, r0
     954:	00006041 	andeq	r6, r0, r1, asr #32
     958:	33970005 	orrscc	r0, r7, #5
     95c:	00050000 	andeq	r0, r5, r0
     960:	00001aa0 	andeq	r1, r0, r0, lsr #21
     964:	00b10005 	adcseq	r0, r1, r5
     968:	00050000 	andeq	r0, r5, r0
     96c:	00002507 	andeq	r2, r0, r7, lsl #10
     970:	58710005 	ldmdapl	r1!, {r0, r2}^
     974:	00050000 	andeq	r0, r5, r0
     978:	000038a7 	andeq	r3, r0, r7, lsr #17
     97c:	056c0005 	strbeq	r0, [ip, #-5]!
     980:	00050000 	andeq	r0, r5, r0
     984:	000027e9 	andeq	r2, r0, r9, ror #15
     988:	5c740005 	ldclpl	0, cr0, [r4], #-20	@ 0xffffffec
     98c:	00050000 	andeq	r0, r5, r0
     990:	00006566 	andeq	r6, r0, r6, ror #10
     994:	2c9c0005 	ldccs	0, cr0, [ip], {5}
     998:	00050000 	andeq	r0, r5, r0
     99c:	00004c1c 	andeq	r4, r0, ip, lsl ip
     9a0:	2e970005 	cdpcs	0, 9, cr0, cr7, cr5, {0}
     9a4:	00050000 	andeq	r0, r5, r0
     9a8:	00001ec4 	andeq	r1, r0, r4, asr #29
     9ac:	3c2e0005 	stccc	0, cr0, [lr], #-20	@ 0xffffffec
     9b0:	00050000 	andeq	r0, r5, r0
     9b4:	00006276 	andeq	r6, r0, r6, ror r2
     9b8:	422d0005 	eormi	r0, sp, #5
     9bc:	00060000 	andeq	r0, r6, r0
     9c0:	00003a74 	andeq	r3, r0, r4, ror sl
     9c4:	2cbd0005 	ldccs	0, cr0, [sp], #20
     9c8:	00050000 	andeq	r0, r5, r0
     9cc:	000036d5 	ldrdeq	r3, [r0], -r5
     9d0:	4d010006 	stcmi	0, cr0, [r1, #-24]	@ 0xffffffe8
     9d4:	00050000 	andeq	r0, r5, r0
     9d8:	000062a8 	andeq	r6, r0, r8, lsr #5
     9dc:	48720006 	ldmdami	r2!, {r1, r2}^
     9e0:	00060000 	andeq	r0, r6, r0
     9e4:	0000620d 	andeq	r6, r0, sp, lsl #4
     9e8:	64a50006 	strtvs	r0, [r5], #6
     9ec:	00060000 	andeq	r0, r6, r0
     9f0:	00002d05 	andeq	r2, r0, r5, lsl #26
     9f4:	49d10005 	ldmibmi	r1, {r0, r2}^
     9f8:	00060000 	andeq	r0, r6, r0
     9fc:	00002f0c 	andeq	r2, r0, ip, lsl #30
     a00:	397c0006 	ldmdbcc	ip!, {r1, r2}^
     a04:	00060000 	andeq	r0, r6, r0
     a08:	0000412b 	andeq	r4, r0, fp, lsr #2
     a0c:	6b9e0005 	blvs	fe780a28 <_estack+0xde77ba28>
     a10:	00050000 	andeq	r0, r5, r0
     a14:	00002cd2 	ldrdeq	r2, [r0], -r2	@ <UNPREDICTABLE>
     a18:	581b0006 	ldmdapl	fp, {r1, r2}
     a1c:	00060000 	andeq	r0, r6, r0
     a20:	00006c54 	andeq	r6, r0, r4, asr ip
     a24:	453a0005 	ldrmi	r0, [sl, #-5]!
     a28:	00050000 	andeq	r0, r5, r0
     a2c:	00002d5d 	andeq	r2, r0, sp, asr sp
     a30:	3bcf0006 	blcc	ff3c0a50 <_estack+0xdf3bba50>
     a34:	00050000 	andeq	r0, r5, r0
     a38:	000004f2 	strdeq	r0, [r0], -r2
     a3c:	45990005 	ldrmi	r0, [r9, #5]
     a40:	00060000 	andeq	r0, r6, r0
     a44:	00006a9f 	muleq	r0, pc, sl	@ <UNPREDICTABLE>
     a48:	38fe0005 	ldmcc	lr!, {r0, r2}^
     a4c:	00050000 	andeq	r0, r5, r0
     a50:	0000319a 	muleq	r0, sl, r1
     a54:	66070005 	strvs	r0, [r7], -r5
     a58:	00050000 	andeq	r0, r5, r0
     a5c:	00006922 	andeq	r6, r0, r2, lsr #18
     a60:	64bb0005 	ldrtvs	r0, [fp], #5
     a64:	00050000 	andeq	r0, r5, r0
     a68:	00005691 	muleq	r0, r1, r6
     a6c:	25c20006 	strbcs	r0, [r2, #6]
     a70:	00050000 	andeq	r0, r5, r0
     a74:	0000492a 	andeq	r4, r0, sl, lsr #18
     a78:	692e0005 	stmdbvs	lr!, {r0, r2}
     a7c:	00050000 	andeq	r0, r5, r0
     a80:	00002fb5 			@ <UNDEFINED> instruction: 0x00002fb5
     a84:	0f350005 	svceq	0x00350005
     a88:	00060000 	andeq	r0, r6, r0
     a8c:	00003a5d 	andeq	r3, r0, sp, asr sl
     a90:	2f380006 	svccs	0x00380006
     a94:	00060000 	andeq	r0, r6, r0
     a98:	00004605 	andeq	r4, r0, r5, lsl #12
     a9c:	41d30006 	bicsmi	r0, r3, r6
     aa0:	00060000 	andeq	r0, r6, r0
     aa4:	000058b9 			@ <UNDEFINED> instruction: 0x000058b9
     aa8:	16350006 	ldrtne	r0, [r5], -r6
     aac:	00060000 	andeq	r0, r6, r0
     ab0:	00002aec 	andeq	r2, r0, ip, ror #21
     ab4:	50ac0006 	adcpl	r0, ip, r6
     ab8:	00060000 	andeq	r0, r6, r0
     abc:	000014ea 	andeq	r1, r0, sl, ror #9
     ac0:	21ed0006 	mvncs	r0, r6
     ac4:	00060000 	andeq	r0, r6, r0
     ac8:	00003dd4 	ldrdeq	r3, [r0], -r4
     acc:	152b0005 	strne	r0, [fp, #-5]!
     ad0:	00050000 	andeq	r0, r5, r0
     ad4:	000040ea 	andeq	r4, r0, sl, ror #1
     ad8:	29030005 	stmdbcs	r3, {r0, r2}
     adc:	00050000 	andeq	r0, r5, r0
     ae0:	00006f8e 	andeq	r6, r0, lr, lsl #31
     ae4:	204e0006 	subcs	r0, lr, r6
     ae8:	00050000 	andeq	r0, r5, r0
     aec:	00005e99 	muleq	r0, r9, lr
     af0:	428b0005 	addmi	r0, fp, #5
     af4:	00050000 	andeq	r0, r5, r0
     af8:	00006429 	andeq	r6, r0, r9, lsr #8
     afc:	5d930006 	ldcpl	0, cr0, [r3, #24]
     b00:	00050000 	andeq	r0, r5, r0
     b04:	000008a6 	andeq	r0, r0, r6, lsr #17
     b08:	5c310006 	ldcpl	0, cr0, [r1], #-24	@ 0xffffffe8
     b0c:	00060000 	andeq	r0, r6, r0
     b10:	00006fec 	andeq	r6, r0, ip, ror #31
     b14:	27080006 	strcs	r0, [r8, -r6]
     b18:	00060000 	andeq	r0, r6, r0
     b1c:	00000460 	andeq	r0, r0, r0, ror #8
     b20:	31a80006 			@ <UNDEFINED> instruction: 0x31a80006
     b24:	00060000 	andeq	r0, r6, r0
     b28:	000053ac 	andeq	r5, r0, ip, lsr #7
     b2c:	62c20005 	sbcvs	r0, r2, #5
     b30:	00050000 	andeq	r0, r5, r0
     b34:	00002822 	andeq	r2, r0, r2, lsr #16
     b38:	1db30005 	ldcne	0, cr0, [r3, #20]!
     b3c:	00050000 	andeq	r0, r5, r0
     b40:	0000110c 	andeq	r1, r0, ip, lsl #2
     b44:	47ed0005 	strbmi	r0, [sp, r5]!
     b48:	00050000 	andeq	r0, r5, r0
     b4c:	00006df8 	strdeq	r6, [r0], -r8
     b50:	1d560005 	ldclne	0, cr0, [r6, #-20]	@ 0xffffffec
     b54:	04000000 	streq	r0, [r0], #-0
     b58:	04050000 	streq	r0, [r5], #-0
     b5c:	00003891 	muleq	r0, r1, r8
     b60:	3a1b0605 	bcc	6c237c <_Min_Stack_Size+0x6c1f7c>
     b64:	07050000 	streq	r0, [r5, -r0]
     b68:	000018db 	ldrdeq	r1, [r0], -fp
     b6c:	3f270805 	svccc	0x00270805
     b70:	09050000 	stmdbeq	r5, {}	@ <UNPREDICTABLE>
     b74:	00004dd6 	ldrdeq	r4, [r0], -r6
     b78:	00000400 	andeq	r0, r0, r0, lsl #8
     b7c:	100e2105 	andne	r2, lr, r5, lsl #2
     b80:	28050000 	stmdacs	r5, {}	@ <UNPREDICTABLE>
     b84:	00005a05 	andeq	r5, r0, r5, lsl #20
     b88:	db018306 	blle	617a8 <_Min_Stack_Size+0x613a8>
     b8c:	05000064 	streq	r0, [r0, #-100]	@ 0xffffff9c
     b90:	31cd0184 	biccc	r0, sp, r4, lsl #3
     b94:	88060000 	stmdahi	r6, {}	@ <UNPREDICTABLE>
     b98:	002f7201 	eoreq	r7, pc, r1, lsl #4
     b9c:	01890500 	orreq	r0, r9, r0, lsl #10
     ba0:	00006658 	andeq	r6, r0, r8, asr r6
     ba4:	00018a06 	andeq	r8, r1, r6, lsl #20
     ba8:	0500006f 	streq	r0, [r0, #-111]	@ 0xffffff91
     bac:	1687018b 	strne	r0, [r7], fp, lsl #3
     bb0:	9e060000 	cdpls	0, 0, cr0, cr6, cr0, {0}
     bb4:	002c1e01 	eoreq	r1, ip, r1, lsl #28
     bb8:	019f0500 	orrseq	r0, pc, r0, lsl #10
     bbc:	00003d00 	andeq	r3, r0, r0, lsl #26
     bc0:	8501f705 	strhi	pc, [r1, #-1797]	@ 0xfffff8fb
     bc4:	05000044 	streq	r0, [r0, #-68]	@ 0xffffffbc
     bc8:	3c4301fd 	stfcce	f0, [r3], {253}	@ 0xfd
     bcc:	85050000 	strhi	r0, [r5, #-0]
     bd0:	004f8602 	subeq	r8, pc, r2, lsl #12
     bd4:	028a0500 	addeq	r0, sl, #0, 10
     bd8:	000045d1 	ldrdeq	r4, [r0], -r1
     bdc:	ab029505 	blge	a5ff8 <_Min_Stack_Size+0xa5bf8>
     be0:	05000018 	streq	r0, [r0, #-24]	@ 0xffffffe8
     be4:	4bdf0299 	blmi	ff7c1650 <_estack+0xdf7bc650>
     be8:	9f050000 	svcls	0x00050000
     bec:	0003c702 	andeq	ip, r3, r2, lsl #14
     bf0:	02af0500 	adceq	r0, pc, #0, 10
     bf4:	0000003a 	andeq	r0, r0, sl, lsr r0
     bf8:	e702bf05 	str	fp, [r2, -r5, lsl #30]
     bfc:	05000060 	streq	r0, [r0, #-96]	@ 0xffffffa0
     c00:	60a602cb 	adcvs	r0, r6, fp, asr #5
     c04:	04000000 	streq	r0, [r0], #-0
     c08:	0f050000 	svceq	0x00050000
     c0c:	00003d42 	andeq	r3, r0, r2, asr #26
     c10:	52211a05 	eorpl	r1, r1, #20480	@ 0x5000
     c14:	21050000 	mrscs	r0, (UNDEF: 5)
     c18:	00005f55 	andeq	r5, r0, r5, asr pc
     c1c:	2eb32f05 	cdpcs	15, 11, cr2, cr3, cr5, {0}
     c20:	3d050000 	stccc	0, cr0, [r5, #-0]
     c24:	000055b6 			@ <UNDEFINED> instruction: 0x000055b6
     c28:	3b775305 	blcc	1dd5844 <_Min_Stack_Size+0x1dd5444>
     c2c:	6d050000 	stcvs	0, cr0, [r5, #-0]
     c30:	000014c3 	andeq	r1, r0, r3, asr #9
     c34:	71018c05 	tstvc	r1, r5, lsl #24
     c38:	05000042 	streq	r0, [r0, #-66]	@ 0xffffffbe
     c3c:	12b801a6 	adcsne	r0, r8, #-2147483607	@ 0x80000029
     c40:	bc050000 	stclt	0, cr0, [r5], {-0}
     c44:	002b3101 	eoreq	r3, fp, r1, lsl #2
     c48:	01ce0500 	biceq	r0, lr, r0, lsl #10
     c4c:	00003cb2 			@ <UNDEFINED> instruction: 0x00003cb2
     c50:	fc01f406 	stc2	4, cr15, [r1], {6}
     c54:	00000040 	andeq	r0, r0, r0, asr #32
     c58:	05000004 	streq	r0, [r0, #-4]
     c5c:	0065db0a 	rsbeq	sp, r5, sl, lsl #22
     c60:	11100500 	tstne	r0, r0, lsl #10
     c64:	0600003d 			@ <UNDEFINED> instruction: 0x0600003d
     c68:	005c6d2b 	subseq	r6, ip, fp, lsr #26
     c6c:	6b2c0600 	blvs	b02474 <_Min_Stack_Size+0xb02074>
     c70:	0600005c 			@ <UNDEFINED> instruction: 0x0600005c
     c74:	0004ed2d 	andeq	lr, r4, sp, lsr #26
     c78:	9f2e0600 	svcls	0x002e0600
     c7c:	02000049 	andeq	r0, r0, #73	@ 0x49
     c80:	746e692f 	strbtvc	r6, [lr], #-2351	@ 0xfffff6d1
     c84:	6a300600 	bvs	c0248c <_Min_Stack_Size+0xc0208c>
     c88:	0600006e 	streq	r0, [r0], -lr, rrx
     c8c:	00032d31 	andeq	r2, r3, r1, lsr sp
     c90:	74320600 	ldrtvc	r0, [r2], #-1536	@ 0xfffffa00
     c94:	05000049 	streq	r0, [r0, #-73]	@ 0xffffffb7
     c98:	00344e33 	eorseq	r4, r4, r3, lsr lr
     c9c:	4c340500 	cfldr32mi	mvfx0, [r4], #-0
     ca0:	05000034 	streq	r0, [r0, #-52]	@ 0xffffffcc
     ca4:	00420535 	subeq	r0, r2, r5, lsr r5
     ca8:	61360500 	teqvs	r6, r0, lsl #10
     cac:	0500006d 	streq	r0, [r0, #-109]	@ 0xffffff93
     cb0:	00004b37 	andeq	r4, r0, r7, lsr fp
     cb4:	18380500 	ldmdane	r8!, {r8, sl}
     cb8:	05000054 	streq	r0, [r0, #-84]	@ 0xffffffac
     cbc:	00305e39 	eorseq	r5, r0, r9, lsr lr
     cc0:	133a0500 	teqne	sl, #0, 10
     cc4:	0500006b 	streq	r0, [r0, #-107]	@ 0xffffff95
     cc8:	002d4d43 	eoreq	r4, sp, r3, asr #26
     ccc:	914a0500 	cmpls	sl, r0, lsl #10
     cd0:	05000067 	streq	r0, [r0, #-103]	@ 0xffffff99
     cd4:	00079852 	andeq	r9, r7, r2, asr r8
     cd8:	855d0500 	ldrbhi	r0, [sp, #-1280]	@ 0xfffffb00
     cdc:	05000038 	streq	r0, [r0, #-56]	@ 0xffffffc8
     ce0:	002ba268 	eoreq	sl, fp, r8, ror #4
     ce4:	50710500 	rsbspl	r0, r1, r0, lsl #10
     ce8:	0500000f 	streq	r0, [r0, #-15]
     cec:	00637b78 	rsbeq	r7, r3, r8, ror fp
     cf0:	01810500 	orreq	r0, r1, r0, lsl #10
     cf4:	0000188c 	andeq	r1, r0, ip, lsl #17
     cf8:	1d018805 	stcne	8, cr8, [r1, #-20]	@ 0xffffffec
     cfc:	05000036 	streq	r0, [r0, #-54]	@ 0xffffffca
     d00:	342b0193 	strtcc	r0, [fp], #-403	@ 0xfffffe6d
     d04:	97050000 	strls	r0, [r5, -r0]
     d08:	00312d01 	eorseq	r2, r1, r1, lsl #26
     d0c:	01a20500 			@ <UNDEFINED> instruction: 0x01a20500
     d10:	00005d2f 	andeq	r5, r0, pc, lsr #26
     d14:	4201ad05 	andmi	sl, r1, #320	@ 0x140
     d18:	0500000f 	streq	r0, [r0, #-15]
     d1c:	47f501b6 			@ <UNDEFINED> instruction: 0x47f501b6
     d20:	b8060000 	stmdalt	r6, {}	@ <UNPREDICTABLE>
     d24:	005c6d01 	subseq	r6, ip, r1, lsl #26
     d28:	01b90600 			@ <UNDEFINED> instruction: 0x01b90600
     d2c:	00005c6b 	andeq	r5, r0, fp, ror #24
     d30:	ed01ba06 	vstr	s22, [r1, #-24]	@ 0xffffffe8
     d34:	06000004 	streq	r0, [r0], -r4
     d38:	499f01bb 	ldmibmi	pc, {r0, r1, r3, r4, r5, r7, r8}	@ <UNPREDICTABLE>
     d3c:	bc020000 	stclt	0, cr0, [r2], {-0}
     d40:	746e6901 	strbtvc	r6, [lr], #-2305	@ 0xfffff6ff
     d44:	01bd0600 			@ <UNDEFINED> instruction: 0x01bd0600
     d48:	00004974 	andeq	r4, r0, r4, ror r9
     d4c:	6a01c206 	bvs	7156c <_Min_Stack_Size+0x7116c>
     d50:	0600006e 	streq	r0, [r0], -lr, rrx
     d54:	032d01c3 			@ <UNDEFINED> instruction: 0x032d01c3
     d58:	04000000 	streq	r0, [r0], #-0
     d5c:	0a050000 	beq	140d64 <_Min_Stack_Size+0x140964>
     d60:	00000d78 	andeq	r0, r0, r8, ror sp
     d64:	65541505 	ldrbvs	r1, [r4, #-1285]	@ 0xfffffafb
     d68:	19050000 	stmdbne	r5, {}	@ <UNPREDICTABLE>
     d6c:	00001932 	andeq	r1, r0, r2, lsr r9
     d70:	2eb41b05 	vmovcs.f64	d1, #69	@ 0x3e280000  0.1640625
     d74:	21050000 	mrscs	r0, (UNDEF: 5)
     d78:	00002a1b 	andeq	r2, r0, fp, lsl sl
     d7c:	0d062505 	cfstr32eq	mvfx2, [r6, #-20]	@ 0xffffffec
     d80:	27050000 	strcs	r0, [r5, -r0]
     d84:	000055b7 			@ <UNDEFINED> instruction: 0x000055b7
     d88:	358c2d05 	strcc	r2, [ip, #3333]	@ 0xd05
     d8c:	31050000 	mrscc	r0, (UNDEF: 5)
     d90:	000001e8 	andeq	r0, r0, r8, ror #3
     d94:	3b783305 	blcc	1e0d9b0 <_Min_Stack_Size+0x1e0d5b0>
     d98:	39050000 	stmdbcc	r5, {}	@ <UNPREDICTABLE>
     d9c:	00005425 	andeq	r5, r0, r5, lsr #8
     da0:	15a03d05 	strne	r3, [r0, #3333]!	@ 0xd05
     da4:	3f050000 	svccc	0x00050000
     da8:	000014c4 	andeq	r1, r0, r4, asr #9
     dac:	24f34405 	ldrbtcs	r4, [r3], #1029	@ 0x405
     db0:	49050000 	stmdbmi	r5, {}	@ <UNPREDICTABLE>
     db4:	0000220b 	andeq	r2, r0, fp, lsl #4
     db8:	10774e05 	rsbsne	r4, r7, r5, lsl #28
     dbc:	53050000 	movwpl	r0, #20480	@ 0x5000
     dc0:	0000525a 	andeq	r5, r0, sl, asr r2
     dc4:	00000400 	andeq	r0, r0, r0, lsl #8
     dc8:	42721705 	rsbsmi	r1, r2, #1310720	@ 0x140000
     dcc:	1d050000 	stcne	0, cr0, [r5, #-0]
     dd0:	000012b9 			@ <UNDEFINED> instruction: 0x000012b9
     dd4:	2b322305 	blcs	c899f0 <_Min_Stack_Size+0xc895f0>
     dd8:	29050000 	stmdbcs	r5, {}	@ <UNPREDICTABLE>
     ddc:	00003cb3 			@ <UNDEFINED> instruction: 0x00003cb3
     de0:	42ea3505 	rscmi	r3, sl, #20971520	@ 0x1400000
     de4:	3f050000 	svccc	0x00050000
     de8:	00003e6b 	andeq	r3, r0, fp, ror #28
     dec:	0b1e4905 	bleq	793208 <_Min_Stack_Size+0x792e08>
     df0:	53050000 	movwpl	r0, #20480	@ 0x5000
     df4:	00001d9a 	muleq	r0, sl, sp
     df8:	e2018005 	and	r8, r1, #5
     dfc:	05000028 	streq	r0, [r0, #-40]	@ 0xffffffd8
     e00:	43e80181 	mvnmi	r0, #1073741856	@ 0x40000020
     e04:	82050000 	andhi	r0, r5, #0
     e08:	0014f701 	andseq	pc, r4, r1, lsl #14
     e0c:	01980500 	orrseq	r0, r8, r0, lsl #10
     e10:	00000c7d 	andeq	r0, r0, sp, ror ip
     e14:	be019905 	vmlalt.f16	s18, s2, s10	@ <UNPREDICTABLE>
     e18:	05000008 	streq	r0, [r0, #-8]
     e1c:	6aaa019a 	bvs	fea8148c <_estack+0xdea7c48c>
     e20:	a2050000 	andge	r0, r5, #0
     e24:	005f6501 	subseq	r6, pc, r1, lsl #10
     e28:	01a30500 			@ <UNDEFINED> instruction: 0x01a30500
     e2c:	00000e8a 	andeq	r0, r0, sl, lsl #29
     e30:	9201a405 	andls	sl, r1, #83886080	@ 0x5000000
     e34:	05000057 	streq	r0, [r0, #-87]	@ 0xffffffa9
     e38:	45e601ae 	strbmi	r0, [r6, #430]!	@ 0x1ae
     e3c:	af050000 	svcge	0x00050000
     e40:	000a1201 	andeq	r1, sl, r1, lsl #4
     e44:	01b00500 	lslseq	r0, r0, #10
     e48:	00003c12 	andeq	r3, r0, r2, lsl ip
     e4c:	5301b805 	movwpl	fp, #6149	@ 0x1805
     e50:	0500003c 	streq	r0, [r0, #-60]	@ 0xffffffc4
     e54:	07f801b9 			@ <UNDEFINED> instruction: 0x07f801b9
     e58:	ba050000 	blt	140e60 <_Min_Stack_Size+0x140a60>
     e5c:	0051db01 	subseq	sp, r1, r1, lsl #22
     e60:	01c40500 	biceq	r0, r4, r0, lsl #10
     e64:	00002ce6 	andeq	r2, r0, r6, ror #25
     e68:	d801c505 	stmdale	r1, {r0, r2, r8, sl, lr, pc}
     e6c:	05000022 	streq	r0, [r0, #-34]	@ 0xffffffde
     e70:	398f01c6 	stmibcc	pc, {r1, r2, r6, r7, r8}	@ <UNPREDICTABLE>
     e74:	d4050000 	strle	r0, [r5], #-0
     e78:	00274801 	eoreq	r4, r7, r1, lsl #16
     e7c:	01d50500 	bicseq	r0, r5, r0, lsl #10
     e80:	00002722 	andeq	r2, r0, r2, lsr #14
     e84:	c901d605 	stmdbgt	r1, {r0, r2, r9, sl, ip, lr, pc}
     e88:	05000059 	streq	r0, [r0, #-89]	@ 0xffffffa7
     e8c:	5d4d01e6 	stfple	f0, [sp, #-920]	@ 0xfffffc68
     e90:	e7050000 	str	r0, [r5, -r0]
     e94:	003ede01 	eorseq	sp, lr, r1, lsl #28
     e98:	01e80500 	mvneq	r0, r0, lsl #10
     e9c:	00005e3b 	andeq	r5, r0, fp, lsr lr
     ea0:	8f01f605 	svchi	0x0001f605
     ea4:	0500000f 	streq	r0, [r0, #-15]
     ea8:	0d8801f7 	stfeqs	f0, [r8, #988]	@ 0x3dc
     eac:	f8050000 			@ <UNDEFINED> instruction: 0xf8050000
     eb0:	004e9901 	subeq	r9, lr, r1, lsl #18
     eb4:	02860500 	addeq	r0, r6, #0, 10
     eb8:	0000400d 	andeq	r4, r0, sp
     ebc:	cf028705 	svcgt	0x00028705
     ec0:	0500001c 	streq	r0, [r0, #-28]	@ 0xffffffe4
     ec4:	6ad60288 	bvs	ff5818ec <_estack+0xdf57c8ec>
     ec8:	96050000 	strls	r0, [r5], -r0
     ecc:	002c2d02 	eoreq	r2, ip, r2, lsl #26
     ed0:	02970500 	addseq	r0, r7, #0, 10
     ed4:	0000081e 	andeq	r0, r0, lr, lsl r8
     ed8:	3c029805 	stccc	8, cr9, [r2], {5}
     edc:	05000059 	streq	r0, [r0, #-89]	@ 0xffffffa7
     ee0:	10a502a6 	adcne	r0, r5, r6, lsr #5
     ee4:	a7050000 	strge	r0, [r5, -r0]
     ee8:	006e9602 	rsbeq	r9, lr, r2, lsl #12
     eec:	02a80500 	adceq	r0, r8, #0, 10
     ef0:	000004b2 			@ <UNDEFINED> instruction: 0x000004b2
     ef4:	1602b605 	strne	fp, [r2], -r5, lsl #12
     ef8:	05000047 	streq	r0, [r0, #-71]	@ 0xffffffb9
     efc:	662202b7 			@ <UNDEFINED> instruction: 0x662202b7
     f00:	b8050000 	stmdalt	r5, {}	@ <UNPREDICTABLE>
     f04:	004bf002 	subeq	pc, fp, r2
     f08:	02c60500 	sbceq	r0, r6, #0, 10
     f0c:	000022bc 			@ <UNDEFINED> instruction: 0x000022bc
     f10:	ca02c705 	bgt	b2b2c <_Min_Stack_Size+0xb272c>
     f14:	05000019 	streq	r0, [r0, #-25]	@ 0xffffffe7
     f18:	1cf102cf 	lfmne	f0, 2, [r1], #828	@ 0x33c
     f1c:	d7050000 	strle	r0, [r5, -r0]
     f20:	00538602 	subseq	r8, r3, r2, lsl #12
     f24:	02dd0500 	sbcseq	r0, sp, #0, 10
     f28:	000029ef 	andeq	r2, r0, pc, ror #19
     f2c:	ba02de05 	blt	b8748 <_Min_Stack_Size+0xb8348>
     f30:	05000020 	streq	r0, [r0, #-32]	@ 0xffffffe0
     f34:	090602e2 	stmdbeq	r6, {r1, r5, r6, r7, r9}
     f38:	e6050000 	str	r0, [r5], -r0
     f3c:	001f6b02 	andseq	r6, pc, r2, lsl #22
     f40:	02eb0500 	rsceq	r0, fp, #0, 10
     f44:	00001a10 	andeq	r1, r0, r0, lsl sl
     f48:	5d02f605 	stcpl	6, cr15, [r2, #-20]	@ 0xffffffec
     f4c:	0500000e 	streq	r0, [r0, #-14]
     f50:	3a030380 	bcc	c1d58 <_Min_Stack_Size+0xc1958>
     f54:	85050000 	strhi	r0, [r5, #-0]
     f58:	00000003 	andeq	r0, r0, r3
     f5c:	038c0500 	orreq	r0, ip, #0, 10
     f60:	00003065 	andeq	r3, r0, r5, rrx
     f64:	d4038d05 	strle	r8, [r3], #-3333	@ 0xfffff2fb
     f68:	0500005e 	streq	r0, [r0, #-94]	@ 0xffffffa2
     f6c:	0b620398 	bleq	1881dd4 <_Min_Stack_Size+0x18819d4>
     f70:	99050000 	stmdbls	r5, {}	@ <UNPREDICTABLE>
     f74:	0065a003 	rsbeq	sl, r5, r3
     f78:	03a40500 			@ <UNDEFINED> instruction: 0x03a40500
     f7c:	00005924 	andeq	r5, r0, r4, lsr #18
     f80:	6503a505 	strvs	sl, [r3, #-1285]	@ 0xfffffafb
     f84:	0500003f 	streq	r0, [r0, #-63]	@ 0xffffffc1
     f88:	2c0603b1 	stccs	3, cr0, [r6], {177}	@ 0xb1
     f8c:	b2050000 	andlt	r0, r5, #0
     f90:	00574f03 	subseq	r4, r7, r3, lsl #30
     f94:	03c10500 	biceq	r0, r1, #0, 10
     f98:	00006f74 	andeq	r6, r0, r4, ror pc
     f9c:	c303c205 	movwgt	ip, #12805	@ 0x3205
     fa0:	0000004b 	andeq	r0, r0, fp, asr #32
     fa4:	05000004 	streq	r0, [r0, #-4]
     fa8:	006dc511 	rsbeq	ip, sp, r1, lsl r5
     fac:	1b120500 	blne	4823b4 <_Min_Stack_Size+0x481fb4>
     fb0:	0500002d 	streq	r0, [r0, #-45]	@ 0xffffffd3
     fb4:	00171b13 	andseq	r1, r7, r3, lsl fp
     fb8:	3e140500 	cfmul32cc	mvfx0, mvfx4, mvfx0
     fbc:	05000036 	streq	r0, [r0, #-54]	@ 0xffffffca
     fc0:	000d1a17 	andeq	r1, sp, r7, lsl sl
     fc4:	31180500 	tstcc	r8, r0, lsl #10
     fc8:	05000014 	streq	r0, [r0, #-20]	@ 0xffffffec
     fcc:	00313b19 	eorseq	r3, r1, r9, lsl fp
     fd0:	9a1b0500 	bls	6c23d8 <_Min_Stack_Size+0x6c1fd8>
     fd4:	0500003a 	streq	r0, [r0, #-58]	@ 0xffffffc6
     fd8:	004e5c1c 	subeq	r5, lr, ip, lsl ip
     fdc:	ac1d0500 	cfldr32ge	mvfx0, [sp], {-0}
     fe0:	0500004c 	streq	r0, [r0, #-76]	@ 0xffffffb4
     fe4:	005da845 	subseq	sl, sp, r5, asr #16
     fe8:	99490500 	stmdbls	r9, {r8, sl}^
     fec:	0500001e 	streq	r0, [r0, #-30]	@ 0xffffffe2
     ff0:	0022ac4e 	eoreq	sl, r2, lr, asr #24
     ff4:	00040000 	andeq	r0, r4, r0
     ff8:	aa180500 	bge	602400 <_Min_Stack_Size+0x602000>
     ffc:	05000047 	streq	r0, [r0, #-71]	@ 0xffffffb9
    1000:	00260019 	eoreq	r0, r6, r9, lsl r0
    1004:	821a0500 	andshi	r0, sl, #0, 10
    1008:	0500006a 	streq	r0, [r0, #-106]	@ 0xffffff96
    100c:	001b5d1c 	andseq	r5, fp, ip, lsl sp
    1010:	d61d0500 	ldrle	r0, [sp], -r0, lsl #10
    1014:	05000016 	streq	r0, [r0, #-22]	@ 0xffffffea
    1018:	00698726 	rsbeq	r8, r9, r6, lsr #14
    101c:	5b270500 	blpl	9c2424 <_Min_Stack_Size+0x9c2024>
    1020:	0500001e 	streq	r0, [r0, #-30]	@ 0xffffffe2
    1024:	0027ab35 	eoreq	sl, r7, r5, lsr fp
    1028:	e73d0500 	ldr	r0, [sp, -r0, lsl #10]!
    102c:	0500006e 	streq	r0, [r0, #-110]	@ 0xffffff92
    1030:	0024da3e 	eoreq	sp, r4, lr, lsr sl
    1034:	34420500 	strbcc	r0, [r2], #-1280	@ 0xfffffb00
    1038:	0500006a 	streq	r0, [r0, #-106]	@ 0xffffff96
    103c:	003c7e4c 	eorseq	r7, ip, ip, asr #28
    1040:	a14d0500 	cmpge	sp, r0, lsl #10
    1044:	05000058 	streq	r0, [r0, #-88]	@ 0xffffffa8
    1048:	00566251 	subseq	r6, r6, r1, asr r2
    104c:	82520500 	subshi	r0, r2, #0, 10
    1050:	0500001d 	streq	r0, [r0, #-29]	@ 0xffffffe3
    1054:	006d3656 	rsbeq	r3, sp, r6, asr r6
    1058:	ae5a0500 	cdpge	5, 5, cr0, cr10, cr0, {0}
    105c:	0500000e 	streq	r0, [r0, #-14]
    1060:	001f8a5e 	andseq	r8, pc, lr, asr sl	@ <UNPREDICTABLE>
    1064:	8e620500 	cdphi	5, 6, cr0, cr2, cr0, {0}
    1068:	0500005f 	streq	r0, [r0, #-95]	@ 0xffffffa1
    106c:	005b5266 	subseq	r5, fp, r6, ror #4
    1070:	816a0500 	cmnhi	sl, r0, lsl #10
    1074:	05000040 	streq	r0, [r0, #-64]	@ 0xffffffc0
    1078:	0056236b 	subseq	r2, r6, fp, ror #6
    107c:	02920500 	addseq	r0, r2, #0, 10
    1080:	00000a5e 	andeq	r0, r0, lr, asr sl
    1084:	b1029305 	tstlt	r2, r5, lsl #6
    1088:	0500005e 	streq	r0, [r0, #-94]	@ 0xffffffa2
    108c:	282c029a 	stmdacs	ip!, {r1, r3, r4, r7, r9}
    1090:	9b050000 	blls	141098 <_Min_Stack_Size+0x140c98>
    1094:	000f0d02 	andeq	r0, pc, r2, lsl #26
    1098:	029c0500 	addseq	r0, ip, #0, 10
    109c:	00006e02 	andeq	r6, r0, r2, lsl #28
    10a0:	fb029d05 	blx	a84be <_Min_Stack_Size+0xa80be>
    10a4:	05000062 	streq	r0, [r0, #-98]	@ 0xffffff9e
    10a8:	5727029e 			@ <UNDEFINED> instruction: 0x5727029e
    10ac:	a0050000 	andge	r0, r5, r0
    10b0:	0003de02 	andeq	sp, r3, r2, lsl #28
    10b4:	02a20500 	adceq	r0, r2, #0, 10
    10b8:	00004979 	andeq	r4, r0, r9, ror r9
    10bc:	0602a405 	streq	sl, [r2], -r5, lsl #8
    10c0:	05000006 	streq	r0, [r0, #-6]
    10c4:	09d202a6 	ldmibeq	r2, {r1, r2, r5, r7, r9}^
    10c8:	a7050000 	strge	r0, [r5, -r0]
    10cc:	003fbe02 	eorseq	fp, pc, r2, lsl #28
    10d0:	02a80500 	adceq	r0, r8, #0, 10
    10d4:	0000681a 	andeq	r6, r0, sl, lsl r8
    10d8:	3202aa05 	andcc	sl, r2, #20480	@ 0x5000
    10dc:	0500005a 	streq	r0, [r0, #-90]	@ 0xffffffa6
    10e0:	247902ab 	ldrbtcs	r0, [r9], #-683	@ 0xfffffd55
    10e4:	ad050000 	stcge	0, cr0, [r5, #-0]
    10e8:	0005a402 	andeq	sl, r5, r2, lsl #8
    10ec:	02ae0500 	adceq	r0, lr, #0, 10
    10f0:	000034cf 	andeq	r3, r0, pc, asr #9
    10f4:	5b02c705 	blpl	b2d10 <_Min_Stack_Size+0xb2910>
    10f8:	05000053 	streq	r0, [r0, #-83]	@ 0xffffffad
    10fc:	69fd02c8 	ldmibvs	sp!, {r3, r6, r7, r9}^
    1100:	c9050000 	stmdbgt	r5, {}	@ <UNPREDICTABLE>
    1104:	00230102 	eoreq	r0, r3, r2, lsl #2
    1108:	02ca0500 	sbceq	r0, sl, #0, 10
    110c:	000028cb 	andeq	r2, r0, fp, asr #17
    1110:	a402cb05 	strge	ip, [r2], #-2821	@ 0xfffff4fb
    1114:	05000007 	streq	r0, [r0, #-7]
    1118:	208102cc 	addcs	r0, r1, ip, asr #5
    111c:	cd050000 	stcgt	0, cr0, [r5, #-0]
    1120:	006afa02 	rsbeq	pc, sl, r2, lsl #20
    1124:	02ce0500 	sbceq	r0, lr, #0, 10
    1128:	00000669 	andeq	r0, r0, r9, ror #12
    112c:	c702cf05 	strgt	ip, [r2, -r5, lsl #30]
    1130:	05000052 	streq	r0, [r0, #-82]	@ 0xffffffae
    1134:	2b7602d0 	blcs	1d81c7c <_Min_Stack_Size+0x1d8187c>
    1138:	d1050000 	mrsle	r0, (UNDEF: 5)
    113c:	0068ae02 	rsbeq	sl, r8, r2, lsl #28
    1140:	02d20500 	sbcseq	r0, r2, #0, 10
    1144:	0000523a 	andeq	r5, r0, sl, lsr r2
    1148:	b202d305 	andlt	sp, r2, #335544320	@ 0x14000000
    114c:	05000059 	streq	r0, [r0, #-89]	@ 0xffffffa7
    1150:	6e2a02d4 	mcrvs	2, 1, r0, cr10, cr4, {6}
    1154:	d5050000 	strle	r0, [r5, #-0]
    1158:	0054ad02 	subseq	sl, r4, r2, lsl #26
    115c:	02d60500 	sbcseq	r0, r6, #0, 10
    1160:	000039bd 			@ <UNDEFINED> instruction: 0x000039bd
    1164:	7502d705 	strvc	sp, [r2, #-1797]	@ 0xfffff8fb
    1168:	05000051 	streq	r0, [r0, #-81]	@ 0xffffffaf
    116c:	10ce02d8 	ldrdne	r0, [lr], #40	@ 0x28
    1170:	d9050000 	stmdble	r5, {}	@ <UNPREDICTABLE>
    1174:	0053fd02 	subseq	pc, r3, r2, lsl #26
    1178:	02da0500 	sbcseq	r0, sl, #0, 10
    117c:	0000513e 	andeq	r5, r0, lr, lsr r1
    1180:	0402db05 	streq	sp, [r2], #-2821	@ 0xfffff4fb
    1184:	05000060 	streq	r0, [r0, #-96]	@ 0xffffffa0
    1188:	350302dc 	strcc	r0, [r3, #-732]	@ 0xfffffd24
    118c:	dd050000 	stcle	0, cr0, [r5, #-0]
    1190:	004a0502 	subeq	r0, sl, r2, lsl #10
    1194:	02de0500 	sbcseq	r0, lr, #0, 10
    1198:	00003458 	andeq	r3, r0, r8, asr r4
    119c:	d702df05 	strle	sp, [r2, -r5, lsl #30]
    11a0:	0500004a 	streq	r0, [r0, #-74]	@ 0xffffffb6
    11a4:	165a02e0 	ldrbne	r0, [sl], -r0, ror #5
    11a8:	e1050000 	mrs	r0, (UNDEF: 5)
    11ac:	001d1f02 	andseq	r1, sp, r2, lsl #30
    11b0:	02e20500 	rsceq	r0, r2, #0, 10
    11b4:	00000b96 	muleq	r0, r6, fp
    11b8:	2302e305 	movwcs	lr, #8965	@ 0x2305
    11bc:	0500003b 	streq	r0, [r0, #-59]	@ 0xffffffc5
    11c0:	243202e4 	ldrtcs	r0, [r2], #-740	@ 0xfffffd1c
    11c4:	e5050000 	str	r0, [r5, #-0]
    11c8:	001cb902 	andseq	fp, ip, r2, lsl #18
    11cc:	02e60500 	rsceq	r0, r6, #0, 10
    11d0:	000060bc 	strheq	r6, [r0], -ip
    11d4:	0102e705 	tsteq	r2, r5, lsl #14
    11d8:	05000004 	streq	r0, [r0, #-4]
    11dc:	6fd602e8 	svcvs	0x00d602e8
    11e0:	e9050000 	stmdb	r5, {}	@ <UNPREDICTABLE>
    11e4:	00008602 	andeq	r8, r0, r2, lsl #12
    11e8:	02ea0500 	rsceq	r0, sl, #0, 10
    11ec:	00000c9a 	muleq	r0, sl, ip
    11f0:	de02eb05 	vmlale.f64	d14, d2, d5
    11f4:	0500001a 	streq	r0, [r0, #-26]	@ 0xffffffe6
    11f8:	029202ec 	addseq	r0, r2, #236, 4	@ 0xc000000e
    11fc:	ed050000 	stc	0, cr0, [r5, #-0]
    1200:	00278b02 	eoreq	r8, r7, r2, lsl #22
    1204:	02ee0500 	rsceq	r0, lr, #0, 10
    1208:	00004d46 	andeq	r4, r0, r6, asr #26
    120c:	7e02ef05 	cdpvc	15, 0, cr14, cr2, cr5, {0}
    1210:	05000025 	streq	r0, [r0, #-37]	@ 0xffffffdb
    1214:	10ec02f0 	strdne	r0, [ip], #32	@ <UNPREDICTABLE>
    1218:	f4050000 	vst4.8	{d0-d3}, [r5], r0
    121c:	00396602 	eorseq	r6, r9, r2, lsl #12
    1220:	02f50500 	rscseq	r0, r5, #0, 10
    1224:	00006111 	andeq	r6, r0, r1, lsl r1
    1228:	6402f605 	strvs	pc, [r2], #-1541	@ 0xfffff9fb
    122c:	0500006a 	streq	r0, [r0, #-106]	@ 0xffffff96
    1230:	0d4e02f7 	sfmeq	f0, 2, [lr, #-988]	@ 0xfffffc24
    1234:	f8050000 			@ <UNDEFINED> instruction: 0xf8050000
    1238:	0020e102 	eoreq	lr, r0, r2, lsl #2
    123c:	02f90500 	rscseq	r0, r9, #0, 10
    1240:	00006e72 	andeq	r6, r0, r2, ror lr
    1244:	f502fa05 			@ <UNDEFINED> instruction: 0xf502fa05
    1248:	05000037 	streq	r0, [r0, #-55]	@ 0xffffffc9
    124c:	392302fb 	stmdbcc	r3!, {r0, r1, r3, r4, r5, r6, r7, r9}
    1250:	fc050000 	stc2	0, cr0, [r5], {-0}
    1254:	003fe902 	eorseq	lr, pc, r2, lsl #18
    1258:	02fd0500 	rscseq	r0, sp, #0, 10
    125c:	000018c1 	andeq	r1, r0, r1, asr #17
    1260:	6b02fe05 	blvs	c0a7c <_Min_Stack_Size+0xc067c>
    1264:	0500006b 	streq	r0, [r0, #-107]	@ 0xffffff95
    1268:	111402ff 			@ <UNDEFINED> instruction: 0x111402ff
    126c:	80050000 	andhi	r0, r5, r0
    1270:	00277303 	eoreq	r7, r7, r3, lsl #6
    1274:	03810500 	orreq	r0, r1, #0, 10
    1278:	00003ef8 	strdeq	r3, [r0], -r8
    127c:	89038205 	stmdbhi	r3, {r0, r2, r9, pc}
    1280:	05000021 	streq	r0, [r0, #-33]	@ 0xffffffdf
    1284:	57100383 	ldrpl	r0, [r0, -r3, lsl #7]
    1288:	84050000 	strhi	r0, [r5], #-0
    128c:	006c9303 	rsbeq	r9, ip, r3, lsl #6
    1290:	03850500 	orreq	r0, r5, #0, 10
    1294:	000008d6 	ldrdeq	r0, [r0], -r6
    1298:	9a038905 	bls	e36b4 <_Min_Stack_Size+0xe32b4>
    129c:	05000066 	streq	r0, [r0, #-102]	@ 0xffffff9a
    12a0:	4aa4038a 	bmi	fe9020d0 <_estack+0xde8fd0d0>
    12a4:	8b050000 	blhi	1412ac <_Min_Stack_Size+0x140eac>
    12a8:	002f8003 	eoreq	r8, pc, r3
    12ac:	038c0500 	orreq	r0, ip, #0, 10
    12b0:	00002058 	andeq	r2, r0, r8, asr r0
    12b4:	6c039005 	stcvs	0, cr9, [r3], {5}
    12b8:	0500005d 	streq	r0, [r0, #-93]	@ 0xffffffa3
    12bc:	25d70391 	ldrbcs	r0, [r7, #913]	@ 0x391
    12c0:	92050000 	andls	r0, r5, #0
    12c4:	0049a503 	subeq	sl, r9, r3, lsl #10
    12c8:	03930500 	orrseq	r0, r3, #0, 10
    12cc:	00005c55 	andeq	r5, r0, r5, asr ip
    12d0:	98039405 	stmdals	r3, {r0, r2, sl, ip, pc}
    12d4:	05000040 	streq	r0, [r0, #-64]	@ 0xffffffc0
    12d8:	628a0395 	addvs	r0, sl, #1409286146	@ 0x54000002
    12dc:	96050000 	strls	r0, [r5], -r0
    12e0:	00086f03 	andeq	r6, r8, r3, lsl #30
    12e4:	03970500 	orrseq	r0, r7, #0, 10
    12e8:	00003d57 	andeq	r3, r0, r7, asr sp
    12ec:	cb039805 	blgt	e7308 <_Min_Stack_Size+0xe6f08>
    12f0:	05000030 	streq	r0, [r0, #-48]	@ 0xffffffd0
    12f4:	61c00399 			@ <UNDEFINED> instruction: 0x61c00399
    12f8:	9a050000 	bls	141300 <_Min_Stack_Size+0x140f00>
    12fc:	00213203 	eoreq	r3, r1, r3, lsl #4
    1300:	039b0500 	orrseq	r0, fp, #0, 10
    1304:	00004498 	muleq	r0, r8, r4
    1308:	71039c05 	tstvc	r3, r5, lsl #24
    130c:	0500001e 	streq	r0, [r0, #-30]	@ 0xffffffe2
    1310:	2403039d 	strcs	r0, [r3], #-925	@ 0xfffffc63
    1314:	9e050000 	cdpls	0, 0, cr0, cr5, cr0, {0}
    1318:	0053dd03 	subseq	sp, r3, r3, lsl #26
    131c:	039f0500 	orrseq	r0, pc, #0, 10
    1320:	00003356 	andeq	r3, r0, r6, asr r3
    1324:	ae03a005 	cdpge	0, 0, cr10, cr3, cr5, {0}
    1328:	05000051 	streq	r0, [r0, #-81]	@ 0xffffffaf
    132c:	5eec03a1 	cdppl	3, 14, cr0, cr12, cr1, {5}
    1330:	a2050000 	andge	r0, r5, #0
    1334:	00234d03 	eoreq	r4, r3, r3, lsl #26
    1338:	03a30500 			@ <UNDEFINED> instruction: 0x03a30500
    133c:	00000708 	andeq	r0, r0, r8, lsl #14
    1340:	6603a405 	strvs	sl, [r3], -r5, lsl #8
    1344:	0500001d 	streq	r0, [r0, #-29]	@ 0xffffffe3
    1348:	222003a5 	eorcs	r0, r0, #-1811939326	@ 0x94000002
    134c:	a6050000 	strge	r0, [r5], -r0
    1350:	00093c03 	andeq	r3, r9, r3, lsl #24
    1354:	03a70500 			@ <UNDEFINED> instruction: 0x03a70500
    1358:	00000a2c 	andeq	r0, r0, ip, lsr #20
    135c:	5f03a805 	svcpl	0x0003a805
    1360:	05000060 	streq	r0, [r0, #-96]	@ 0xffffffa0
    1364:	2a4803a9 	bcs	1202210 <_Min_Stack_Size+0x1201e10>
    1368:	aa050000 	bge	141370 <_Min_Stack_Size+0x140f70>
    136c:	00462303 	subeq	r2, r6, r3, lsl #6
    1370:	03ab0500 			@ <UNDEFINED> instruction: 0x03ab0500
    1374:	000056c3 	andeq	r5, r0, r3, asr #13
    1378:	d503ac05 	strle	sl, [r3, #-3077]	@ 0xfffff3fb
    137c:	05000011 	streq	r0, [r0, #-17]	@ 0xffffffef
    1380:	644f03ad 	strbvs	r0, [pc], #-941	@ 1388 <_Min_Stack_Size+0xf88>
    1384:	ae050000 	cdpge	0, 0, cr0, cr5, cr0, {0}
    1388:	004e8303 	subeq	r8, lr, r3, lsl #6
    138c:	03af0500 			@ <UNDEFINED> instruction: 0x03af0500
    1390:	000034a4 	andeq	r3, r0, r4, lsr #9
    1394:	ee03b005 	cdp	0, 0, cr11, cr3, cr5, {0}
    1398:	0500004d 	streq	r0, [r0, #-77]	@ 0xffffffb3
    139c:	1d3d03b1 	ldcne	3, cr0, [sp, #-708]!	@ 0xfffffd3c
    13a0:	b2050000 	andlt	r0, r5, #0
    13a4:	005e5703 	subseq	r5, lr, r3, lsl #14
    13a8:	03b30500 			@ <UNDEFINED> instruction: 0x03b30500
    13ac:	0000424f 	andeq	r4, r0, pc, asr #4
    13b0:	f903b405 			@ <UNDEFINED> instruction: 0xf903b405
    13b4:	05000030 	streq	r0, [r0, #-48]	@ 0xffffffd0
    13b8:	199703b5 	ldmibne	r7, {r0, r2, r4, r5, r7, r8, r9}
    13bc:	b6050000 	strlt	r0, [r5], -r0
    13c0:	0018e803 	andseq	lr, r8, r3, lsl #16
    13c4:	03b70500 			@ <UNDEFINED> instruction: 0x03b70500
    13c8:	00002a9a 	muleq	r0, sl, sl
    13cc:	0803b805 	stmdaeq	r3, {r0, r2, fp, ip, sp, pc}
    13d0:	05000005 	streq	r0, [r0, #-5]
    13d4:	478403b9 			@ <UNDEFINED> instruction: 0x478403b9
    13d8:	bd050000 	stclt	0, cr0, [r5, #-0]
    13dc:	0013e703 	andseq	lr, r3, r3, lsl #14
    13e0:	03be0500 			@ <UNDEFINED> instruction: 0x03be0500
    13e4:	00005330 	andeq	r5, r0, r0, lsr r3
    13e8:	0403bf05 	streq	fp, [r3], #-3845	@ 0xfffff0fb
    13ec:	05000048 	streq	r0, [r0, #-72]	@ 0xffffffb8
    13f0:	653e03c0 	ldrvs	r0, [lr, #-960]!	@ 0xfffffc40
    13f4:	c1050000 	mrsgt	r0, (UNDEF: 5)
    13f8:	0021a903 	eoreq	sl, r1, r3, lsl #18
    13fc:	03c20500 	biceq	r0, r2, #0, 10
    1400:	00002114 	andeq	r2, r0, r4, lsl r1
    1404:	fb03c305 	blx	f2022 <_Min_Stack_Size+0xf1c22>
    1408:	05000056 	streq	r0, [r0, #-86]	@ 0xffffffaa
    140c:	545c03c4 	ldrbpl	r0, [ip], #-964	@ 0xfffffc3c
    1410:	c5050000 	strgt	r0, [r5, #-0]
    1414:	00034c03 	andeq	r4, r3, r3, lsl #24
    1418:	03c60500 	biceq	r0, r6, #0, 10
    141c:	0000337e 	andeq	r3, r0, lr, ror r3
    1420:	ea03c705 	b	f303c <_Min_Stack_Size+0xf2c3c>
    1424:	05000017 	streq	r0, [r0, #-23]	@ 0xffffffe9
    1428:	500303c8 	andpl	r0, r3, r8, asr #7
    142c:	c9050000 	stmdbgt	r5, {}	@ <UNPREDICTABLE>
    1430:	004a5d03 	subeq	r5, sl, r3, lsl #26
    1434:	03ca0500 	biceq	r0, sl, #0, 10
    1438:	00004c73 	andeq	r4, r0, r3, ror ip
    143c:	cd03cb05 	vstrgt	d12, [r3, #-20]	@ 0xffffffec
    1440:	0500005f 	streq	r0, [r0, #-95]	@ 0xffffffa1
    1444:	09b903cc 	ldmibeq	r9!, {r2, r3, r6, r7, r8, r9}
    1448:	cd050000 	stcgt	0, cr0, [r5, #-0]
    144c:	0037c203 	eorseq	ip, r7, r3, lsl #4
    1450:	03ce0500 	biceq	r0, lr, #0, 10
    1454:	00006144 	andeq	r6, r0, r4, asr #2
    1458:	3b03cf05 	blcc	f5074 <_Min_Stack_Size+0xf4c74>
    145c:	05000067 	streq	r0, [r0, #-103]	@ 0xffffff99
    1460:	17bb03d0 	sbfxne	r0, r0, #7, #28
    1464:	d1050000 	mrsle	r0, (UNDEF: 5)
    1468:	005f0a03 	subseq	r0, pc, r3, lsl #20
    146c:	03d20500 	bicseq	r0, r2, #0, 10
    1470:	000029da 	ldrdeq	r2, [r0], -sl
    1474:	5303d305 	movwpl	sp, #13061	@ 0x3305
    1478:	05000068 	streq	r0, [r0, #-104]	@ 0xffffff98
    147c:	6d7b03d4 	ldclvs	3, cr0, [fp, #-848]!	@ 0xfffffcb0
    1480:	04000000 	streq	r0, [r0], #-0
    1484:	0a050000 	beq	14148c <_Min_Stack_Size+0x14108c>
    1488:	00004473 	andeq	r4, r0, r3, ror r4
    148c:	67220f05 	strvs	r0, [r2, -r5, lsl #30]!
    1490:	11050000 	mrsne	r0, (UNDEF: 5)
    1494:	00005962 	andeq	r5, r0, r2, ror #18
    1498:	5fa71205 	svcpl	0x00a71205
    149c:	14050000 	strne	r0, [r5], #-0
    14a0:	00006d97 	muleq	r0, r7, sp
    14a4:	67741505 	ldrbvs	r1, [r4, -r5, lsl #10]!
    14a8:	17050000 	strne	r0, [r5, -r0]
    14ac:	00005b30 	andeq	r5, r0, r0, lsr fp
    14b0:	078b1805 	streq	r1, [fp, r5, lsl #16]
    14b4:	1c050000 	stcne	0, cr0, [r5], {-0}
    14b8:	00000d67 	andeq	r0, r0, r7, ror #26
    14bc:	2a751d05 	bcs	1d488d8 <_Min_Stack_Size+0x1d484d8>
    14c0:	1e050000 	cdpne	0, 0, cr0, cr5, cr0, {0}
    14c4:	000011c2 	andeq	r1, r0, r2, asr #3
    14c8:	4d891f05 	stcmi	15, cr1, [r9, #20]
    14cc:	20050000 	andcs	r0, r5, r0
    14d0:	000067e9 	andeq	r6, r0, r9, ror #15
    14d4:	02352105 	eorseq	r2, r5, #1073741825	@ 0x40000001
    14d8:	22050000 	andcs	r0, r5, #0
    14dc:	000008f4 	strdeq	r0, [r0], -r4
    14e0:	336c2305 	cmncc	ip, #335544320	@ 0x14000000
    14e4:	24050000 	strcs	r0, [r5], #-0
    14e8:	000039ab 	andeq	r3, r0, fp, lsr #19
    14ec:	4d342505 	cfldr32mi	mvfx2, [r4, #-20]!	@ 0xffffffec
    14f0:	26050000 	strcs	r0, [r5], -r0
    14f4:	000064eb 	andeq	r6, r0, fp, ror #9
    14f8:	1a2a2705 	bne	a8b114 <_Min_Stack_Size+0xa8ad14>
    14fc:	28050000 	stmdacs	r5, {}	@ <UNPREDICTABLE>
    1500:	000063f4 	strdeq	r6, [r0], -r4
    1504:	3b9d2905 	blcc	fe74b920 <_estack+0xde746920>
    1508:	2a050000 	bcs	141510 <_Min_Stack_Size+0x141110>
    150c:	000012e5 	andeq	r1, r0, r5, ror #5
    1510:	67a12b05 	strvs	r2, [r1, r5, lsl #22]!
    1514:	2c050000 	stccs	0, cr0, [r5], {-0}
    1518:	00005800 	andeq	r5, r0, r0, lsl #16
    151c:	58562d05 	ldmdapl	r6, {r0, r2, r8, sl, fp, sp}^
    1520:	2e050000 	cdpcs	0, 0, cr0, cr5, cr0, {0}
    1524:	00006180 	andeq	r6, r0, r0, lsl #3
    1528:	52eb2f05 	rscpl	r2, fp, #5, 30
    152c:	30050000 	andcc	r0, r5, r0
    1530:	0000185c 	andeq	r1, r0, ip, asr r8
    1534:	5c8e3105 	stfpls	f3, [lr], {5}
    1538:	32050000 	andcc	r0, r5, #0
    153c:	00000318 	andeq	r0, r0, r8, lsl r3
    1540:	280d3305 	stmdacs	sp, {r0, r2, r8, r9, ip, sp}
    1544:	34050000 	strcc	r0, [r5], #-0
    1548:	000055a0 	andeq	r5, r0, r0, lsr #11
    154c:	261f3505 	ldrcs	r3, [pc], -r5, lsl #10
    1550:	36050000 	strcc	r0, [r5], -r0
    1554:	0000648b 	andeq	r6, r0, fp, lsl #9
    1558:	2c6f3705 	stclcs	7, cr3, [pc], #-20	@ 154c <_Min_Stack_Size+0x114c>
    155c:	38050000 	stmdacc	r5, {}	@ <UNPREDICTABLE>
    1560:	00004772 	andeq	r4, r0, r2, ror r7
    1564:	3de23905 			@ <UNDEFINED> instruction: 0x3de23905
    1568:	3a050000 	bcc	141570 <_Min_Stack_Size+0x141170>
    156c:	000019e7 	andeq	r1, r0, r7, ror #19
    1570:	09fd3b05 	ldmibeq	sp!, {r0, r2, r8, r9, fp, ip, sp}^
    1574:	3c050000 	stccc	0, cr0, [r5], {-0}
    1578:	000027d4 	ldrdeq	r2, [r0], -r4
    157c:	2b8d3d05 	blcs	fe350998 <_estack+0xde34b998>
    1580:	3e050000 	cdpcc	0, 0, cr0, cr5, cr0, {0}
    1584:	00002464 	andeq	r2, r0, r4, ror #8
    1588:	206f3f05 	rsbcs	r3, pc, r5, lsl #30
    158c:	40050000 	andmi	r0, r5, r0
    1590:	0000544a 	andeq	r5, r0, sl, asr #8
    1594:	59f14105 	ldmibpl	r1!, {r0, r2, r8, lr}^
    1598:	42050000 	andmi	r0, r5, #0
    159c:	00005f41 	andeq	r5, r0, r1, asr #30
    15a0:	06f44305 	ldrbteq	r4, [r4], r5, lsl #6
    15a4:	44050000 	strmi	r0, [r5], #-0
    15a8:	00006f4a 	andeq	r6, r0, sl, asr #30
    15ac:	29c44505 	stmibcs	r4, {r0, r2, r8, sl, lr}^
    15b0:	46050000 	strmi	r0, [r5], -r0
    15b4:	00001ca2 	andeq	r1, r0, r2, lsr #25
    15b8:	63bf4705 			@ <UNDEFINED> instruction: 0x63bf4705
    15bc:	48050000 	stmdami	r5, {}	@ <UNPREDICTABLE>
    15c0:	00003d2d 	andeq	r3, r0, sp, lsr #26
    15c4:	419e4905 	orrsmi	r4, lr, r5, lsl #18
    15c8:	4a050000 	bmi	1415d0 <_Min_Stack_Size+0x1411d0>
    15cc:	00000220 	andeq	r0, r0, r0, lsr #4
    15d0:	54384b05 	ldrtpl	r4, [r8], #-2821	@ 0xfffff4fb
    15d4:	4c050000 	stcmi	0, cr0, [r5], {-0}
    15d8:	00006910 	andeq	r6, r0, r0, lsl r9
    15dc:	30e74d05 	rsccc	r4, r7, r5, lsl #26
    15e0:	4e050000 	cdpmi	0, 0, cr0, cr5, cr0, {0}
    15e4:	00006646 	andeq	r6, r0, r6, asr #12
    15e8:	181d4f05 	ldmdane	sp, {r0, r2, r8, r9, sl, fp, lr}
    15ec:	50050000 	andpl	r0, r5, r0
    15f0:	00000d3b 	andeq	r0, r0, fp, lsr sp
    15f4:	60935105 	addsvs	r5, r3, r5, lsl #2
    15f8:	52050000 	andpl	r0, r5, #0
    15fc:	00003e02 	andeq	r3, r0, r2, lsl #28
    1600:	17a95305 	strne	r5, [r9, r5, lsl #6]!
    1604:	54050000 	strpl	r0, [r5], #-0
    1608:	00002854 	andeq	r2, r0, r4, asr r8
    160c:	54cd5505 	strbpl	r5, [sp], #1285	@ 0x505
    1610:	56050000 	strpl	r0, [r5], -r0
    1614:	00006957 	andeq	r6, r0, r7, asr r9
    1618:	693a5705 	ldmdbvs	sl!, {r0, r2, r8, r9, sl, ip, lr}
    161c:	04000000 	streq	r0, [r0], #-0
    1620:	11050000 	mrsne	r0, (UNDEF: 5)
    1624:	00005b21 	andeq	r5, r0, r1, lsr #22
    1628:	56b21205 	ldrtpl	r1, [r2], r5, lsl #4
    162c:	43050000 	movwmi	r0, #20480	@ 0x5000
    1630:	000015b4 			@ <UNDEFINED> instruction: 0x000015b4
    1634:	359f4405 	ldrcc	r4, [pc, #1029]	@ 1a41 <_Min_Stack_Size+0x1641>
    1638:	45050000 	strmi	r0, [r5, #-0]
    163c:	000054e8 	andeq	r5, r0, r8, ror #9
    1640:	43864805 	orrmi	r4, r6, #327680	@ 0x50000
    1644:	49050000 	stmdbmi	r5, {}	@ <UNPREDICTABLE>
    1648:	00001fba 			@ <UNDEFINED> instruction: 0x00001fba
    164c:	69ad4a05 	stmibvs	sp!, {r0, r2, r9, fp, lr}
    1650:	4d050000 	stcmi	0, cr0, [r5, #-0]
    1654:	00000cb6 			@ <UNDEFINED> instruction: 0x00000cb6
    1658:	23b34e05 			@ <UNDEFINED> instruction: 0x23b34e05
    165c:	4f050000 	svcmi	0x00050000
    1660:	00004336 	andeq	r4, r0, r6, lsr r3
    1664:	32ca5205 	sbccc	r5, sl, #1342177280	@ 0x50000000
    1668:	53050000 	movwpl	r0, #20480	@ 0x5000
    166c:	00005db6 			@ <UNDEFINED> instruction: 0x00005db6
    1670:	01825405 	orreq	r5, r2, r5, lsl #8
    1674:	57050000 	strpl	r0, [r5, -r0]
    1678:	00000e0d 	andeq	r0, r0, sp, lsl #28
    167c:	13175805 	tstne	r7, #327680	@ 0x50000
    1680:	59050000 	stmdbpl	r5, {}	@ <UNPREDICTABLE>
    1684:	00003236 	andeq	r3, r0, r6, lsr r2
    1688:	6b1b5c05 	blvs	6d86a4 <_Min_Stack_Size+0x6d82a4>
    168c:	5d050000 	stcpl	0, cr0, [r5, #-0]
    1690:	0000413f 	andeq	r4, r0, pc, lsr r1
    1694:	6bcf5e05 	blvs	ff3d8eb0 <_estack+0xdf3d3eb0>
    1698:	61050000 	mrsvs	r0, (UNDEF: 5)
    169c:	000044b8 			@ <UNDEFINED> instruction: 0x000044b8
    16a0:	19456205 	stmdbne	r5, {r0, r2, r9, sp, lr}^
    16a4:	63050000 	movwvs	r0, #20480	@ 0x5000
    16a8:	00000c2b 	andeq	r0, r0, fp, lsr #24
    16ac:	48866605 	stmmi	r6, {r0, r2, r9, sl, sp, lr}
    16b0:	67050000 	strvs	r0, [r5, -r0]
    16b4:	00004820 	andeq	r4, r0, r0, lsr #16
    16b8:	466c6805 	strbtmi	r6, [ip], -r5, lsl #16
    16bc:	6b050000 	blvs	1416c4 <_Min_Stack_Size+0x1412c4>
    16c0:	0000114b 	andeq	r1, r0, fp, asr #2
    16c4:	2de56c05 	stclcs	12, cr6, [r5, #20]!
    16c8:	6d050000 	stcvs	0, cr0, [r5, #-0]
    16cc:	000048d8 	ldrdeq	r4, [r0], -r8
    16d0:	351a7005 	ldrcc	r7, [sl, #-5]
    16d4:	71050000 	mrsvc	r0, (UNDEF: 5)
    16d8:	00004aed 	andeq	r4, r0, sp, ror #21
    16dc:	14537205 	ldrbne	r7, [r3], #-517	@ 0xfffffdfb
    16e0:	75050000 	strvc	r0, [r5, #-0]
    16e4:	00000aa0 	andeq	r0, r0, r0, lsr #21
    16e8:	1dc77605 	stclne	6, cr7, [r7, #20]
    16ec:	77050000 	strvc	r0, [r5, -r0]
    16f0:	000033b9 			@ <UNDEFINED> instruction: 0x000033b9
    16f4:	526f7a05 	rsbpl	r7, pc, #20480	@ 0x5000
    16f8:	7b050000 	blvc	141700 <_Min_Stack_Size+0x141300>
    16fc:	00005ca3 	andeq	r5, r0, r3, lsr #25
    1700:	4b6b7c05 	blmi	1ae071c <_Min_Stack_Size+0x1ae031c>
    1704:	7f050000 	svcvc	0x00050000
    1708:	00005ba5 	andeq	r5, r0, r5, lsr #23
    170c:	cf018005 	svcgt	0x00018005
    1710:	0500006c 	streq	r0, [r0, #-108]	@ 0xffffff94
    1714:	1af60181 	bne	ffd81d20 <_estack+0xdfd7cd20>
    1718:	84050000 	strhi	r0, [r5], #-0
    171c:	0055cb01 	subseq	ip, r5, r1, lsl #22
    1720:	01850500 	orreq	r0, r5, r0, lsl #10
    1724:	000046be 			@ <UNDEFINED> instruction: 0x000046be
    1728:	77018605 	strvc	r8, [r1, -r5, lsl #12]
    172c:	05000013 	streq	r0, [r0, #-19]	@ 0xffffffed
    1730:	069c0189 	ldreq	r0, [ip], r9, lsl #3
    1734:	8a050000 	bhi	14173c <_Min_Stack_Size+0x14133c>
    1738:	00370601 	eorseq	r0, r7, r1, lsl #12
    173c:	018b0500 	orreq	r0, fp, r0, lsl #10
    1740:	00002526 	andeq	r2, r0, r6, lsr #10
    1744:	51018e05 	tstpl	r1, r5, lsl #28
    1748:	05000017 	streq	r0, [r0, #-23]	@ 0xffffffe9
    174c:	0733018f 	ldreq	r0, [r3, -pc, lsl #3]!
    1750:	90050000 	andls	r0, r5, r0
    1754:	00376a01 	eorseq	r6, r7, r1, lsl #20
    1758:	00040000 	andeq	r0, r4, r0
    175c:	000a0902 	andeq	r0, sl, r2, lsl #18
    1760:	00a90700 	adceq	r0, r9, r0, lsl #14
    1764:	00030000 	andeq	r0, r3, r0
    1768:	050d0301 	streq	r0, [sp, #-769]	@ 0xfffffcff
    176c:	2b030a05 	blcs	c3f88 <_Min_Stack_Size+0xc3b88>
    1770:	10030000 	andne	r0, r3, r0
    1774:	a40a0504 	strge	r0, [sl], #-1284	@ 0xfffffafc
    1778:	0300002f 	movweq	r0, #47	@ 0x2f
    177c:	0903070c 	stmdbeq	r3, {r2, r3, r8, r9, sl}
    1780:	6a0a0508 	bvs	282ba8 <_Min_Stack_Size+0x2827a8>
    1784:	03000021 	movweq	r0, #33	@ 0x21
    1788:	0605020c 	streq	r0, [r5], -ip, lsl #4
    178c:	0000473f 	andeq	r4, r0, pc, lsr r7
    1790:	05090803 	streq	r0, [r9, #-2051]	@ 0xfffff7fd
    1794:	001e8816 	andseq	r8, lr, r6, lsl r8
    1798:	0a1c0300 	beq	7023a0 <_Min_Stack_Size+0x701fa0>
    179c:	000b5707 	andeq	r5, fp, r7, lsl #14
    17a0:	79070400 	stmdbvc	r7, {sl}
    17a4:	0400000b 	streq	r0, [r0], #-11
    17a8:	000c0707 	andeq	r0, ip, r7, lsl #14
    17ac:	0d030400 	cfstrseq	mvf0, [r3, #-0]
    17b0:	0c58070b 	mrrceq	7, 0, r0, r8, cr11
    17b4:	03040000 	movweq	r0, #16384	@ 0x4000
    17b8:	5b07030e 	blpl	1c23f8 <_Min_Stack_Size+0x1c1ff8>
    17bc:	0400000d 	streq	r0, [r0], #-13
    17c0:	000dc507 	andeq	ip, sp, r7, lsl #10
    17c4:	0d050400 	cfstrseq	mvf0, [r5, #-0]
    17c8:	00002161 	andeq	r2, r0, r1, ror #2
    17cc:	0fa40704 	svceq	0x00a40704
    17d0:	07040000 	streq	r0, [r4, -r0]
    17d4:	00000ff6 	strdeq	r0, [r0], -r6
    17d8:	060e0304 	streq	r0, [lr], -r4, lsl #6
    17dc:	588e0a05 	stmpl	lr, {r0, r2, r9, fp}
    17e0:	04040000 	streq	r0, [r4], #-0
    17e4:	02000400 	andeq	r0, r0, #0, 8
    17e8:	000012a3 	andeq	r1, r0, r3, lsr #5
    17ec:	0000a907 	andeq	sl, r0, r7, lsl #18
    17f0:	01000300 	mrseq	r0, LR_irq
    17f4:	05060a03 	streq	r0, [r6, #-2563]	@ 0xfffff5fd
    17f8:	0044730a 	subeq	r7, r4, sl, lsl #6
    17fc:	050d0300 	streq	r0, [sp, #-768]	@ 0xfffffd00
    1800:	2b030a05 	blcs	c401c <_Min_Stack_Size+0xc3c1c>
    1804:	10030000 	andne	r0, r3, r0
    1808:	a40a0504 	strge	r0, [sl], #-1284	@ 0xfffffafc
    180c:	0300002f 	movweq	r0, #47	@ 0x2f
    1810:	0903070c 	stmdbeq	r3, {r2, r3, r8, r9, sl}
    1814:	6a0a0508 	bvs	282c3c <_Min_Stack_Size+0x28283c>
    1818:	03000021 	movweq	r0, #33	@ 0x21
    181c:	0605020c 	streq	r0, [r5], -ip, lsl #4
    1820:	0000473f 	andeq	r4, r0, pc, lsr r7
    1824:	05090803 	streq	r0, [r9, #-2051]	@ 0xfffff7fd
    1828:	001e8816 	andseq	r8, lr, r6, lsl r8
    182c:	0a1c0300 	beq	702434 <_Min_Stack_Size+0x702034>
    1830:	000b5707 	andeq	r5, fp, r7, lsl #14
    1834:	79070400 	stmdbvc	r7, {sl}
    1838:	0400000b 	streq	r0, [r0], #-11
    183c:	000c0707 	andeq	r0, ip, r7, lsl #14
    1840:	0d030400 	cfstrseq	mvf0, [r3, #-0]
    1844:	0c58070b 	mrrceq	7, 0, r0, r8, cr11
    1848:	03040000 	movweq	r0, #16384	@ 0x4000
    184c:	5b07030e 	blpl	1c248c <_Min_Stack_Size+0x1c208c>
    1850:	0400000d 	streq	r0, [r0], #-13
    1854:	000dc507 	andeq	ip, sp, r7, lsl #10
    1858:	0d050400 	cfstrseq	mvf0, [r5, #-0]
    185c:	00002161 	andeq	r2, r0, r1, ror #2
    1860:	0fa40704 	svceq	0x00a40704
    1864:	07040000 	streq	r0, [r4, -r0]
    1868:	00000ff6 	strdeq	r0, [r0], -r6
    186c:	18750704 	ldmdane	r5!, {r2, r8, r9, sl}^
    1870:	04040000 	streq	r0, [r4], #-0
    1874:	00000400 	andeq	r0, r0, r0, lsl #8
    1878:	67220f05 	strvs	r0, [r2, -r5, lsl #30]!
    187c:	11050000 	mrsne	r0, (UNDEF: 5)
    1880:	00005962 	andeq	r5, r0, r2, ror #18
    1884:	5fa71205 	svcpl	0x00a71205
    1888:	14050000 	strne	r0, [r5], #-0
    188c:	00006d97 	muleq	r0, r7, sp
    1890:	67741505 	ldrbvs	r1, [r4, -r5, lsl #10]!
    1894:	17050000 	strne	r0, [r5, -r0]
    1898:	00005b30 	andeq	r5, r0, r0, lsr fp
    189c:	078b1805 	streq	r1, [fp, r5, lsl #16]
    18a0:	1c050000 	stcne	0, cr0, [r5], {-0}
    18a4:	00000d67 	andeq	r0, r0, r7, ror #26
    18a8:	2a751d05 	bcs	1d48cc4 <_Min_Stack_Size+0x1d488c4>
    18ac:	1e050000 	cdpne	0, 0, cr0, cr5, cr0, {0}
    18b0:	000011c2 	andeq	r1, r0, r2, asr #3
    18b4:	4d891f05 	stcmi	15, cr1, [r9, #20]
    18b8:	20050000 	andcs	r0, r5, r0
    18bc:	000067e9 	andeq	r6, r0, r9, ror #15
    18c0:	02352105 	eorseq	r2, r5, #1073741825	@ 0x40000001
    18c4:	22050000 	andcs	r0, r5, #0
    18c8:	000008f4 	strdeq	r0, [r0], -r4
    18cc:	336c2305 	cmncc	ip, #335544320	@ 0x14000000
    18d0:	24050000 	strcs	r0, [r5], #-0
    18d4:	000039ab 	andeq	r3, r0, fp, lsr #19
    18d8:	4d342505 	cfldr32mi	mvfx2, [r4, #-20]!	@ 0xffffffec
    18dc:	26050000 	strcs	r0, [r5], -r0
    18e0:	000064eb 	andeq	r6, r0, fp, ror #9
    18e4:	1a2a2705 	bne	a8b500 <_Min_Stack_Size+0xa8b100>
    18e8:	28050000 	stmdacs	r5, {}	@ <UNPREDICTABLE>
    18ec:	000063f4 	strdeq	r6, [r0], -r4
    18f0:	3b9d2905 	blcc	fe74bd0c <_estack+0xde746d0c>
    18f4:	2a050000 	bcs	1418fc <_Min_Stack_Size+0x1414fc>
    18f8:	000012e5 	andeq	r1, r0, r5, ror #5
    18fc:	67a12b05 	strvs	r2, [r1, r5, lsl #22]!
    1900:	2c050000 	stccs	0, cr0, [r5], {-0}
    1904:	00005800 	andeq	r5, r0, r0, lsl #16
    1908:	58562d05 	ldmdapl	r6, {r0, r2, r8, sl, fp, sp}^
    190c:	2e050000 	cdpcs	0, 0, cr0, cr5, cr0, {0}
    1910:	00006180 	andeq	r6, r0, r0, lsl #3
    1914:	52eb2f05 	rscpl	r2, fp, #5, 30
    1918:	30050000 	andcc	r0, r5, r0
    191c:	0000185c 	andeq	r1, r0, ip, asr r8
    1920:	5c8e3105 	stfpls	f3, [lr], {5}
    1924:	32050000 	andcc	r0, r5, #0
    1928:	00000318 	andeq	r0, r0, r8, lsl r3
    192c:	280d3305 	stmdacs	sp, {r0, r2, r8, r9, ip, sp}
    1930:	34050000 	strcc	r0, [r5], #-0
    1934:	000055a0 	andeq	r5, r0, r0, lsr #11
    1938:	261f3505 	ldrcs	r3, [pc], -r5, lsl #10
    193c:	36050000 	strcc	r0, [r5], -r0
    1940:	0000648b 	andeq	r6, r0, fp, lsl #9
    1944:	2c6f3705 	stclcs	7, cr3, [pc], #-20	@ 1938 <_Min_Stack_Size+0x1538>
    1948:	38050000 	stmdacc	r5, {}	@ <UNPREDICTABLE>
    194c:	00004772 	andeq	r4, r0, r2, ror r7
    1950:	3de23905 			@ <UNDEFINED> instruction: 0x3de23905
    1954:	3a050000 	bcc	14195c <_Min_Stack_Size+0x14155c>
    1958:	000019e7 	andeq	r1, r0, r7, ror #19
    195c:	09fd3b05 	ldmibeq	sp!, {r0, r2, r8, r9, fp, ip, sp}^
    1960:	3c050000 	stccc	0, cr0, [r5], {-0}
    1964:	000027d4 	ldrdeq	r2, [r0], -r4
    1968:	2b8d3d05 	blcs	fe350d84 <_estack+0xde34bd84>
    196c:	3e050000 	cdpcc	0, 0, cr0, cr5, cr0, {0}
    1970:	00002464 	andeq	r2, r0, r4, ror #8
    1974:	206f3f05 	rsbcs	r3, pc, r5, lsl #30
    1978:	40050000 	andmi	r0, r5, r0
    197c:	0000544a 	andeq	r5, r0, sl, asr #8
    1980:	59f14105 	ldmibpl	r1!, {r0, r2, r8, lr}^
    1984:	42050000 	andmi	r0, r5, #0
    1988:	00005f41 	andeq	r5, r0, r1, asr #30
    198c:	06f44305 	ldrbteq	r4, [r4], r5, lsl #6
    1990:	44050000 	strmi	r0, [r5], #-0
    1994:	00006f4a 	andeq	r6, r0, sl, asr #30
    1998:	29c44505 	stmibcs	r4, {r0, r2, r8, sl, lr}^
    199c:	46050000 	strmi	r0, [r5], -r0
    19a0:	00001ca2 	andeq	r1, r0, r2, lsr #25
    19a4:	63bf4705 			@ <UNDEFINED> instruction: 0x63bf4705
    19a8:	48050000 	stmdami	r5, {}	@ <UNPREDICTABLE>
    19ac:	00003d2d 	andeq	r3, r0, sp, lsr #26
    19b0:	419e4905 	orrsmi	r4, lr, r5, lsl #18
    19b4:	4a050000 	bmi	1419bc <_Min_Stack_Size+0x1415bc>
    19b8:	00000220 	andeq	r0, r0, r0, lsr #4
    19bc:	54384b05 	ldrtpl	r4, [r8], #-2821	@ 0xfffff4fb
    19c0:	4c050000 	stcmi	0, cr0, [r5], {-0}
    19c4:	00006910 	andeq	r6, r0, r0, lsl r9
    19c8:	30e74d05 	rsccc	r4, r7, r5, lsl #26
    19cc:	4e050000 	cdpmi	0, 0, cr0, cr5, cr0, {0}
    19d0:	00006646 	andeq	r6, r0, r6, asr #12
    19d4:	181d4f05 	ldmdane	sp, {r0, r2, r8, r9, sl, fp, lr}
    19d8:	50050000 	andpl	r0, r5, r0
    19dc:	00000d3b 	andeq	r0, r0, fp, lsr sp
    19e0:	60935105 	addsvs	r5, r3, r5, lsl #2
    19e4:	52050000 	andpl	r0, r5, #0
    19e8:	00003e02 	andeq	r3, r0, r2, lsl #28
    19ec:	17a95305 	strne	r5, [r9, r5, lsl #6]!
    19f0:	54050000 	strpl	r0, [r5], #-0
    19f4:	00002854 	andeq	r2, r0, r4, asr r8
    19f8:	54cd5505 	strbpl	r5, [sp], #1285	@ 0x505
    19fc:	56050000 	strpl	r0, [r5], -r0
    1a00:	00006957 	andeq	r6, r0, r7, asr r9
    1a04:	693a5705 	ldmdbvs	sl!, {r0, r2, r8, r9, sl, ip, lr}
    1a08:	04000000 	streq	r0, [r0], #-0
    1a0c:	19730200 	ldmdbne	r3!, {r9}^
    1a10:	a9070000 	stmdbge	r7, {}	@ <UNPREDICTABLE>
    1a14:	03000000 	movweq	r0, #0
    1a18:	0a030100 	beq	c1e20 <_Min_Stack_Size+0xc1a20>
    1a1c:	aa0a0506 	bge	282e3c <_Min_Stack_Size+0x282a3c>
    1a20:	0300007a 	movweq	r0, #122	@ 0x7a
    1a24:	0a05050c 	beq	142e5c <_Min_Stack_Size+0x142a5c>
    1a28:	00002b03 	andeq	r2, r0, r3, lsl #22
    1a2c:	05041003 	streq	r1, [r4, #-3]
    1a30:	002fa40a 	eoreq	sl, pc, sl, lsl #8
    1a34:	070c0300 	streq	r0, [ip, -r0, lsl #6]
    1a38:	05080903 	streq	r0, [r8, #-2307]	@ 0xfffff6fd
    1a3c:	00216a0a 	eoreq	r6, r1, sl, lsl #20
    1a40:	020c0300 	andeq	r0, ip, #0, 6
    1a44:	473f0605 	ldrmi	r0, [pc, -r5, lsl #12]!
    1a48:	08030000 	stmdaeq	r3, {}	@ <UNPREDICTABLE>
    1a4c:	88160509 	ldmdahi	r6, {r0, r3, r8, sl}
    1a50:	0300001e 	movweq	r0, #30
    1a54:	57070a1c 	smladpl	r7, ip, sl, r0
    1a58:	0400000b 	streq	r0, [r0], #-11
    1a5c:	000b7907 	andeq	r7, fp, r7, lsl #18
    1a60:	07070400 	streq	r0, [r7, -r0, lsl #8]
    1a64:	0400000c 	streq	r0, [r0], #-12
    1a68:	070b0d03 	streq	r0, [fp, -r3, lsl #26]
    1a6c:	00000c58 	andeq	r0, r0, r8, asr ip
    1a70:	030e0304 	movweq	r0, #58116	@ 0xe304
    1a74:	000d5b07 	andeq	r5, sp, r7, lsl #22
    1a78:	c5070400 	strgt	r0, [r7, #-1024]	@ 0xfffffc00
    1a7c:	0400000d 	streq	r0, [r0], #-13
    1a80:	21610d05 	cmncs	r1, r5, lsl #26
    1a84:	07040000 	streq	r0, [r4, -r0]
    1a88:	00000fa4 	andeq	r0, r0, r4, lsr #31
    1a8c:	0ff60704 	svceq	0x00f60704
    1a90:	07040000 	streq	r0, [r4, -r0]
    1a94:	00001a9b 	muleq	r0, fp, sl
    1a98:	04000404 	streq	r0, [r0], #-1028	@ 0xfffffbfc
    1a9c:	13050000 	movwne	r0, #20480	@ 0x5000
    1aa0:	000078c3 	andeq	r7, r0, r3, asr #17
    1aa4:	78ab1405 	stmiavc	fp!, {r0, r2, sl, ip}
    1aa8:	04000000 	streq	r0, [r0], #-0
    1aac:	270c0200 	strcs	r0, [ip, -r0, lsl #4]
    1ab0:	a9070000 	stmdbge	r7, {}	@ <UNPREDICTABLE>
    1ab4:	03000000 	movweq	r0, #0
    1ab8:	09030100 	stmdbeq	r3, {r8}
    1abc:	030a0505 	movweq	r0, #42245	@ 0xa505
    1ac0:	0300002b 	movweq	r0, #43	@ 0x2b
    1ac4:	0a050410 	beq	142b0c <_Min_Stack_Size+0x14270c>
    1ac8:	00002fa4 	andeq	r2, r0, r4, lsr #31
    1acc:	03090c03 	movweq	r0, #39939	@ 0x9c03
    1ad0:	0a050a09 	beq	1442fc <_Min_Stack_Size+0x143efc>
    1ad4:	0000216a 	andeq	r2, r0, sl, ror #2
    1ad8:	05020c03 	streq	r0, [r2, #-3075]	@ 0xfffff3fd
    1adc:	00473f06 	subeq	r3, r7, r6, lsl #30
    1ae0:	0b080300 	bleq	2026e8 <_Min_Stack_Size+0x2022e8>
    1ae4:	1e881605 	cdpne	6, 8, cr1, cr8, cr5, {0}
    1ae8:	1c030000 	stcne	0, cr0, [r3], {-0}
    1aec:	0b57070c 	bleq	15c3724 <_Min_Stack_Size+0x15c3324>
    1af0:	07040000 	streq	r0, [r4, -r0]
    1af4:	00000b79 	andeq	r0, r0, r9, ror fp
    1af8:	0c070704 	stceq	7, cr0, [r7], {4}
    1afc:	03040000 	movweq	r0, #16384	@ 0x4000
    1b00:	58070d0d 	stmdapl	r7, {r0, r2, r3, r8, sl, fp}
    1b04:	0400000c 	streq	r0, [r0], #-12
    1b08:	07030e03 	streq	r0, [r3, -r3, lsl #28]
    1b0c:	00000d5b 	andeq	r0, r0, fp, asr sp
    1b10:	0dc50704 	stcleq	7, cr0, [r5, #16]
    1b14:	05040000 	streq	r0, [r4, #-0]
    1b18:	0021610d 	eoreq	r6, r1, sp, lsl #2
    1b1c:	a4070400 	strge	r0, [r7], #-1024	@ 0xfffffc00
    1b20:	0400000f 	streq	r0, [r0], #-15
    1b24:	000ff607 	andeq	pc, pc, r7, lsl #12
    1b28:	0a030400 	beq	c2b30 <_Min_Stack_Size+0xc2730>
    1b2c:	8e0a0506 	cfsh32hi	mvfx0, mvfx10, #6
    1b30:	04000058 	streq	r0, [r0], #-88	@ 0xffffffa8
    1b34:	07070b03 	streq	r0, [r7, -r3, lsl #22]
    1b38:	00001b5f 	andeq	r1, r0, pc, asr fp
    1b3c:	0e0c0304 	cdpeq	3, 0, cr0, cr12, cr4, {0}
    1b40:	00148307 	andseq	r8, r4, r7, lsl #6
    1b44:	0d030400 	cfstrseq	mvf0, [r3, #-0]
    1b48:	a40a0508 	strge	r0, [sl], #-1288	@ 0xfffffaf8
    1b4c:	0300005a 	movweq	r0, #90	@ 0x5a
    1b50:	0304060d 	movweq	r0, #17933	@ 0x460d
    1b54:	07040e0e 	streq	r0, [r4, -lr, lsl #28]
    1b58:	0000161f 	andeq	r1, r0, pc, lsl r6
    1b5c:	04000404 	streq	r0, [r0], #-1028	@ 0xfffffbfc
    1b60:	0a050000 	beq	141b68 <_Min_Stack_Size+0x141768>
    1b64:	00007aaa 	andeq	r7, r0, sl, lsr #21
    1b68:	78c31305 	stmiavc	r3, {r0, r2, r8, r9, ip}^
    1b6c:	14050000 	strne	r0, [r5], #-0
    1b70:	000078ab 	andeq	r7, r0, fp, lsr #17
	...

Disassembly of section .debug_line:

00000000 <.debug_line>:
       0:	00000a05 	andeq	r0, r0, r5, lsl #20
       4:	05000003 	streq	r0, [r0, #-3]
       8:	01020000 	mrseq	r0, (UNDEF: 2)
       c:	000d0efb 	strdeq	r0, [sp], -fp
      10:	01010101 	tsteq	r1, r1, lsl #2
      14:	01000000 	mrseq	r0, (UNDEF: 0)
      18:	2e010000 	cdpcs	0, 0, cr0, cr1, cr0, {0}
      1c:	72532f2e 	subsvc	r2, r3, #46, 30	@ 0xb8
      20:	434d2f63 	movtmi	r2, #57187	@ 0xdf63
      24:	43004c41 	movwmi	r4, #3137	@ 0xc41
      28:	54535c3a 	ldrbpl	r5, [r3], #-3130	@ 0xfffff3c6
      2c:	4d54535c 	ldclmi	3, cr5, [r4, #-368]	@ 0xfffffe90
      30:	75433233 	strbvc	r3, [r3, #-563]	@ 0xfffffdcd
      34:	44496562 	strbmi	r6, [r9], #-1378	@ 0xfffffa9e
      38:	2e315f45 	cdpcs	15, 3, cr5, cr1, cr5, {2}
      3c:	322e3331 	eorcc	r3, lr, #-1006632960	@ 0xc4000000
      40:	4d54535c 	ldclmi	3, cr5, [r4, #-368]	@ 0xfffffe90
      44:	75433233 	strbvc	r3, [r3, #-563]	@ 0xfffffdcd
      48:	44496562 	strbmi	r6, [r9], #-1378	@ 0xfffffa9e
      4c:	6c705c45 	ldclvs	12, cr5, [r0], #-276	@ 0xfffffeec
      50:	6e696775 	mcrvs	7, 3, r6, cr9, cr5, {3}
      54:	6f635c73 	svcvs	0x00635c73
      58:	74732e6d 	ldrbtvc	r2, [r3], #-3693	@ 0xfffff193
      5c:	6d74732e 	ldclvs	3, cr7, [r4, #-184]!	@ 0xffffff48
      60:	75633233 	strbvc	r3, [r3, #-563]!	@ 0xfffffdcd
      64:	692e6562 	stmdbvs	lr!, {r1, r5, r6, r8, sl, sp, lr}
      68:	6d2e6564 	cfstr32vs	mvfx6, [lr, #-400]!	@ 0xfffffe70
      6c:	652e7563 	strvs	r7, [lr, #-1379]!	@ 0xfffffa9d
      70:	72657478 	rsbvc	r7, r5, #120, 8	@ 0x78000000
      74:	746c616e 	strbtvc	r6, [ip], #-366	@ 0xfffffe92
      78:	736c6f6f 	cmnvc	ip, #444	@ 0x1bc
      7c:	756e672e 	strbvc	r6, [lr, #-1838]!	@ 0xfffff8d2
      80:	6f6f742d 	svcvs	0x006f742d
      84:	662d736c 	strtvs	r7, [sp], -ip, ror #6
      88:	732d726f 			@ <UNDEFINED> instruction: 0x732d726f
      8c:	32336d74 	eorscc	r6, r3, #116, 26	@ 0x1d00
      90:	2e32312e 	rsfcssp	f3, f2, #0.5
      94:	65722e33 	ldrbvs	r2, [r2, #-3635]!	@ 0xfffff1cd
      98:	772e316c 	strvc	r3, [lr, -ip, ror #2]!
      9c:	32336e69 	eorscc	r6, r3, #1680	@ 0x690
      a0:	302e315f 	eorcc	r3, lr, pc, asr r1
      a4:	3030312e 	eorscc	r3, r0, lr, lsr #2
      a8:	3230322e 	eorscc	r3, r0, #-536870910	@ 0xe0000002
      ac:	31333034 	teqcc	r3, r4, lsr r0
      b0:	35323131 	ldrcc	r3, [r2, #-305]!	@ 0xfffffecf
      b4:	6f745c36 	svcvs	0x00745c36
      b8:	5c736c6f 	ldclpl	12, cr6, [r3], #-444	@ 0xfffffe44
      bc:	2f6e6962 	svccs	0x006e6962
      c0:	6c2f2e2e 	stcvs	14, cr2, [pc], #-184	@ 10 <_Min_Heap_Size-0x1f0>
      c4:	672f6269 	strvs	r6, [pc, -r9, ror #4]!
      c8:	612f6363 			@ <UNDEFINED> instruction: 0x612f6363
      cc:	6e2d6d72 	mcrvs	13, 1, r6, cr13, cr2, {3}
      d0:	2d656e6f 	stclcs	14, cr6, [r5, #-444]!	@ 0xfffffe44
      d4:	69626165 	stmdbvs	r2!, {r0, r2, r5, r6, r8, sp, lr}^
      d8:	2e32312f 	rsfcssp	f3, f2, #10.0
      dc:	2f312e33 	svccs	0x00312e33
      e0:	2e2f2e2e 	cdpcs	14, 2, cr2, cr15, cr14, {1}
      e4:	2e2e2f2e 	cdpcs	15, 2, cr2, cr14, cr14, {1}
      e8:	2f2e2e2f 	svccs	0x002e2e2f
      ec:	2d6d7261 	sfmcs	f7, 2, [sp, #-388]!	@ 0xfffffe7c
      f0:	656e6f6e 	strbvs	r6, [lr, #-3950]!	@ 0xfffff092
      f4:	6261652d 	rsbvs	r6, r1, #188743680	@ 0xb400000
      f8:	6e692f69 	cdpvs	15, 6, cr2, cr9, cr9, {3}
      fc:	64756c63 	ldrbtvs	r6, [r5], #-3171	@ 0xfffff39d
     100:	616d2f65 	cmnvs	sp, r5, ror #30
     104:	6e696863 	cdpvs	8, 6, cr6, cr9, cr3, {3}
     108:	3a430065 	bcc	10c02a4 <_Min_Stack_Size+0x10bfea4>
     10c:	5c54535c 	mrrcpl	3, 5, r5, r4, cr12
     110:	334d5453 	movtcc	r5, #54355	@ 0xd453
     114:	62754332 	rsbsvs	r4, r5, #-939524096	@ 0xc8000000
     118:	45444965 	strbmi	r4, [r4, #-2405]	@ 0xfffff69b
     11c:	312e315f 			@ <UNDEFINED> instruction: 0x312e315f
     120:	5c322e33 	ldcpl	14, cr2, [r2], #-204	@ 0xffffff34
     124:	334d5453 	movtcc	r5, #54355	@ 0xd453
     128:	62754332 	rsbsvs	r4, r5, #-939524096	@ 0xc8000000
     12c:	45444965 	strbmi	r4, [r4, #-2405]	@ 0xfffff69b
     130:	756c705c 	strbvc	r7, [ip, #-92]!	@ 0xffffffa4
     134:	736e6967 	cmnvc	lr, #1687552	@ 0x19c000
     138:	6d6f635c 	stclvs	3, cr6, [pc, #-368]!	@ ffffffd0 <_estack+0xdfffafd0>
     13c:	2e74732e 	cdpcs	3, 7, cr7, cr4, cr14, {1}
     140:	336d7473 	cmncc	sp, #1929379840	@ 0x73000000
     144:	62756332 	rsbsvs	r6, r5, #-939524096	@ 0xc8000000
     148:	64692e65 	strbtvs	r2, [r9], #-3685	@ 0xfffff19b
     14c:	636d2e65 	cmnvs	sp, #1616	@ 0x650
     150:	78652e75 	stmdavc	r5!, {r0, r2, r4, r5, r6, r9, sl, fp, sp}^
     154:	6e726574 	mrcvs	5, 3, r6, cr2, cr4, {3}
     158:	6f746c61 	svcvs	0x00746c61
     15c:	2e736c6f 	cdpcs	12, 7, cr6, cr3, cr15, {3}
     160:	2d756e67 	ldclcs	14, cr6, [r5, #-412]!	@ 0xfffffe64
     164:	6c6f6f74 	stclvs	15, cr6, [pc], #-464	@ ffffff9c <_estack+0xdfffaf9c>
     168:	6f662d73 	svcvs	0x00662d73
     16c:	74732d72 	ldrbtvc	r2, [r3], #-3442	@ 0xfffff28e
     170:	2e32336d 	cdpcs	3, 3, cr3, cr2, cr13, {3}
     174:	332e3231 			@ <UNDEFINED> instruction: 0x332e3231
     178:	6c65722e 	sfmvs	f7, 2, [r5], #-184	@ 0xffffff48
     17c:	69772e31 	ldmdbvs	r7!, {r0, r4, r5, r9, sl, fp, sp}^
     180:	5f32336e 	svcpl	0x0032336e
     184:	2e302e31 	mrccs	14, 1, r2, cr0, cr1, {1}
     188:	2e303031 	mrccs	0, 1, r3, cr0, cr1, {1}
     18c:	34323032 	ldrtcc	r3, [r2], #-50	@ 0xffffffce
     190:	31313330 	teqcc	r1, r0, lsr r3
     194:	36353231 			@ <UNDEFINED> instruction: 0x36353231
     198:	6f6f745c 	svcvs	0x006f745c
     19c:	625c736c 	subsvs	r7, ip, #108, 6	@ 0xb0000001
     1a0:	2e2f6e69 	cdpcs	14, 2, cr6, cr15, cr9, {3}
     1a4:	696c2f2e 	stmdbvs	ip!, {r1, r2, r3, r5, r8, r9, sl, fp, sp}^
     1a8:	63672f62 	cmnvs	r7, #392	@ 0x188
     1ac:	72612f63 	rsbvc	r2, r1, #396	@ 0x18c
     1b0:	6f6e2d6d 	svcvs	0x006e2d6d
     1b4:	652d656e 	strvs	r6, [sp, #-1390]!	@ 0xfffffa92
     1b8:	2f696261 	svccs	0x00696261
     1bc:	332e3231 			@ <UNDEFINED> instruction: 0x332e3231
     1c0:	2e2f312e 	sufcsep	f3, f7, #0.5
     1c4:	2e2e2f2e 	cdpcs	15, 2, cr2, cr14, cr14, {1}
     1c8:	2f2e2e2f 	svccs	0x002e2e2f
     1cc:	612f2e2e 			@ <UNDEFINED> instruction: 0x612f2e2e
     1d0:	6e2d6d72 	mcrvs	13, 1, r6, cr13, cr2, {3}
     1d4:	2d656e6f 	stclcs	14, cr6, [r5, #-444]!	@ 0xfffffe44
     1d8:	69626165 	stmdbvs	r2!, {r0, r2, r5, r6, r8, sp, lr}^
     1dc:	636e692f 	cmnvs	lr, #770048	@ 0xbc000
     1e0:	6564756c 	strbvs	r7, [r4, #-1388]!	@ 0xfffffa94
     1e4:	7379732f 	cmnvc	r9, #-1140850688	@ 0xbc000000
     1e8:	2f3a4400 	svccs	0x003a4400
     1ec:	65626d45 	strbvs	r6, [r2, #-3397]!	@ 0xfffff2bb
     1f0:	64656464 	strbtvs	r6, [r5], #-1124	@ 0xfffffb9c
     1f4:	73795320 	cmnvc	r9, #32, 6	@ 0x80000000
     1f8:	206d6574 	rsbcs	r6, sp, r4, ror r5
     1fc:	6c706944 			@ <UNDEFINED> instruction: 0x6c706944
     200:	2f616d6f 	svccs	0x00616d6f
     204:	7473614d 	ldrbtvc	r6, [r3], #-333	@ 0xfffffeb3
     208:	676e6972 			@ <UNDEFINED> instruction: 0x676e6972
     20c:	626d4520 	rsbvs	r4, sp, #32, 10	@ 0x8000000
     210:	65646465 	strbvs	r6, [r4, #-1125]!	@ 0xfffffb9b
     214:	79532064 	ldmdbvc	r3, {r2, r5, r6, sp}^
     218:	6d657473 	cfstrdvs	mvd7, [r5, #-460]!	@ 0xfffffe34
     21c:	74695720 	strbtvc	r5, [r9], #-1824	@ 0xfffff8e0
     220:	2e4b2068 	cdpcs	0, 4, cr2, cr11, cr8, {3}
     224:	31302f53 	teqcc	r0, r3, asr pc
     228:	6d74535f 	ldclvs	3, cr5, [r4, #-380]!	@ 0xfffffe84
     22c:	65627543 	strbvs	r7, [r2, #-1347]!	@ 0xfffffabd
     230:	726f575f 	rsbvc	r5, pc, #24903680	@ 0x17c0000
     234:	6170736b 	cmnvs	r0, fp, ror #6
     238:	302f6563 	eorcc	r6, pc, r3, ror #10
     23c:	31555f39 	cmpcc	r5, r9, lsr pc
     240:	41334c34 	teqmi	r3, r4, lsr ip
     244:	72532f31 	subsvc	r2, r3, #49, 30	@ 0xc4
     248:	54552f63 	ldrbpl	r2, [r5], #-3939	@ 0xfffff09d
     24c:	2f534c49 	svccs	0x00534c49
     250:	00636e69 	rsbeq	r6, r3, r9, ror #28
     254:	452f3a44 	strmi	r3, [pc, #-2628]!	@ fffff818 <_estack+0xdfffa818>
     258:	6465626d 	strbtvs	r6, [r5], #-621	@ 0xfffffd93
     25c:	20646564 	rsbcs	r6, r4, r4, ror #10
     260:	74737953 	ldrbtvc	r7, [r3], #-2387	@ 0xfffff6ad
     264:	44206d65 	strtmi	r6, [r0], #-3429	@ 0xfffff29b
     268:	6f6c7069 	svcvs	0x006c7069
     26c:	4d2f616d 	stfmis	f6, [pc, #-436]!	@ c0 <_Min_Heap_Size-0x140>
     270:	72747361 	rsbsvc	r7, r4, #-2080374783	@ 0x84000001
     274:	20676e69 	rsbcs	r6, r7, r9, ror #28
     278:	65626d45 	strbvs	r6, [r2, #-3397]!	@ 0xfffff2bb
     27c:	64656464 	strbtvs	r6, [r5], #-1124	@ 0xfffffb9c
     280:	73795320 	cmnvc	r9, #32, 6	@ 0x80000000
     284:	206d6574 	rsbcs	r6, sp, r4, ror r5
     288:	68746957 	ldmdavs	r4!, {r0, r1, r2, r4, r6, r8, fp, sp, lr}^
     28c:	532e4b20 			@ <UNDEFINED> instruction: 0x532e4b20
     290:	5f31302f 	svcpl	0x0031302f
     294:	436d7453 	cmnmi	sp, #1392508928	@ 0x53000000
     298:	5f656275 	svcpl	0x00656275
     29c:	6b726f57 	blvs	1c9c000 <_Min_Stack_Size+0x1c9bc00>
     2a0:	63617073 	cmnvs	r1, #115	@ 0x73
     2a4:	39302f65 	ldmdbcc	r0!, {r0, r2, r5, r6, r8, r9, sl, fp, sp}
     2a8:	3431555f 	ldrtcc	r5, [r1], #-1375	@ 0xfffffaa1
     2ac:	3141334c 	cmpcc	r1, ip, asr #6
     2b0:	6372532f 	cmnvs	r2, #-1140850688	@ 0xbc000000
     2b4:	41434d2f 	cmpmi	r3, pc, lsr #26
     2b8:	6e692f4c 	cdpvs	15, 6, cr2, cr9, cr12, {2}
     2bc:	3a430063 	bcc	10c0450 <_Min_Stack_Size+0x10c0050>
     2c0:	5c54535c 	mrrcpl	3, 5, r5, r4, cr12
     2c4:	334d5453 	movtcc	r5, #54355	@ 0xd453
     2c8:	62754332 	rsbsvs	r4, r5, #-939524096	@ 0xc8000000
     2cc:	45444965 	strbmi	r4, [r4, #-2405]	@ 0xfffff69b
     2d0:	312e315f 			@ <UNDEFINED> instruction: 0x312e315f
     2d4:	5c322e33 	ldcpl	14, cr2, [r2], #-204	@ 0xffffff34
     2d8:	334d5453 	movtcc	r5, #54355	@ 0xd453
     2dc:	62754332 	rsbsvs	r4, r5, #-939524096	@ 0xc8000000
     2e0:	45444965 	strbmi	r4, [r4, #-2405]	@ 0xfffff69b
     2e4:	756c705c 	strbvc	r7, [ip, #-92]!	@ 0xffffffa4
     2e8:	736e6967 	cmnvc	lr, #1687552	@ 0x19c000
     2ec:	6d6f635c 	stclvs	3, cr6, [pc, #-368]!	@ 184 <_Min_Heap_Size-0x7c>
     2f0:	2e74732e 	cdpcs	3, 7, cr7, cr4, cr14, {1}
     2f4:	336d7473 	cmncc	sp, #1929379840	@ 0x73000000
     2f8:	62756332 	rsbsvs	r6, r5, #-939524096	@ 0xc8000000
     2fc:	64692e65 	strbtvs	r2, [r9], #-3685	@ 0xfffff19b
     300:	636d2e65 	cmnvs	sp, #1616	@ 0x650
     304:	78652e75 	stmdavc	r5!, {r0, r2, r4, r5, r6, r9, sl, fp, sp}^
     308:	6e726574 	mrcvs	5, 3, r6, cr2, cr4, {3}
     30c:	6f746c61 	svcvs	0x00746c61
     310:	2e736c6f 	cdpcs	12, 7, cr6, cr3, cr15, {3}
     314:	2d756e67 	ldclcs	14, cr6, [r5, #-412]!	@ 0xfffffe64
     318:	6c6f6f74 	stclvs	15, cr6, [pc], #-464	@ 150 <_Min_Heap_Size-0xb0>
     31c:	6f662d73 	svcvs	0x00662d73
     320:	74732d72 	ldrbtvc	r2, [r3], #-3442	@ 0xfffff28e
     324:	2e32336d 	cdpcs	3, 3, cr3, cr2, cr13, {3}
     328:	332e3231 			@ <UNDEFINED> instruction: 0x332e3231
     32c:	6c65722e 	sfmvs	f7, 2, [r5], #-184	@ 0xffffff48
     330:	69772e31 	ldmdbvs	r7!, {r0, r4, r5, r9, sl, fp, sp}^
     334:	5f32336e 	svcpl	0x0032336e
     338:	2e302e31 	mrccs	14, 1, r2, cr0, cr1, {1}
     33c:	2e303031 	mrccs	0, 1, r3, cr0, cr1, {1}
     340:	34323032 	ldrtcc	r3, [r2], #-50	@ 0xffffffce
     344:	31313330 	teqcc	r1, r0, lsr r3
     348:	36353231 			@ <UNDEFINED> instruction: 0x36353231
     34c:	6f6f745c 	svcvs	0x006f745c
     350:	625c736c 	subsvs	r7, ip, #108, 6	@ 0xb0000001
     354:	2e2f6e69 	cdpcs	14, 2, cr6, cr15, cr9, {3}
     358:	696c2f2e 	stmdbvs	ip!, {r1, r2, r3, r5, r8, r9, sl, fp, sp}^
     35c:	63672f62 	cmnvs	r7, #392	@ 0x188
     360:	72612f63 	rsbvc	r2, r1, #396	@ 0x18c
     364:	6f6e2d6d 	svcvs	0x006e2d6d
     368:	652d656e 	strvs	r6, [sp, #-1390]!	@ 0xfffffa92
     36c:	2f696261 	svccs	0x00696261
     370:	332e3231 			@ <UNDEFINED> instruction: 0x332e3231
     374:	692f312e 	stmdbvs	pc!, {r1, r2, r3, r5, r8, ip, sp}	@ <UNPREDICTABLE>
     378:	756c636e 	strbvc	r6, [ip, #-878]!	@ 0xfffffc92
     37c:	43006564 	movwmi	r6, #1380	@ 0x564
     380:	54535c3a 	ldrbpl	r5, [r3], #-3130	@ 0xfffff3c6
     384:	4d54535c 	ldclmi	3, cr5, [r4, #-368]	@ 0xfffffe90
     388:	75433233 	strbvc	r3, [r3, #-563]	@ 0xfffffdcd
     38c:	44496562 	strbmi	r6, [r9], #-1378	@ 0xfffffa9e
     390:	2e315f45 	cdpcs	15, 3, cr5, cr1, cr5, {2}
     394:	322e3331 	eorcc	r3, lr, #-1006632960	@ 0xc4000000
     398:	4d54535c 	ldclmi	3, cr5, [r4, #-368]	@ 0xfffffe90
     39c:	75433233 	strbvc	r3, [r3, #-563]	@ 0xfffffdcd
     3a0:	44496562 	strbmi	r6, [r9], #-1378	@ 0xfffffa9e
     3a4:	6c705c45 	ldclvs	12, cr5, [r0], #-276	@ 0xfffffeec
     3a8:	6e696775 	mcrvs	7, 3, r6, cr9, cr5, {3}
     3ac:	6f635c73 	svcvs	0x00635c73
     3b0:	74732e6d 	ldrbtvc	r2, [r3], #-3693	@ 0xfffff193
     3b4:	6d74732e 	ldclvs	3, cr7, [r4, #-184]!	@ 0xffffff48
     3b8:	75633233 	strbvc	r3, [r3, #-563]!	@ 0xfffffdcd
     3bc:	692e6562 	stmdbvs	lr!, {r1, r5, r6, r8, sl, sp, lr}
     3c0:	6d2e6564 	cfstr32vs	mvfx6, [lr, #-400]!	@ 0xfffffe70
     3c4:	652e7563 	strvs	r7, [lr, #-1379]!	@ 0xfffffa9d
     3c8:	72657478 	rsbvc	r7, r5, #120, 8	@ 0x78000000
     3cc:	746c616e 	strbtvc	r6, [ip], #-366	@ 0xfffffe92
     3d0:	736c6f6f 	cmnvc	ip, #444	@ 0x1bc
     3d4:	756e672e 	strbvc	r6, [lr, #-1838]!	@ 0xfffff8d2
     3d8:	6f6f742d 	svcvs	0x006f742d
     3dc:	662d736c 	strtvs	r7, [sp], -ip, ror #6
     3e0:	732d726f 			@ <UNDEFINED> instruction: 0x732d726f
     3e4:	32336d74 	eorscc	r6, r3, #116, 26	@ 0x1d00
     3e8:	2e32312e 	rsfcssp	f3, f2, #0.5
     3ec:	65722e33 	ldrbvs	r2, [r2, #-3635]!	@ 0xfffff1cd
     3f0:	772e316c 	strvc	r3, [lr, -ip, ror #2]!
     3f4:	32336e69 	eorscc	r6, r3, #1680	@ 0x690
     3f8:	302e315f 	eorcc	r3, lr, pc, asr r1
     3fc:	3030312e 	eorscc	r3, r0, lr, lsr #2
     400:	3230322e 	eorscc	r3, r0, #-536870910	@ 0xe0000002
     404:	31333034 	teqcc	r3, r4, lsr r0
     408:	35323131 	ldrcc	r3, [r2, #-305]!	@ 0xfffffecf
     40c:	6f745c36 	svcvs	0x00745c36
     410:	5c736c6f 	ldclpl	12, cr6, [r3], #-444	@ 0xfffffe44
     414:	2f6e6962 	svccs	0x006e6962
     418:	6c2f2e2e 	stcvs	14, cr2, [pc], #-184	@ 368 <_Min_Heap_Size+0x168>
     41c:	672f6269 	strvs	r6, [pc, -r9, ror #4]!
     420:	612f6363 			@ <UNDEFINED> instruction: 0x612f6363
     424:	6e2d6d72 	mcrvs	13, 1, r6, cr13, cr2, {3}
     428:	2d656e6f 	stclcs	14, cr6, [r5, #-444]!	@ 0xfffffe44
     42c:	69626165 	stmdbvs	r2!, {r0, r2, r5, r6, r8, sp, lr}^
     430:	2e32312f 	rsfcssp	f3, f2, #10.0
     434:	2f312e33 	svccs	0x00312e33
     438:	2e2f2e2e 	cdpcs	14, 2, cr2, cr15, cr14, {1}
     43c:	2e2e2f2e 	cdpcs	15, 2, cr2, cr14, cr14, {1}
     440:	2f2e2e2f 	svccs	0x002e2e2f
     444:	2d6d7261 	sfmcs	f7, 2, [sp, #-388]!	@ 0xfffffe7c
     448:	656e6f6e 	strbvs	r6, [lr, #-3950]!	@ 0xfffff092
     44c:	6261652d 	rsbvs	r6, r1, #188743680	@ 0xb400000
     450:	6e692f69 	cdpvs	15, 6, cr2, cr9, cr9, {3}
     454:	64756c63 	ldrbtvs	r6, [r5], #-3171	@ 0xfffff39d
     458:	45000065 	strmi	r0, [r0, #-101]	@ 0xffffff9b
     45c:	2e495458 	mcrcs	4, 2, r5, cr9, cr8, {2}
     460:	00010063 	andeq	r0, r1, r3, rrx
     464:	65645f00 	strbvs	r5, [r4, #-3840]!	@ 0xfffff100
     468:	6c756166 	ldfvse	f6, [r5], #-408	@ 0xfffffe68
     46c:	79745f74 	ldmdbvc	r4!, {r2, r4, r5, r6, r8, r9, sl, fp, ip, lr}^
     470:	2e736570 	mrccs	5, 3, r6, cr3, cr0, {3}
     474:	00020068 	andeq	r0, r2, r8, rrx
     478:	74735f00 	ldrbtvc	r5, [r3], #-3840	@ 0xfffff100
     47c:	746e6964 	strbtvc	r6, [lr], #-2404	@ 0xfffff69c
     480:	0300682e 	movweq	r6, #2094	@ 0x82e
     484:	6f630000 	svcvs	0x00630000
     488:	6e6f6d6d 	cdpvs	13, 6, cr6, cr15, cr13, {3}
     48c:	0400682e 	streq	r6, [r0], #-2094	@ 0xfffff7d2
     490:	74730000 	ldrbtvc	r0, [r3], #-0
     494:	6632336d 	ldrtvs	r3, [r2], -sp, ror #6
     498:	78333031 	ldmdavc	r3!, {r0, r4, r5, ip, sp}
     49c:	00682e36 	rsbeq	r2, r8, r6, lsr lr
     4a0:	47000004 	strmi	r0, [r0, -r4]
     4a4:	2e4f4950 			@ <UNDEFINED> instruction: 0x2e4f4950
     4a8:	00050068 	andeq	r0, r5, r8, rrx
     4ac:	54584500 	ldrbpl	r4, [r8], #-1280	@ 0xfffffb00
     4b0:	00682e49 	rsbeq	r2, r8, r9, asr #28
     4b4:	4e000005 	cdpmi	0, 0, cr0, cr0, cr5, {0}
     4b8:	2e434956 			@ <UNDEFINED> instruction: 0x2e434956
     4bc:	00050068 	andeq	r0, r5, r8, rrx
     4c0:	64747300 	ldrbtvs	r7, [r4], #-768	@ 0xfffffd00
     4c4:	2e746e69 	cdpcs	14, 7, cr6, cr4, cr9, {3}
     4c8:	00060068 	andeq	r0, r6, r8, rrx
     4cc:	64747300 	ldrbtvs	r7, [r4], #-768	@ 0xfffffd00
     4d0:	2e746e69 	cdpcs	14, 7, cr6, cr4, cr9, {3}
     4d4:	00070068 	andeq	r0, r7, r8, rrx
     4d8:	61656600 	cmnvs	r5, r0, lsl #12
     4dc:	65727574 	ldrbvs	r7, [r2, #-1396]!	@ 0xfffffa8c
     4e0:	00682e73 	rsbeq	r2, r8, r3, ror lr
     4e4:	5f000003 	svcpl	0x00000003
     4e8:	6c77656e 	cfldr64vs	mvdx6, [r7], #-440	@ 0xfffffe48
     4ec:	765f6269 	ldrbvc	r6, [pc], -r9, ror #4
     4f0:	69737265 	ldmdbvs	r3!, {r0, r2, r5, r6, r9, ip, sp, lr}^
     4f4:	682e6e6f 	stmdavs	lr!, {r0, r1, r2, r3, r5, r6, r9, sl, fp, sp, lr}
     4f8:	00000700 	andeq	r0, r0, r0, lsl #14
     4fc:	746e695f 	strbtvc	r6, [lr], #-2399	@ 0xfffff6a1
     500:	2e707573 	mrccs	5, 3, r7, cr0, cr3, {3}
     504:	00030068 	andeq	r0, r3, r8, rrx
     508:	01050000 	mrseq	r0, (UNDEF: 5)
     50c:	70020500 	andvc	r0, r2, r0, lsl #10
     510:	03080001 	movweq	r0, #32769	@ 0x8001
     514:	18050113 	stmdane	r5, {r0, r1, r4, r8}
     518:	2f04054b 	svccs	0x0004054b
     51c:	054e1705 	strbeq	r1, [lr, #-1797]	@ 0xfffff8fb
     520:	19052f2d 	stmdbne	r5, {r0, r2, r3, r5, r8, r9, sl, fp, sp}
     524:	2125052e 			@ <UNDEFINED> instruction: 0x2125052e
     528:	052e1105 	streq	r1, [lr, #-261]!	@ 0xfffffefb
     52c:	05052209 	streq	r2, [r5, #-521]	@ 0xfffffdf7
     530:	001d0576 	andseq	r0, sp, r6, ror r5
     534:	3c010402 	cfstrscc	mvf0, [r1], {2}
     538:	05302f05 	ldreq	r2, [r0, #-3845]!	@ 0xfffff0fb
     53c:	33052e09 	movwcc	r2, #24073	@ 0x5e09
     540:	2e09052f 	cfsh32cs	mvfx0, mvfx9, #31
     544:	05590705 	ldrbeq	r0, [r9, #-1797]	@ 0xfffff8fb
     548:	2d052010 	stccs	0, cr2, [r5, #-64]	@ 0xffffffc0
     54c:	4a27054a 	bmi	9c1a7c <_Min_Stack_Size+0x9c167c>
     550:	052e0705 	streq	r0, [lr, #-1797]!	@ 0xfffff8fb
     554:	24052010 	strcs	r2, [r5], #-16
     558:	4b070520 	blmi	1c19e0 <_Min_Stack_Size+0x1c15e0>
     55c:	05201005 	streq	r1, [r0, #-5]!
     560:	61054a29 	tstvs	r5, r9, lsr #20
     564:	0029052e 	eoreq	r0, r9, lr, lsr #10
     568:	3c010402 	cfstrscc	mvf0, [r1], {2}
     56c:	02006105 	andeq	r6, r0, #1073741825	@ 0x40000001
     570:	052e0104 	streq	r0, [lr, #-260]!	@ 0xfffffefc
     574:	04020029 	streq	r0, [r2], #-41	@ 0xffffffd7
     578:	61053c03 	tstvs	r5, r3, lsl #24
     57c:	03040200 	movweq	r0, #16896	@ 0x4200
     580:	0029052e 	eoreq	r0, r9, lr, lsr #10
     584:	3c050402 	cfstrscc	mvf0, [r5], {2}
     588:	02006105 	andeq	r6, r0, #1073741825	@ 0x40000001
     58c:	002e0504 	eoreq	r0, lr, r4, lsl #10
     590:	06070402 	streq	r0, [r7], -r2, lsl #8
     594:	0402003c 	streq	r0, [r2], #-60	@ 0xffffffc4
     598:	02002e08 	andeq	r2, r0, #8, 28	@ 0x80
     59c:	002e0604 	eoreq	r0, lr, r4, lsl #12
     5a0:	2e040402 	cdpcs	4, 0, cr0, cr4, cr2, {0}
     5a4:	02040200 	andeq	r0, r4, #0, 4
     5a8:	0068052e 	rsbeq	r0, r8, lr, lsr #10
     5ac:	06100402 	ldreq	r0, [r0], -r2, lsl #8
     5b0:	00070520 	andeq	r0, r7, r0, lsr #10
     5b4:	3c100402 	cfldrscc	mvf0, [r0], {2}
     5b8:	02001005 	andeq	r1, r0, #5
     5bc:	05201004 	streq	r1, [r0, #-4]!
     5c0:	04020024 	streq	r0, [r2], #-36	@ 0xffffffdc
     5c4:	07052010 	smladeq	r5, r0, r0, r2
     5c8:	10040200 	andne	r0, r4, r0, lsl #4
     5cc:	0027054c 	eoreq	r0, r7, ip, asr #10
     5d0:	2e100402 	cfmulscs	mvf0, mvf0, mvf2
     5d4:	02001305 	andeq	r1, r0, #335544320	@ 0x14000000
     5d8:	053c1004 	ldreq	r1, [ip, #-4]!
     5dc:	04020010 	streq	r0, [r2], #-16
     5e0:	07052e10 	smladeq	r5, r0, lr, r2
     5e4:	10040200 	andne	r0, r4, r0, lsl #4
     5e8:	000e052e 	andeq	r0, lr, lr, lsr #10
     5ec:	20100402 	andscs	r0, r0, r2, lsl #8
     5f0:	02000705 	andeq	r0, r0, #1310720	@ 0x140000
     5f4:	052f1004 	streq	r1, [pc, #-4]!	@ 5f8 <_Min_Stack_Size+0x1f8>
     5f8:	04020027 	streq	r0, [r2], #-39	@ 0xffffffd9
     5fc:	13052e10 	movwne	r2, #24080	@ 0x5e10
     600:	10040200 	andne	r0, r4, r0, lsl #4
     604:	0010053c 	andseq	r0, r0, ip, lsr r5
     608:	2e100402 	cfmulscs	mvf0, mvf0, mvf2
     60c:	02000705 	andeq	r0, r0, #1310720	@ 0x140000
     610:	052e1004 	streq	r1, [lr, #-4]!
     614:	0402000e 	streq	r0, [r2], #-14
     618:	0b052010 	bleq	148660 <_Min_Stack_Size+0x148260>
     61c:	10040200 	andne	r0, r4, r0, lsl #4
     620:	00050530 	andeq	r0, r5, r0, lsr r5
     624:	2e100402 	cfmulscs	mvf0, mvf0, mvf2
     628:	05300805 	ldreq	r0, [r0, #-2053]!	@ 0xfffff7fb
     62c:	14052e28 	strne	r2, [r5], #-3624	@ 0xfffff1d8
     630:	3c08053c 	cfstr32cc	mvfx0, [r8], {60}	@ 0x3c
     634:	05200f05 	streq	r0, [r0, #-3845]!	@ 0xfffff0fb
     638:	0a053e10 	beq	14fe80 <_Min_Stack_Size+0x14fa80>
     63c:	3008052e 	andcc	r0, r8, lr, lsr #10
     640:	052e2805 	streq	r2, [lr, #-2053]!	@ 0xfffff7fb
     644:	08053c14 	stmdaeq	r5, {r2, r4, sl, fp, ip, sp}
     648:	200f053c 	andcs	r0, pc, ip, lsr r5	@ <UNPREDICTABLE>
     64c:	053e1005 	ldreq	r1, [lr, #-5]!
     650:	08052e0a 	stmdaeq	r5, {r1, r3, r9, sl, fp, sp}
     654:	2e280530 	mcrcs	5, 1, r0, cr8, cr0, {1}
     658:	053c1405 	ldreq	r1, [ip, #-1029]!	@ 0xfffffbfb
     65c:	0f053c08 	svceq	0x00053c08
     660:	2f080520 	svccs	0x00080520
     664:	052e2805 	streq	r2, [lr, #-2053]!	@ 0xfffff7fb
     668:	08053c14 	stmdaeq	r5, {r2, r4, sl, fp, ip, sp}
     66c:	200f053c 	andcs	r0, pc, ip, lsr r5	@ <UNPREDICTABLE>
     670:	05400805 	strbeq	r0, [r0, #-2053]	@ 0xfffff7fb
     674:	37053125 	strcc	r3, [r5, -r5, lsr #2]
     678:	2e30053c 	mrccs	5, 1, r0, cr0, cr12, {1}
     67c:	053e0b05 	ldreq	r0, [lr, #-2821]!	@ 0xfffff4fb
     680:	0a052e05 	beq	14be9c <_Min_Stack_Size+0x14ba9c>
     684:	68100530 	ldmdavs	r0, {r4, r5, r8, sl}
     688:	302e0a05 	eorcc	r0, lr, r5, lsl #20
     68c:	056a0805 	strbeq	r0, [sl, #-2053]!	@ 0xfffff7fb
     690:	09054107 	stmdbeq	r5, {r0, r1, r2, r8, lr}
     694:	21010530 	tstcs	r1, r0, lsr r5
     698:	01001202 	tsteq	r0, r2, lsl #4
     69c:	00010501 	andeq	r0, r1, r1, lsl #10
     6a0:	034c0205 	movteq	r0, #49669	@ 0xc205
     6a4:	d2030800 	andle	r0, r3, #0, 16
     6a8:	18050100 	stmdane	r5, {r8}
     6ac:	2f04054b 	svccs	0x0004054b
     6b0:	053e0905 	ldreq	r0, [lr, #-2309]!	@ 0xfffff6fb
     6b4:	09056a07 	stmdbeq	r5, {r0, r1, r2, r9, fp, sp, lr}
     6b8:	21010530 	tstcs	r1, r0, lsr r5
     6bc:	01000402 	tsteq	r0, r2, lsl #8
     6c0:	00010501 	andeq	r0, r1, r1, lsl #10
     6c4:	00000205 	andeq	r0, r0, r5, lsl #4
     6c8:	e1030000 	mrs	r0, (UNDEF: 3)
     6cc:	18050100 	stmdane	r5, {r8}
     6d0:	2f04054b 	svccs	0x0004054b
     6d4:	053e0705 	ldreq	r0, [lr, #-1797]!	@ 0xfffff8fb
     6d8:	14052e29 	strne	r2, [r5], #-3625	@ 0xfffff1d7
     6dc:	3c07053c 	cfstr32cc	mvfx0, [r7], {60}	@ 0x3c
     6e0:	05200f05 	streq	r0, [r0, #-3845]!	@ 0xfffff0fb
     6e4:	05402f07 	strbeq	r2, [r0, #-3847]	@ 0xfffff0f9
     6e8:	01053009 	tsteq	r5, r9
     6ec:	00080221 	andeq	r0, r8, r1, lsr #4
     6f0:	01050101 	tsteq	r5, r1, lsl #2
     6f4:	78020500 	stmdavc	r2, {r8, sl}
     6f8:	03080003 	movweq	r0, #32771	@ 0x8003
     6fc:	050100f0 	streq	r0, [r1, #-240]	@ 0xffffff10
     700:	04054b18 	streq	r4, [r5], #-2840	@ 0xfffff4e8
     704:	3e07052f 	cfsh32cc	mvfx0, mvfx7, #31
     708:	052e2905 	streq	r2, [lr, #-2309]!	@ 0xfffff6fb
     70c:	10053c14 	andne	r3, r5, r4, lsl ip
     710:	2e07052e 	cfsh32cs	mvfx0, mvfx7, #30
     714:	05200d05 	streq	r0, [r0, #-3333]!	@ 0xfffff2fb
     718:	07052f09 	streq	r2, [r5, -r9, lsl #30]
     71c:	30090586 	andcc	r0, r9, r6, lsl #11
     720:	02210105 	eoreq	r0, r1, #1073741825	@ 0x40000001
     724:	01010006 	tsteq	r1, r6
     728:	05000105 	streq	r0, [r0, #-261]	@ 0xfffffefb
     72c:	0003c402 	andeq	ip, r3, r2, lsl #8
     730:	00ff0308 	rscseq	r0, pc, r8, lsl #6
     734:	4b180501 	blmi	601b40 <_Min_Stack_Size+0x601740>
     738:	052f0405 	streq	r0, [pc, #-1029]!	@ 33b <_Min_Heap_Size+0x13b>
     73c:	28053e07 	stmdacs	r5, {r0, r1, r2, r9, sl, fp, ip, sp}
     740:	3c13052e 	cfldr32cc	mvfx0, [r3], {46}	@ 0x2e
     744:	053c0705 	ldreq	r0, [ip, #-1797]!	@ 0xfffff8fb
     748:	0905200d 	stmdbeq	r5, {r0, r2, r3, sp}
     74c:	8607052f 	strhi	r0, [r7], -pc, lsr #10
     750:	05300905 	ldreq	r0, [r0, #-2309]!	@ 0xfffff6fb
     754:	07022101 	streq	r2, [r2, -r1, lsl #2]
     758:	05010100 	streq	r0, [r1, #-256]	@ 0xffffff00
     75c:	02050001 	andeq	r0, r5, #1
     760:	00000000 	andeq	r0, r0, r0
     764:	01018e03 	tsteq	r1, r3, lsl #28
     768:	053d1805 	ldreq	r1, [sp, #-2053]!	@ 0xfffff7fb
     76c:	0c053006 	stceq	0, cr3, [r5], {6}
     770:	2f060520 	svccs	0x00060520
     774:	05200c05 	streq	r0, [r0, #-3077]!	@ 0xfffff3fb
     778:	0d052f06 	stceq	15, cr2, [r5, #-24]	@ 0xffffffe8
     77c:	2f060520 	svccs	0x00060520
     780:	05200d05 	streq	r0, [r0, #-3333]!	@ 0xfffff2fb
     784:	0e052f06 	cdpeq	15, 0, cr2, cr5, cr6, {0}
     788:	2f060520 	svccs	0x00060520
     78c:	05200b05 	streq	r0, [r0, #-2821]!	@ 0xfffff4fb
     790:	3d3d3e02 	ldccc	14, cr3, [sp, #-8]!
     794:	3d3d3d3d 	ldccc	13, cr3, [sp, #-244]!	@ 0xffffff0c
     798:	053d0905 	ldreq	r0, [sp, #-2309]!	@ 0xfffff6fb
     79c:	06022101 	streq	r2, [r2], -r1, lsl #2
     7a0:	05010100 	streq	r0, [r1, #-256]	@ 0xffffff00
     7a4:	02050001 	andeq	r0, r5, #1
     7a8:	08000410 	stmdaeq	r0, {r4, sl}
     7ac:	0101a503 	tsteq	r1, r3, lsl #10
     7b0:	052f0605 	streq	r0, [pc, #-1541]!	@ 1b3 <_Min_Heap_Size-0x4d>
     7b4:	11053c0b 	tstne	r5, fp, lsl #24
     7b8:	2e02053d 	mcrcs	5, 0, r0, cr2, cr13, {1}
     7bc:	02210105 	eoreq	r0, r1, #1073741825	@ 0x40000001
     7c0:	01010007 	tsteq	r1, r7
     7c4:	05000105 	streq	r0, [r0, #-261]	@ 0xfffffefb
     7c8:	00043402 	andeq	r3, r4, r2, lsl #8
     7cc:	01ab0308 			@ <UNDEFINED> instruction: 0x01ab0308
     7d0:	2f060501 	svccs	0x00060501
     7d4:	053c0b05 	ldreq	r0, [ip, #-2821]!	@ 0xfffff4fb
     7d8:	02053d11 	andeq	r3, r5, #1088	@ 0x440
     7dc:	2101052e 	tstcs	r1, lr, lsr #10
     7e0:	01000702 	tsteq	r0, r2, lsl #14
     7e4:	00010501 	andeq	r0, r1, r1, lsl #10
     7e8:	04580205 	ldrbeq	r0, [r8], #-517	@ 0xfffffdfb
     7ec:	b1030800 	tstlt	r3, r0, lsl #16
     7f0:	06050101 	streq	r0, [r5], -r1, lsl #2
     7f4:	3c0b052f 	cfstr32cc	mvfx0, [fp], {47}	@ 0x2f
     7f8:	053d1105 	ldreq	r1, [sp, #-261]!	@ 0xfffffefb
     7fc:	01052e02 	tsteq	r5, r2, lsl #28
     800:	00070221 	andeq	r0, r7, r1, lsr #4
     804:	01050101 	tsteq	r5, r1, lsl #2
     808:	7c020500 	cfstr32vc	mvfx0, [r2], {-0}
     80c:	03080004 	movweq	r0, #32772	@ 0x8004
     810:	050101b7 	streq	r0, [r1, #-439]	@ 0xfffffe49
     814:	0b052f06 	bleq	14c434 <_Min_Stack_Size+0x14c034>
     818:	3d11053c 	cfldr32cc	mvfx0, [r1, #-240]	@ 0xffffff10
     81c:	052e0205 	streq	r0, [lr, #-517]!	@ 0xfffffdfb
     820:	07022101 	streq	r2, [r2, -r1, lsl #2]
     824:	05010100 	streq	r0, [r1, #-256]	@ 0xffffff00
     828:	02050001 	andeq	r0, r5, #1
     82c:	080004a0 	stmdaeq	r0, {r5, r7, sl}
     830:	0101bd03 	tsteq	r1, r3, lsl #26
     834:	052f0605 	streq	r0, [pc, #-1541]!	@ 237 <_Min_Heap_Size+0x37>
     838:	11053c0b 	tstne	r5, fp, lsl #24
     83c:	2e02053d 	mcrcs	5, 0, r0, cr2, cr13, {1}
     840:	02210105 	eoreq	r0, r1, #1073741825	@ 0x40000001
     844:	01010007 	tsteq	r1, r7
     848:	05000105 	streq	r0, [r0, #-261]	@ 0xfffffefb
     84c:	0004c402 	andeq	ip, r4, r2, lsl #8
     850:	01c30308 	biceq	r0, r3, r8, lsl #6
     854:	2f090501 	svccs	0x00090501
     858:	052e0e05 	streq	r0, [lr, #-3589]!	@ 0xfffff1fb
     85c:	1d052e04 	stcne	14, cr2, [r5, #-16]
     860:	01040200 	mrseq	r0, R12_usr
     864:	0022052e 	eoreq	r0, r2, lr, lsr #10
     868:	3c010402 	cfstrscc	mvf0, [r1], {2}
     86c:	02003c05 	andeq	r3, r0, #1280	@ 0x500
     870:	053c0104 	ldreq	r0, [ip, #-260]!	@ 0xfffffefc
     874:	0402002d 	streq	r0, [r2], #-45	@ 0xffffffd3
     878:	09052e01 	stmdbeq	r5, {r0, r9, sl, fp, sp}
     87c:	2e0e0521 	cfsh32cs	mvfx0, mvfx14, #17
     880:	052e0405 	streq	r0, [lr, #-1029]!	@ 0xfffffbfb
     884:	0402001d 	streq	r0, [r2], #-29	@ 0xffffffe3
     888:	22052e01 	andcs	r2, r5, #1, 28
     88c:	01040200 	mrseq	r0, R12_usr
     890:	003c053c 	eorseq	r0, ip, ip, lsr r5
     894:	3c010402 	cfstrscc	mvf0, [r1], {2}
     898:	02002d05 	andeq	r2, r0, #320	@ 0x140
     89c:	052e0104 	streq	r0, [lr, #-260]!	@ 0xfffffefc
     8a0:	0e052109 	adfeqs	f2, f5, #1.0
     8a4:	2e04052e 	cfsh32cs	mvfx0, mvfx4, #30
     8a8:	02001d05 	andeq	r1, r0, #320	@ 0x140
     8ac:	052e0104 	streq	r0, [lr, #-260]!	@ 0xfffffefc
     8b0:	04020022 	streq	r0, [r2], #-34	@ 0xffffffde
     8b4:	3c053c01 	stccc	12, cr3, [r5], {1}
     8b8:	01040200 	mrseq	r0, R12_usr
     8bc:	002d053c 	eoreq	r0, sp, ip, lsr r5
     8c0:	2e010402 	cdpcs	4, 0, cr0, cr1, cr2, {0}
     8c4:	05210905 	streq	r0, [r1, #-2309]!	@ 0xfffff6fb
     8c8:	04052e0e 	streq	r2, [r5], #-3598	@ 0xfffff1f2
     8cc:	001d052e 	andseq	r0, sp, lr, lsr #10
     8d0:	2e010402 	cdpcs	4, 0, cr0, cr1, cr2, {0}
     8d4:	02002205 	andeq	r2, r0, #1342177280	@ 0x50000000
     8d8:	053c0104 	ldreq	r0, [ip, #-260]!	@ 0xfffffefc
     8dc:	0402003c 	streq	r0, [r2], #-60	@ 0xffffffc4
     8e0:	2d053c01 	stccs	12, cr3, [r5, #-4]
     8e4:	01040200 	mrseq	r0, R12_usr
     8e8:	2109052e 	tstcs	r9, lr, lsr #10
     8ec:	052e0e05 	streq	r0, [lr, #-3589]!	@ 0xfffff1fb
     8f0:	1d052e04 	stcne	14, cr2, [r5, #-16]
     8f4:	01040200 	mrseq	r0, R12_usr
     8f8:	0022052e 	eoreq	r0, r2, lr, lsr #10
     8fc:	3c010402 	cfstrscc	mvf0, [r1], {2}
     900:	02003c05 	andeq	r3, r0, #1280	@ 0x500
     904:	053c0104 	ldreq	r0, [ip, #-260]!	@ 0xfffffefc
     908:	0402002d 	streq	r0, [r2], #-45	@ 0xffffffd3
     90c:	01052e01 	tsteq	r5, r1, lsl #28
     910:	00070221 	andeq	r0, r7, r1, lsr #4
     914:	01050101 	tsteq	r5, r1, lsl #2
     918:	6c020500 	cfstr32vs	mvfx0, [r2], {-0}
     91c:	03080005 	movweq	r0, #32773	@ 0x8005
     920:	050101cc 	streq	r0, [r1, #-460]	@ 0xfffffe34
     924:	0e052f09 	cdpeq	15, 0, cr2, cr5, cr9, {0}
     928:	2e04052e 	cfsh32cs	mvfx0, mvfx4, #30
     92c:	02001e05 	andeq	r1, r0, #5, 28	@ 0x50
     930:	052e0104 	streq	r0, [lr, #-260]!	@ 0xfffffefc
     934:	04020023 	streq	r0, [r2], #-35	@ 0xffffffdd
     938:	3e053c01 	cdpcc	12, 0, cr3, cr5, cr1, {0}
     93c:	01040200 	mrseq	r0, R12_usr
     940:	002f053c 	eoreq	r0, pc, ip, lsr r5	@ <UNPREDICTABLE>
     944:	2e010402 	cdpcs	4, 0, cr0, cr1, cr2, {0}
     948:	05210905 	streq	r0, [r1, #-2309]!	@ 0xfffff6fb
     94c:	04052e0e 	streq	r2, [r5], #-3598	@ 0xfffff1f2
     950:	001e052e 	andseq	r0, lr, lr, lsr #10
     954:	2e010402 	cdpcs	4, 0, cr0, cr1, cr2, {0}
     958:	02002305 	andeq	r2, r0, #335544320	@ 0x14000000
     95c:	053c0104 	ldreq	r0, [ip, #-260]!	@ 0xfffffefc
     960:	0402003e 	streq	r0, [r2], #-62	@ 0xffffffc2
     964:	2f053c01 	svccs	0x00053c01
     968:	01040200 	mrseq	r0, R12_usr
     96c:	2109052e 	tstcs	r9, lr, lsr #10
     970:	052e0e05 	streq	r0, [lr, #-3589]!	@ 0xfffff1fb
     974:	1e052e04 	cdpne	14, 0, cr2, cr5, cr4, {0}
     978:	01040200 	mrseq	r0, R12_usr
     97c:	0023052e 	eoreq	r0, r3, lr, lsr #10
     980:	3c010402 	cfstrscc	mvf0, [r1], {2}
     984:	02003e05 	andeq	r3, r0, #5, 28	@ 0x50
     988:	053c0104 	ldreq	r0, [ip, #-260]!	@ 0xfffffefc
     98c:	0402002f 	streq	r0, [r2], #-47	@ 0xffffffd1
     990:	09052e01 	stmdbeq	r5, {r0, r9, sl, fp, sp}
     994:	2e0e0521 	cfsh32cs	mvfx0, mvfx14, #17
     998:	052e0405 	streq	r0, [lr, #-1029]!	@ 0xfffffbfb
     99c:	0402001e 	streq	r0, [r2], #-30	@ 0xffffffe2
     9a0:	23052e01 	movwcs	r2, #24065	@ 0x5e01
     9a4:	01040200 	mrseq	r0, R12_usr
     9a8:	003e053c 	eorseq	r0, lr, ip, lsr r5
     9ac:	3c010402 	cfstrscc	mvf0, [r1], {2}
     9b0:	02002f05 	andeq	r2, r0, #5, 30
     9b4:	052e0104 	streq	r0, [lr, #-260]!	@ 0xfffffefc
     9b8:	0e052109 	adfeqs	f2, f5, #1.0
     9bc:	2e04052e 	cfsh32cs	mvfx0, mvfx4, #30
     9c0:	02001e05 	andeq	r1, r0, #5, 28	@ 0x50
     9c4:	052e0104 	streq	r0, [lr, #-260]!	@ 0xfffffefc
     9c8:	04020023 	streq	r0, [r2], #-35	@ 0xffffffdd
     9cc:	3e053c01 	cdpcc	12, 0, cr3, cr5, cr1, {0}
     9d0:	01040200 	mrseq	r0, R12_usr
     9d4:	002f053c 	eoreq	r0, pc, ip, lsr r5	@ <UNPREDICTABLE>
     9d8:	2e010402 	cdpcs	4, 0, cr0, cr1, cr2, {0}
     9dc:	05210905 	streq	r0, [r1, #-2309]!	@ 0xfffff6fb
     9e0:	04052e0e 	streq	r2, [r5], #-3598	@ 0xfffff1f2
     9e4:	001e052e 	andseq	r0, lr, lr, lsr #10
     9e8:	2e010402 	cdpcs	4, 0, cr0, cr1, cr2, {0}
     9ec:	02002305 	andeq	r2, r0, #335544320	@ 0x14000000
     9f0:	053c0104 	ldreq	r0, [ip, #-260]!	@ 0xfffffefc
     9f4:	0402003e 	streq	r0, [r2], #-62	@ 0xffffffc2
     9f8:	2f053c01 	svccs	0x00053c01
     9fc:	01040200 	mrseq	r0, R12_usr
     a00:	2101052e 	tstcs	r1, lr, lsr #10
     a04:	01000602 	tsteq	r0, r2, lsl #12
     a08:	00089601 	andeq	r9, r8, r1, lsl #12
     a0c:	ec000300 	stc	3, cr0, [r0], {-0}
     a10:	02000004 	andeq	r0, r0, #4
     a14:	0d0efb01 	vstreq	d15, [lr, #-4]
     a18:	01010100 	mrseq	r0, (UNDEF: 17)
     a1c:	00000001 	andeq	r0, r0, r1
     a20:	01000001 	tsteq	r0, r1
     a24:	532f2e2e 			@ <UNDEFINED> instruction: 0x532f2e2e
     a28:	4d2f6372 	stcmi	3, cr6, [pc, #-456]!	@ 868 <_Min_Stack_Size+0x468>
     a2c:	004c4143 	subeq	r4, ip, r3, asr #2
     a30:	535c3a43 	cmppl	ip, #274432	@ 0x43000
     a34:	54535c54 	ldrbpl	r5, [r3], #-3156	@ 0xfffff3ac
     a38:	4332334d 	teqmi	r2, #872415233	@ 0x34000001
     a3c:	49656275 	stmdbmi	r5!, {r0, r2, r4, r5, r6, r9, sp, lr}^
     a40:	315f4544 	cmpcc	pc, r4, asr #10
     a44:	2e33312e 	rsfcssp	f3, f3, #0.5
     a48:	54535c32 	ldrbpl	r5, [r3], #-3122	@ 0xfffff3ce
     a4c:	4332334d 	teqmi	r2, #872415233	@ 0x34000001
     a50:	49656275 	stmdbmi	r5!, {r0, r2, r4, r5, r6, r9, sp, lr}^
     a54:	705c4544 	subsvc	r4, ip, r4, asr #10
     a58:	6967756c 	stmdbvs	r7!, {r2, r3, r5, r6, r8, sl, ip, sp, lr}^
     a5c:	635c736e 	cmpvs	ip, #-1207959551	@ 0xb8000001
     a60:	732e6d6f 			@ <UNDEFINED> instruction: 0x732e6d6f
     a64:	74732e74 	ldrbtvc	r2, [r3], #-3700	@ 0xfffff18c
     a68:	6332336d 	teqvs	r2, #-1275068415	@ 0xb4000001
     a6c:	2e656275 	mcrcs	2, 3, r6, cr5, cr5, {3}
     a70:	2e656469 	cdpcs	4, 6, cr6, cr5, cr9, {3}
     a74:	2e75636d 	cdpcs	3, 7, cr6, cr5, cr13, {3}
     a78:	65747865 	ldrbvs	r7, [r4, #-2149]!	@ 0xfffff79b
     a7c:	6c616e72 	stclvs	14, cr6, [r1], #-456	@ 0xfffffe38
     a80:	6c6f6f74 	stclvs	15, cr6, [pc], #-464	@ 8b8 <_Min_Stack_Size+0x4b8>
     a84:	6e672e73 	mcrvs	14, 3, r2, cr7, cr3, {3}
     a88:	6f742d75 	svcvs	0x00742d75
     a8c:	2d736c6f 	ldclcs	12, cr6, [r3, #-444]!	@ 0xfffffe44
     a90:	2d726f66 	ldclcs	15, cr6, [r2, #-408]!	@ 0xfffffe68
     a94:	336d7473 	cmncc	sp, #1929379840	@ 0x73000000
     a98:	32312e32 	eorscc	r2, r1, #800	@ 0x320
     a9c:	722e332e 	eorvc	r3, lr, #-1207959552	@ 0xb8000000
     aa0:	2e316c65 	cdpcs	12, 3, cr6, cr1, cr5, {3}
     aa4:	336e6977 	cmncc	lr, #1949696	@ 0x1dc000
     aa8:	2e315f32 	mrccs	15, 1, r5, cr1, cr2, {1}
     aac:	30312e30 	eorscc	r2, r1, r0, lsr lr
     ab0:	30322e30 	eorscc	r2, r2, r0, lsr lr
     ab4:	33303432 	teqcc	r0, #838860800	@ 0x32000000
     ab8:	32313131 	eorscc	r3, r1, #1073741836	@ 0x4000000c
     abc:	745c3635 	ldrbvc	r3, [ip], #-1589	@ 0xfffff9cb
     ac0:	736c6f6f 	cmnvc	ip, #444	@ 0x1bc
     ac4:	6e69625c 	mcrvs	2, 3, r6, cr9, cr12, {2}
     ac8:	2f2e2e2f 	svccs	0x002e2e2f
     acc:	2f62696c 	svccs	0x0062696c
     ad0:	2f636367 	svccs	0x00636367
     ad4:	2d6d7261 	sfmcs	f7, 2, [sp, #-388]!	@ 0xfffffe7c
     ad8:	656e6f6e 	strbvs	r6, [lr, #-3950]!	@ 0xfffff092
     adc:	6261652d 	rsbvs	r6, r1, #188743680	@ 0xb400000
     ae0:	32312f69 	eorscc	r2, r1, #420	@ 0x1a4
     ae4:	312e332e 			@ <UNDEFINED> instruction: 0x312e332e
     ae8:	2f2e2e2f 	svccs	0x002e2e2f
     aec:	2e2f2e2e 	cdpcs	14, 2, cr2, cr15, cr14, {1}
     af0:	2e2e2f2e 	cdpcs	15, 2, cr2, cr14, cr14, {1}
     af4:	6d72612f 	ldfvse	f6, [r2, #-188]!	@ 0xffffff44
     af8:	6e6f6e2d 	cdpvs	14, 6, cr6, cr15, cr13, {1}
     afc:	61652d65 	cmnvs	r5, r5, ror #26
     b00:	692f6962 	stmdbvs	pc!, {r1, r5, r6, r8, fp, sp, lr}	@ <UNPREDICTABLE>
     b04:	756c636e 	strbvc	r6, [ip, #-878]!	@ 0xfffffc92
     b08:	6d2f6564 	cfstr32vs	mvfx6, [pc, #-400]!	@ 980 <_Min_Stack_Size+0x580>
     b0c:	69686361 	stmdbvs	r8!, {r0, r5, r6, r8, r9, sp, lr}^
     b10:	4300656e 	movwmi	r6, #1390	@ 0x56e
     b14:	54535c3a 	ldrbpl	r5, [r3], #-3130	@ 0xfffff3c6
     b18:	4d54535c 	ldclmi	3, cr5, [r4, #-368]	@ 0xfffffe90
     b1c:	75433233 	strbvc	r3, [r3, #-563]	@ 0xfffffdcd
     b20:	44496562 	strbmi	r6, [r9], #-1378	@ 0xfffffa9e
     b24:	2e315f45 	cdpcs	15, 3, cr5, cr1, cr5, {2}
     b28:	322e3331 	eorcc	r3, lr, #-1006632960	@ 0xc4000000
     b2c:	4d54535c 	ldclmi	3, cr5, [r4, #-368]	@ 0xfffffe90
     b30:	75433233 	strbvc	r3, [r3, #-563]	@ 0xfffffdcd
     b34:	44496562 	strbmi	r6, [r9], #-1378	@ 0xfffffa9e
     b38:	6c705c45 	ldclvs	12, cr5, [r0], #-276	@ 0xfffffeec
     b3c:	6e696775 	mcrvs	7, 3, r6, cr9, cr5, {3}
     b40:	6f635c73 	svcvs	0x00635c73
     b44:	74732e6d 	ldrbtvc	r2, [r3], #-3693	@ 0xfffff193
     b48:	6d74732e 	ldclvs	3, cr7, [r4, #-184]!	@ 0xffffff48
     b4c:	75633233 	strbvc	r3, [r3, #-563]!	@ 0xfffffdcd
     b50:	692e6562 	stmdbvs	lr!, {r1, r5, r6, r8, sl, sp, lr}
     b54:	6d2e6564 	cfstr32vs	mvfx6, [lr, #-400]!	@ 0xfffffe70
     b58:	652e7563 	strvs	r7, [lr, #-1379]!	@ 0xfffffa9d
     b5c:	72657478 	rsbvc	r7, r5, #120, 8	@ 0x78000000
     b60:	746c616e 	strbtvc	r6, [ip], #-366	@ 0xfffffe92
     b64:	736c6f6f 	cmnvc	ip, #444	@ 0x1bc
     b68:	756e672e 	strbvc	r6, [lr, #-1838]!	@ 0xfffff8d2
     b6c:	6f6f742d 	svcvs	0x006f742d
     b70:	662d736c 	strtvs	r7, [sp], -ip, ror #6
     b74:	732d726f 			@ <UNDEFINED> instruction: 0x732d726f
     b78:	32336d74 	eorscc	r6, r3, #116, 26	@ 0x1d00
     b7c:	2e32312e 	rsfcssp	f3, f2, #0.5
     b80:	65722e33 	ldrbvs	r2, [r2, #-3635]!	@ 0xfffff1cd
     b84:	772e316c 	strvc	r3, [lr, -ip, ror #2]!
     b88:	32336e69 	eorscc	r6, r3, #1680	@ 0x690
     b8c:	302e315f 	eorcc	r3, lr, pc, asr r1
     b90:	3030312e 	eorscc	r3, r0, lr, lsr #2
     b94:	3230322e 	eorscc	r3, r0, #-536870910	@ 0xe0000002
     b98:	31333034 	teqcc	r3, r4, lsr r0
     b9c:	35323131 	ldrcc	r3, [r2, #-305]!	@ 0xfffffecf
     ba0:	6f745c36 	svcvs	0x00745c36
     ba4:	5c736c6f 	ldclpl	12, cr6, [r3], #-444	@ 0xfffffe44
     ba8:	2f6e6962 	svccs	0x006e6962
     bac:	6c2f2e2e 	stcvs	14, cr2, [pc], #-184	@ afc <_Min_Stack_Size+0x6fc>
     bb0:	672f6269 	strvs	r6, [pc, -r9, ror #4]!
     bb4:	612f6363 			@ <UNDEFINED> instruction: 0x612f6363
     bb8:	6e2d6d72 	mcrvs	13, 1, r6, cr13, cr2, {3}
     bbc:	2d656e6f 	stclcs	14, cr6, [r5, #-444]!	@ 0xfffffe44
     bc0:	69626165 	stmdbvs	r2!, {r0, r2, r5, r6, r8, sp, lr}^
     bc4:	2e32312f 	rsfcssp	f3, f2, #10.0
     bc8:	2f312e33 	svccs	0x00312e33
     bcc:	2e2f2e2e 	cdpcs	14, 2, cr2, cr15, cr14, {1}
     bd0:	2e2e2f2e 	cdpcs	15, 2, cr2, cr14, cr14, {1}
     bd4:	2f2e2e2f 	svccs	0x002e2e2f
     bd8:	2d6d7261 	sfmcs	f7, 2, [sp, #-388]!	@ 0xfffffe7c
     bdc:	656e6f6e 	strbvs	r6, [lr, #-3950]!	@ 0xfffff092
     be0:	6261652d 	rsbvs	r6, r1, #188743680	@ 0xb400000
     be4:	6e692f69 	cdpvs	15, 6, cr2, cr9, cr9, {3}
     be8:	64756c63 	ldrbtvs	r6, [r5], #-3171	@ 0xfffff39d
     bec:	79732f65 	ldmdbvc	r3!, {r0, r2, r5, r6, r8, r9, sl, fp, sp}^
     bf0:	3a440073 	bcc	1100dc4 <_Min_Stack_Size+0x11009c4>
     bf4:	626d452f 	rsbvs	r4, sp, #197132288	@ 0xbc00000
     bf8:	65646465 	strbvs	r6, [r4, #-1125]!	@ 0xfffffb9b
     bfc:	79532064 	ldmdbvc	r3, {r2, r5, r6, sp}^
     c00:	6d657473 	cfstrdvs	mvd7, [r5, #-460]!	@ 0xfffffe34
     c04:	70694420 	rsbvc	r4, r9, r0, lsr #8
     c08:	616d6f6c 	cmnvs	sp, ip, ror #30
     c0c:	73614d2f 	cmnvc	r1, #3008	@ 0xbc0
     c10:	6e697274 	mcrvs	2, 3, r7, cr9, cr4, {3}
     c14:	6d452067 	stclvs	0, cr2, [r5, #-412]	@ 0xfffffe64
     c18:	64646562 	strbtvs	r6, [r4], #-1378	@ 0xfffffa9e
     c1c:	53206465 			@ <UNDEFINED> instruction: 0x53206465
     c20:	65747379 	ldrbvs	r7, [r4, #-889]!	@ 0xfffffc87
     c24:	6957206d 	ldmdbvs	r7, {r0, r2, r3, r5, r6, sp}^
     c28:	4b206874 	blmi	81ae00 <_Min_Stack_Size+0x81aa00>
     c2c:	302f532e 	eorcc	r5, pc, lr, lsr #6
     c30:	74535f31 	ldrbvc	r5, [r3], #-3889	@ 0xfffff0cf
     c34:	6275436d 	rsbsvs	r4, r5, #-1275068415	@ 0xb4000001
     c38:	6f575f65 	svcvs	0x00575f65
     c3c:	70736b72 	rsbsvc	r6, r3, r2, ror fp
     c40:	2f656361 	svccs	0x00656361
     c44:	555f3930 	ldrbpl	r3, [pc, #-2352]	@ 31c <_Min_Heap_Size+0x11c>
     c48:	334c3431 	movtcc	r3, #50225	@ 0xc431
     c4c:	532f3141 			@ <UNDEFINED> instruction: 0x532f3141
     c50:	552f6372 	strpl	r6, [pc, #-882]!	@ 8e6 <_Min_Stack_Size+0x4e6>
     c54:	534c4954 	movtpl	r4, #51540	@ 0xc954
     c58:	636e692f 	cmnvs	lr, #770048	@ 0xbc000
     c5c:	2f3a4400 	svccs	0x003a4400
     c60:	65626d45 	strbvs	r6, [r2, #-3397]!	@ 0xfffff2bb
     c64:	64656464 	strbtvs	r6, [r5], #-1124	@ 0xfffffb9c
     c68:	73795320 	cmnvc	r9, #32, 6	@ 0x80000000
     c6c:	206d6574 	rsbcs	r6, sp, r4, ror r5
     c70:	6c706944 			@ <UNDEFINED> instruction: 0x6c706944
     c74:	2f616d6f 	svccs	0x00616d6f
     c78:	7473614d 	ldrbtvc	r6, [r3], #-333	@ 0xfffffeb3
     c7c:	676e6972 			@ <UNDEFINED> instruction: 0x676e6972
     c80:	626d4520 	rsbvs	r4, sp, #32, 10	@ 0x8000000
     c84:	65646465 	strbvs	r6, [r4, #-1125]!	@ 0xfffffb9b
     c88:	79532064 	ldmdbvc	r3, {r2, r5, r6, sp}^
     c8c:	6d657473 	cfstrdvs	mvd7, [r5, #-460]!	@ 0xfffffe34
     c90:	74695720 	strbtvc	r5, [r9], #-1824	@ 0xfffff8e0
     c94:	2e4b2068 	cdpcs	0, 4, cr2, cr11, cr8, {3}
     c98:	31302f53 	teqcc	r0, r3, asr pc
     c9c:	6d74535f 	ldclvs	3, cr5, [r4, #-380]!	@ 0xfffffe84
     ca0:	65627543 	strbvs	r7, [r2, #-1347]!	@ 0xfffffabd
     ca4:	726f575f 	rsbvc	r5, pc, #24903680	@ 0x17c0000
     ca8:	6170736b 	cmnvs	r0, fp, ror #6
     cac:	302f6563 	eorcc	r6, pc, r3, ror #10
     cb0:	31555f39 	cmpcc	r5, r9, lsr pc
     cb4:	41334c34 	teqmi	r3, r4, lsr ip
     cb8:	72532f31 	subsvc	r2, r3, #49, 30	@ 0xc4
     cbc:	434d2f63 	movtmi	r2, #57187	@ 0xdf63
     cc0:	692f4c41 	stmdbvs	pc!, {r0, r6, sl, fp, lr}	@ <UNPREDICTABLE>
     cc4:	4300636e 	movwmi	r6, #878	@ 0x36e
     cc8:	54535c3a 	ldrbpl	r5, [r3], #-3130	@ 0xfffff3c6
     ccc:	4d54535c 	ldclmi	3, cr5, [r4, #-368]	@ 0xfffffe90
     cd0:	75433233 	strbvc	r3, [r3, #-563]	@ 0xfffffdcd
     cd4:	44496562 	strbmi	r6, [r9], #-1378	@ 0xfffffa9e
     cd8:	2e315f45 	cdpcs	15, 3, cr5, cr1, cr5, {2}
     cdc:	322e3331 	eorcc	r3, lr, #-1006632960	@ 0xc4000000
     ce0:	4d54535c 	ldclmi	3, cr5, [r4, #-368]	@ 0xfffffe90
     ce4:	75433233 	strbvc	r3, [r3, #-563]	@ 0xfffffdcd
     ce8:	44496562 	strbmi	r6, [r9], #-1378	@ 0xfffffa9e
     cec:	6c705c45 	ldclvs	12, cr5, [r0], #-276	@ 0xfffffeec
     cf0:	6e696775 	mcrvs	7, 3, r6, cr9, cr5, {3}
     cf4:	6f635c73 	svcvs	0x00635c73
     cf8:	74732e6d 	ldrbtvc	r2, [r3], #-3693	@ 0xfffff193
     cfc:	6d74732e 	ldclvs	3, cr7, [r4, #-184]!	@ 0xffffff48
     d00:	75633233 	strbvc	r3, [r3, #-563]!	@ 0xfffffdcd
     d04:	692e6562 	stmdbvs	lr!, {r1, r5, r6, r8, sl, sp, lr}
     d08:	6d2e6564 	cfstr32vs	mvfx6, [lr, #-400]!	@ 0xfffffe70
     d0c:	652e7563 	strvs	r7, [lr, #-1379]!	@ 0xfffffa9d
     d10:	72657478 	rsbvc	r7, r5, #120, 8	@ 0x78000000
     d14:	746c616e 	strbtvc	r6, [ip], #-366	@ 0xfffffe92
     d18:	736c6f6f 	cmnvc	ip, #444	@ 0x1bc
     d1c:	756e672e 	strbvc	r6, [lr, #-1838]!	@ 0xfffff8d2
     d20:	6f6f742d 	svcvs	0x006f742d
     d24:	662d736c 	strtvs	r7, [sp], -ip, ror #6
     d28:	732d726f 			@ <UNDEFINED> instruction: 0x732d726f
     d2c:	32336d74 	eorscc	r6, r3, #116, 26	@ 0x1d00
     d30:	2e32312e 	rsfcssp	f3, f2, #0.5
     d34:	65722e33 	ldrbvs	r2, [r2, #-3635]!	@ 0xfffff1cd
     d38:	772e316c 	strvc	r3, [lr, -ip, ror #2]!
     d3c:	32336e69 	eorscc	r6, r3, #1680	@ 0x690
     d40:	302e315f 	eorcc	r3, lr, pc, asr r1
     d44:	3030312e 	eorscc	r3, r0, lr, lsr #2
     d48:	3230322e 	eorscc	r3, r0, #-536870910	@ 0xe0000002
     d4c:	31333034 	teqcc	r3, r4, lsr r0
     d50:	35323131 	ldrcc	r3, [r2, #-305]!	@ 0xfffffecf
     d54:	6f745c36 	svcvs	0x00745c36
     d58:	5c736c6f 	ldclpl	12, cr6, [r3], #-444	@ 0xfffffe44
     d5c:	2f6e6962 	svccs	0x006e6962
     d60:	6c2f2e2e 	stcvs	14, cr2, [pc], #-184	@ cb0 <_Min_Stack_Size+0x8b0>
     d64:	672f6269 	strvs	r6, [pc, -r9, ror #4]!
     d68:	612f6363 			@ <UNDEFINED> instruction: 0x612f6363
     d6c:	6e2d6d72 	mcrvs	13, 1, r6, cr13, cr2, {3}
     d70:	2d656e6f 	stclcs	14, cr6, [r5, #-444]!	@ 0xfffffe44
     d74:	69626165 	stmdbvs	r2!, {r0, r2, r5, r6, r8, sp, lr}^
     d78:	2e32312f 	rsfcssp	f3, f2, #10.0
     d7c:	2f312e33 	svccs	0x00312e33
     d80:	6c636e69 	stclvs	14, cr6, [r3], #-420	@ 0xfffffe5c
     d84:	00656475 	rsbeq	r6, r5, r5, ror r4
     d88:	535c3a43 	cmppl	ip, #274432	@ 0x43000
     d8c:	54535c54 	ldrbpl	r5, [r3], #-3156	@ 0xfffff3ac
     d90:	4332334d 	teqmi	r2, #872415233	@ 0x34000001
     d94:	49656275 	stmdbmi	r5!, {r0, r2, r4, r5, r6, r9, sp, lr}^
     d98:	315f4544 	cmpcc	pc, r4, asr #10
     d9c:	2e33312e 	rsfcssp	f3, f3, #0.5
     da0:	54535c32 	ldrbpl	r5, [r3], #-3122	@ 0xfffff3ce
     da4:	4332334d 	teqmi	r2, #872415233	@ 0x34000001
     da8:	49656275 	stmdbmi	r5!, {r0, r2, r4, r5, r6, r9, sp, lr}^
     dac:	705c4544 	subsvc	r4, ip, r4, asr #10
     db0:	6967756c 	stmdbvs	r7!, {r2, r3, r5, r6, r8, sl, ip, sp, lr}^
     db4:	635c736e 	cmpvs	ip, #-1207959551	@ 0xb8000001
     db8:	732e6d6f 			@ <UNDEFINED> instruction: 0x732e6d6f
     dbc:	74732e74 	ldrbtvc	r2, [r3], #-3700	@ 0xfffff18c
     dc0:	6332336d 	teqvs	r2, #-1275068415	@ 0xb4000001
     dc4:	2e656275 	mcrcs	2, 3, r6, cr5, cr5, {3}
     dc8:	2e656469 	cdpcs	4, 6, cr6, cr5, cr9, {3}
     dcc:	2e75636d 	cdpcs	3, 7, cr6, cr5, cr13, {3}
     dd0:	65747865 	ldrbvs	r7, [r4, #-2149]!	@ 0xfffff79b
     dd4:	6c616e72 	stclvs	14, cr6, [r1], #-456	@ 0xfffffe38
     dd8:	6c6f6f74 	stclvs	15, cr6, [pc], #-464	@ c10 <_Min_Stack_Size+0x810>
     ddc:	6e672e73 	mcrvs	14, 3, r2, cr7, cr3, {3}
     de0:	6f742d75 	svcvs	0x00742d75
     de4:	2d736c6f 	ldclcs	12, cr6, [r3, #-444]!	@ 0xfffffe44
     de8:	2d726f66 	ldclcs	15, cr6, [r2, #-408]!	@ 0xfffffe68
     dec:	336d7473 	cmncc	sp, #1929379840	@ 0x73000000
     df0:	32312e32 	eorscc	r2, r1, #800	@ 0x320
     df4:	722e332e 	eorvc	r3, lr, #-1207959552	@ 0xb8000000
     df8:	2e316c65 	cdpcs	12, 3, cr6, cr1, cr5, {3}
     dfc:	336e6977 	cmncc	lr, #1949696	@ 0x1dc000
     e00:	2e315f32 	mrccs	15, 1, r5, cr1, cr2, {1}
     e04:	30312e30 	eorscc	r2, r1, r0, lsr lr
     e08:	30322e30 	eorscc	r2, r2, r0, lsr lr
     e0c:	33303432 	teqcc	r0, #838860800	@ 0x32000000
     e10:	32313131 	eorscc	r3, r1, #1073741836	@ 0x4000000c
     e14:	745c3635 	ldrbvc	r3, [ip], #-1589	@ 0xfffff9cb
     e18:	736c6f6f 	cmnvc	ip, #444	@ 0x1bc
     e1c:	6e69625c 	mcrvs	2, 3, r6, cr9, cr12, {2}
     e20:	2f2e2e2f 	svccs	0x002e2e2f
     e24:	2f62696c 	svccs	0x0062696c
     e28:	2f636367 	svccs	0x00636367
     e2c:	2d6d7261 	sfmcs	f7, 2, [sp, #-388]!	@ 0xfffffe7c
     e30:	656e6f6e 	strbvs	r6, [lr, #-3950]!	@ 0xfffff092
     e34:	6261652d 	rsbvs	r6, r1, #188743680	@ 0xb400000
     e38:	32312f69 	eorscc	r2, r1, #420	@ 0x1a4
     e3c:	312e332e 			@ <UNDEFINED> instruction: 0x312e332e
     e40:	2f2e2e2f 	svccs	0x002e2e2f
     e44:	2e2f2e2e 	cdpcs	14, 2, cr2, cr15, cr14, {1}
     e48:	2e2e2f2e 	cdpcs	15, 2, cr2, cr14, cr14, {1}
     e4c:	6d72612f 	ldfvse	f6, [r2, #-188]!	@ 0xffffff44
     e50:	6e6f6e2d 	cdpvs	14, 6, cr6, cr15, cr13, {1}
     e54:	61652d65 	cmnvs	r5, r5, ror #26
     e58:	692f6962 	stmdbvs	pc!, {r1, r5, r6, r8, fp, sp, lr}	@ <UNPREDICTABLE>
     e5c:	756c636e 	strbvc	r6, [ip, #-878]!	@ 0xfffffc92
     e60:	00006564 	andeq	r6, r0, r4, ror #10
     e64:	4f495047 	svcmi	0x00495047
     e68:	0100632e 	tsteq	r0, lr, lsr #6
     e6c:	645f0000 	ldrbvs	r0, [pc], #-0	@ e74 <_Min_Stack_Size+0xa74>
     e70:	75616665 	strbvc	r6, [r1, #-1637]!	@ 0xfffff99b
     e74:	745f746c 	ldrbvc	r7, [pc], #-1132	@ e7c <_Min_Stack_Size+0xa7c>
     e78:	73657079 	cmnvc	r5, #121	@ 0x79
     e7c:	0200682e 	andeq	r6, r0, #3014656	@ 0x2e0000
     e80:	735f0000 	cmpvc	pc, #0
     e84:	6e696474 	mcrvs	4, 3, r6, cr9, cr4, {3}
     e88:	00682e74 	rsbeq	r2, r8, r4, ror lr
     e8c:	63000003 	movwvs	r0, #3
     e90:	6f6d6d6f 	svcvs	0x006d6d6f
     e94:	00682e6e 	rsbeq	r2, r8, lr, ror #28
     e98:	73000004 	movwvc	r0, #4
     e9c:	32336d74 	eorscc	r6, r3, #116, 26	@ 0x1d00
     ea0:	33303166 	teqcc	r0, #-2147483623	@ 0x80000019
     ea4:	682e3678 	stmdavs	lr!, {r3, r4, r5, r6, r9, sl, ip, sp}
     ea8:	00000400 	andeq	r0, r0, r0, lsl #8
     eac:	4f495047 	svcmi	0x00495047
     eb0:	0500682e 	streq	r6, [r0, #-2094]	@ 0xfffff7d2
     eb4:	74730000 	ldrbtvc	r0, [r3], #-0
     eb8:	746e6964 	strbtvc	r6, [lr], #-2404	@ 0xfffff69c
     ebc:	0600682e 	streq	r6, [r0], -lr, lsr #16
     ec0:	74730000 	ldrbtvc	r0, [r3], #-0
     ec4:	746e6964 	strbtvc	r6, [lr], #-2404	@ 0xfffff69c
     ec8:	0700682e 	streq	r6, [r0, -lr, lsr #16]
     ecc:	65660000 	strbvs	r0, [r6, #-0]!
     ed0:	72757461 	rsbsvc	r7, r5, #1627389952	@ 0x61000000
     ed4:	682e7365 	stmdavs	lr!, {r0, r2, r5, r6, r8, r9, ip, sp, lr}
     ed8:	00000300 	andeq	r0, r0, r0, lsl #6
     edc:	77656e5f 			@ <UNDEFINED> instruction: 0x77656e5f
     ee0:	5f62696c 	svcpl	0x0062696c
     ee4:	73726576 	cmnvc	r2, #494927872	@ 0x1d800000
     ee8:	2e6e6f69 	cdpcs	15, 6, cr6, cr14, cr9, {3}
     eec:	00070068 	andeq	r0, r7, r8, rrx
     ef0:	6e695f00 	cdpvs	15, 6, cr5, cr9, cr0, {0}
     ef4:	70757374 	rsbsvc	r7, r5, r4, ror r3
     ef8:	0300682e 	movweq	r6, #2094	@ 0x82e
     efc:	05000000 	streq	r0, [r0, #-0]
     f00:	02050001 	andeq	r0, r5, #1
     f04:	08000630 	stmdaeq	r0, {r4, r5, r9, sl}
     f08:	05011603 	streq	r1, [r1, #-1539]	@ 0xfffff9fd
     f0c:	04056718 	streq	r6, [r5], #-1816	@ 0xfffff8e8
     f10:	3e03052f 	cfsh32cc	mvfx0, mvfx3, #31
     f14:	27021505 	strcs	r1, [r2, -r5, lsl #10]
     f18:	3d080515 	cfstr32cc	mvfx0, [r8, #-84]	@ 0xffffffac
     f1c:	052f0405 	streq	r0, [pc, #-1029]!	@ b1f <_Min_Stack_Size+0x71f>
     f20:	08052315 	stmdaeq	r5, {r0, r2, r4, r8, r9, sp}
     f24:	2f04053d 	svccs	0x0004053d
     f28:	05231505 	streq	r1, [r3, #-1285]!	@ 0xfffffafb
     f2c:	04053d08 	streq	r3, [r5], #-3336	@ 0xfffff2f8
     f30:	2315052f 	tstcs	r5, #197132288	@ 0xbc00000
     f34:	053d0805 	ldreq	r0, [sp, #-2053]!	@ 0xfffff7fb
     f38:	15052f04 	strne	r2, [r5, #-3844]	@ 0xfffff0fc
     f3c:	3d080523 	cfstr32cc	mvfx0, [r8, #-140]	@ 0xffffff74
     f40:	052f0405 	streq	r0, [pc, #-1029]!	@ b43 <_Min_Stack_Size+0x743>
     f44:	08052315 	stmdaeq	r5, {r0, r2, r4, r8, r9, sp}
     f48:	2f04053d 	svccs	0x0004053d
     f4c:	05231505 	streq	r1, [r3, #-1285]!	@ 0xfffffafb
     f50:	04053d08 	streq	r3, [r5], #-3336	@ 0xfffff2f8
     f54:	2315052f 	tstcs	r5, #197132288	@ 0xbc00000
     f58:	053d0805 	ldreq	r0, [sp, #-2053]!	@ 0xfffff7fb
     f5c:	10052f04 	andne	r2, r5, r4, lsl #30
     f60:	41070521 	tstmi	r7, r1, lsr #10
     f64:	05300905 	ldreq	r0, [r0, #-2309]!	@ 0xfffff6fb
     f68:	05022101 	streq	r2, [r2, #-257]	@ 0xfffffeff
     f6c:	05010100 	streq	r0, [r1, #-256]	@ 0xffffff00
     f70:	02050001 	andeq	r0, r5, #1
     f74:	0800070c 	stmdaeq	r0, {r2, r3, r8, r9, sl}
     f78:	0100d503 	tsteq	r0, r3, lsl #10
     f7c:	054b1805 	strbeq	r1, [fp, #-2053]	@ 0xfffff7fb
     f80:	0c053004 	stceq	0, cr3, [r5], {4}
     f84:	2f09054d 	svccs	0x0009054d
     f88:	9f210530 	svcls	0x00210530
     f8c:	052e5305 	streq	r5, [lr, #-773]!	@ 0xfffffcfb
     f90:	04020046 	streq	r0, [r2], #-70	@ 0xffffffba
     f94:	63052e01 	movwvs	r2, #24065	@ 0x5e01
     f98:	02040200 	andeq	r0, r4, #0, 4
     f9c:	0053053c 	subseq	r0, r3, ip, lsr r5
     fa0:	2e020402 	cdpcs	4, 0, cr0, cr2, cr2, {0}
     fa4:	02001105 	andeq	r1, r0, #1073741825	@ 0x40000001
     fa8:	05200404 	streq	r0, [r0, #-1028]!	@ 0xfffffbfc
     fac:	04020004 	streq	r0, [r2], #-4
     fb0:	1d052204 	sfmne	f2, 4, [r5, #-16]
     fb4:	04040200 	streq	r0, [r4], #-512	@ 0xfffffe00
     fb8:	0017052e 	andseq	r0, r7, lr, lsr #10
     fbc:	4a040402 	bmi	101fcc <_Min_Stack_Size+0x101bcc>
     fc0:	02001405 	andeq	r1, r0, #83886080	@ 0x5000000
     fc4:	05200404 	streq	r0, [r0, #-1028]!	@ 0xfffffbfc
     fc8:	04020017 	streq	r0, [r2], #-23	@ 0xffffffe9
     fcc:	03053e04 	movweq	r3, #24068	@ 0x5e04
     fd0:	04040200 	streq	r0, [r4], #-512	@ 0xfffffe00
     fd4:	0826052e 	stmdaeq	r6!, {r1, r2, r3, r5, r8, sl}
     fd8:	2e340589 	cfadd32cs	mvfx0, mvfx4, mvfx9
     fdc:	05203a05 	streq	r3, [r0, #-2565]!	@ 0xfffff5fb
     fe0:	50052040 	andpl	r2, r5, r0, asr #32
     fe4:	3c400520 	cfstr64cc	mvdx0, [r0], {32}
     fe8:	052e6105 	streq	r6, [lr, #-261]!	@ 0xfffffefb
     fec:	05052013 	streq	r2, [r5, #-19]	@ 0xffffffed
     ff0:	2e2a053d 	mcrcs	5, 1, r0, cr10, cr13, {1}
     ff4:	053c1505 	ldreq	r1, [ip, #-1285]!	@ 0xfffffafb
     ff8:	04053d0a 	streq	r3, [r5], #-3338	@ 0xfffff2f6
     ffc:	252605ad 	strcs	r0, [r6, #-1453]!	@ 0xfffffa53
    1000:	052e3c05 	streq	r3, [lr, #-3077]!	@ 0xfffff3fb
    1004:	13052045 	movwne	r2, #20549	@ 0x5045
    1008:	3d050520 	cfstr32cc	mvfx0, [r5, #-128]	@ 0xffffff80
    100c:	052e2a05 	streq	r2, [lr, #-2565]!	@ 0xfffff5fb
    1010:	0a053c15 	beq	15006c <_Min_Stack_Size+0x14fc6c>
    1014:	ad04053d 	cfstr32ge	mvfx0, [r4, #-244]	@ 0xffffff0c
    1018:	05240505 	streq	r0, [r4, #-1285]!	@ 0xfffffafb
    101c:	15052e20 	strne	r2, [r5, #-3616]	@ 0xfffff1e0
    1020:	3d04054a 	cfstr32cc	mvfx0, [r4, #-296]	@ 0xfffffed8
    1024:	05d70805 	ldrbeq	r0, [r7, #2053]	@ 0x805
    1028:	05052f04 	streq	r2, [r5, #-3844]	@ 0xfffff0fc
    102c:	2e200524 	cfsh64cs	mvdx0, mvdx0, #20
    1030:	054a1505 	strbeq	r1, [sl, #-1285]	@ 0xfffffafb
    1034:	08053d04 	stmdaeq	r5, {r2, r8, sl, fp, ip, sp}
    1038:	2f0405c9 	svccs	0x000405c9
    103c:	05241305 	streq	r1, [r4, #-773]!	@ 0xfffffcfb
    1040:	2a052f05 	bcs	14cc5c <_Min_Stack_Size+0x14c85c>
    1044:	3c15052e 	cfldr32cc	mvfx0, [r5], {46}	@ 0x2e
    1048:	053d0a05 	ldreq	r0, [sp, #-2565]!	@ 0xfffff5fb
    104c:	1105ad04 	tstne	r5, r4, lsl #26
    1050:	41070522 	tstmi	r7, r2, lsr #10
    1054:	05300905 	ldreq	r0, [r0, #-2309]!	@ 0xfffff6fb
    1058:	04022101 	streq	r2, [r2], #-257	@ 0xfffffeff
    105c:	05010100 	streq	r0, [r1, #-256]	@ 0xffffff00
    1060:	02050001 	andeq	r0, r5, #1
    1064:	00000000 	andeq	r0, r0, r0
    1068:	01019f03 	tsteq	r1, r3, lsl #30
    106c:	05751805 	ldrbeq	r1, [r5, #-2053]!	@ 0xfffff7fb
    1070:	19053004 	stmdbne	r5, {r2, ip, sp}
    1074:	01040200 	mrseq	r0, R12_usr
    1078:	3e05053c 	mcrcc	5, 0, r0, cr5, cr12, {1}
    107c:	053e1605 	ldreq	r1, [lr, #-1541]!	@ 0xfffff9fb
    1080:	08059014 	stmdaeq	r5, {r2, r4, ip, pc}
    1084:	2b05052f 	blcs	142548 <_Min_Stack_Size+0x142148>
    1088:	05270805 	streq	r0, [r7, #-2053]!	@ 0xfffff7fb
    108c:	2e790305 	cdpcs	3, 7, cr0, cr9, cr5, {0}
    1090:	0c030705 	stceq	7, cr0, [r3], {5}
    1094:	30090520 	andcc	r0, r9, r0, lsr #10
    1098:	02210105 	eoreq	r0, r1, #1073741825	@ 0x40000001
    109c:	01010005 	tsteq	r1, r5
    10a0:	05000105 	streq	r0, [r0, #-261]	@ 0xfffffefb
    10a4:	0008bc02 	andeq	fp, r8, r2, lsl #24
    10a8:	01bd0308 			@ <UNDEFINED> instruction: 0x01bd0308
    10ac:	83180501 	tsthi	r8, #4194304	@ 0x400000
    10b0:	05300405 	ldreq	r0, [r0, #-1029]!	@ 0xfffffbfb
    10b4:	55053e05 	strpl	r3, [r5, #-3589]	@ 0xfffff1fb
    10b8:	01040200 	mrseq	r0, R12_usr
    10bc:	3f06053c 	svccc	0x0006053c
    10c0:	053e0505 	ldreq	r0, [lr, #-1285]!	@ 0xfffffafb
    10c4:	06059109 	streq	r9, [r5], -r9, lsl #2
    10c8:	250b052b 	strcs	r0, [fp, #-1323]	@ 0xfffffad5
    10cc:	053e0505 	ldreq	r0, [lr, #-1285]!	@ 0xfffffafb
    10d0:	06059f09 	streq	r9, [r5], -r9, lsl #30
    10d4:	052e7803 	streq	r7, [lr, #-2051]!	@ 0xfffff7fd
    10d8:	200c0309 	andcs	r0, ip, r9, lsl #6
    10dc:	74030605 	strvc	r0, [r3], #-1541	@ 0xfffff9fb
    10e0:	0308052e 	movweq	r0, #34094	@ 0x852e
    10e4:	07052011 	smladeq	r5, r1, r0, r2
    10e8:	30090541 	andcc	r0, r9, r1, asr #10
    10ec:	02210105 	eoreq	r0, r1, #1073741825	@ 0x40000001
    10f0:	01010005 	tsteq	r1, r5
    10f4:	05000105 	streq	r0, [r0, #-261]	@ 0xfffffefb
    10f8:	00000002 	andeq	r0, r0, r2
    10fc:	01e70300 	mvneq	r0, r0, lsl #6
    1100:	67180501 	ldrvs	r0, [r8, -r1, lsl #10]
    1104:	05300405 	ldreq	r0, [r0, #-1029]!	@ 0xfffffbfb
    1108:	04053e05 	streq	r3, [r5], #-3589	@ 0xfffff1fb
    110c:	9108053e 	tstls	r8, lr, lsr r5
    1110:	41070540 	tstmi	r7, r0, asr #10
    1114:	05300905 	ldreq	r0, [r0, #-2309]!	@ 0xfffff6fb
    1118:	05022101 	streq	r2, [r2, #-257]	@ 0xfffffeff
    111c:	05010100 	streq	r0, [r1, #-256]	@ 0xffffff00
    1120:	02050001 	andeq	r0, r5, #1
    1124:	00000000 	andeq	r0, r0, r0
    1128:	01028403 	tsteq	r2, r3, lsl #8
    112c:	05671805 	strbeq	r1, [r7, #-2053]!	@ 0xfffff7fb
    1130:	05053004 	streq	r3, [r5, #-4]
    1134:	3f04053e 	svccc	0x0004053e
    1138:	12059f91 	andne	r9, r5, #580	@ 0x244
    113c:	66100591 			@ <UNDEFINED> instruction: 0x66100591
    1140:	053d1205 	ldreq	r1, [sp, #-517]!	@ 0xfffffdfb
    1144:	06056610 			@ <UNDEFINED> instruction: 0x06056610
    1148:	3e09053e 	mcrcc	5, 0, r0, cr9, cr14, {1}
    114c:	41080540 	tstmi	r8, r0, asr #10
    1150:	05410705 	strbeq	r0, [r1, #-1797]	@ 0xfffff8fb
    1154:	01053009 	tsteq	r5, r9
    1158:	00050221 	andeq	r0, r5, r1, lsr #4
    115c:	01050101 	tsteq	r5, r1, lsl #2
    1160:	00020500 	andeq	r0, r2, r0, lsl #10
    1164:	03000000 	movweq	r0, #0
    1168:	050102af 	streq	r0, [r1, #-687]	@ 0xfffffd51
    116c:	04057518 	streq	r7, [r5], #-1304	@ 0xfffffae8
    1170:	00190530 	andseq	r0, r9, r0, lsr r5
    1174:	3c010402 	cfstrscc	mvf0, [r1], {2}
    1178:	053e0505 	ldreq	r0, [lr, #-1285]!	@ 0xfffffafb
    117c:	10053f12 	andne	r3, r5, r2, lsl pc
    1180:	3e060566 	cfsh32cc	mvfx0, mvfx6, #54
    1184:	053e1405 	ldreq	r1, [lr, #-1029]!	@ 0xfffffbfb
    1188:	05053d09 	streq	r3, [r5, #-3337]	@ 0xfffff2f7
    118c:	052e7803 	streq	r7, [lr, #-2051]!	@ 0xfffff7fd
    1190:	200a030b 	andcs	r0, sl, fp, lsl #6
    1194:	053e1405 	ldreq	r1, [lr, #-1029]!	@ 0xfffffbfb
    1198:	05053d09 	streq	r3, [r5, #-3337]	@ 0xfffff2f7
    119c:	052e7303 	streq	r7, [lr, #-771]!	@ 0xfffffcfd
    11a0:	20110309 	andscs	r0, r1, r9, lsl #6
    11a4:	6f030505 	svcvs	0x00030505
    11a8:	0308052e 	movweq	r0, #34094	@ 0x852e
    11ac:	05052016 	streq	r2, [r5, #-22]	@ 0xffffffea
    11b0:	052e6a03 	streq	r6, [lr, #-2563]!	@ 0xfffff5fd
    11b4:	201b0307 	andscs	r0, fp, r7, lsl #6
    11b8:	05300905 	ldreq	r0, [r0, #-2309]!	@ 0xfffff6fb
    11bc:	05022101 	streq	r2, [r2, #-257]	@ 0xfffffeff
    11c0:	05010100 	streq	r0, [r1, #-256]	@ 0xffffff00
    11c4:	02050001 	andeq	r0, r5, #1
    11c8:	00000000 	andeq	r0, r0, r0
    11cc:	0102db03 	tsteq	r2, r3, lsl #22
    11d0:	05591805 	ldrbeq	r1, [r9, #-2053]	@ 0xfffff7fb
    11d4:	1a053004 	bne	14d1ec <_Min_Stack_Size+0x14cdec>
    11d8:	01040200 	mrseq	r0, R12_usr
    11dc:	3e21053c 	mcrcc	5, 1, r0, cr1, cr12, {1}
    11e0:	052e1405 	streq	r1, [lr, #-1029]!	@ 0xfffffbfb
    11e4:	07052012 	smladeq	r5, r2, r0, r2
    11e8:	0905402f 	stmdbeq	r5, {r0, r1, r2, r3, r5, lr}
    11ec:	21010530 	tstcs	r1, r0, lsr r5
    11f0:	01000502 	tsteq	r0, r2, lsl #10
    11f4:	00010501 	andeq	r0, r1, r1, lsl #10
    11f8:	00000205 	andeq	r0, r0, r5, lsl #4
    11fc:	f1030000 			@ <UNDEFINED> instruction: 0xf1030000
    1200:	18050102 	stmdane	r5, {r1, r8}
    1204:	30040567 	andcc	r0, r4, r7, ror #10
    1208:	053e1005 	ldreq	r1, [lr, #-5]!
    120c:	0705200e 	streq	r2, [r5, -lr]
    1210:	0905402f 	stmdbeq	r5, {r0, r1, r2, r3, r5, lr}
    1214:	21010530 	tstcs	r1, r0, lsr r5
    1218:	01000502 	tsteq	r0, r2, lsl #10
    121c:	00010501 	andeq	r0, r1, r1, lsl #10
    1220:	00000205 	andeq	r0, r0, r5, lsl #4
    1224:	87030000 	strhi	r0, [r3, -r0]
    1228:	18050103 	stmdane	r5, {r0, r1, r8}
    122c:	3004054b 	andcc	r0, r4, fp, asr #10
    1230:	05420705 	strbeq	r0, [r2, #-1797]	@ 0xfffff8fb
    1234:	01053009 	tsteq	r5, r9
    1238:	00050221 	andeq	r0, r5, r1, lsr #4
    123c:	01050101 	tsteq	r5, r1, lsl #2
    1240:	00020500 	andeq	r0, r2, r0, lsl #10
    1244:	03000000 	movweq	r0, #0
    1248:	0501039e 	streq	r0, [r1, #-926]	@ 0xfffffc62
    124c:	05056718 	streq	r6, [r5, #-1816]	@ 0xfffff8e8
    1250:	3f160530 	svccc	0x00160530
    1254:	052e1c05 	streq	r1, [lr, #-3077]!	@ 0xfffff3fb
    1258:	26052e28 	strcs	r2, [r5], -r8, lsr #28
    125c:	200e0520 	andcs	r0, lr, r0, lsr #10
    1260:	402f0705 	eormi	r0, pc, r5, lsl #14
    1264:	05300905 	ldreq	r0, [r0, #-2309]!	@ 0xfffff6fb
    1268:	05022101 	streq	r2, [r2, #-257]	@ 0xfffffeff
    126c:	05010100 	streq	r0, [r1, #-256]	@ 0xffffff00
    1270:	02050001 	andeq	r0, r5, #1
    1274:	00000000 	andeq	r0, r0, r0
    1278:	0103b703 	tsteq	r3, r3, lsl #14
    127c:	05671805 	strbeq	r1, [r7, #-2053]!	@ 0xfffff7fb
    1280:	16053005 	strne	r3, [r5], -r5
    1284:	2e1c053f 	mrccs	5, 0, r0, cr12, cr15, {1}
    1288:	05202905 	streq	r2, [r0, #-2309]!	@ 0xfffff6fb
    128c:	2605203e 			@ <UNDEFINED> instruction: 0x2605203e
    1290:	200e0520 	andcs	r0, lr, r0, lsr #10
    1294:	402f0705 	eormi	r0, pc, r5, lsl #14
    1298:	05300905 	ldreq	r0, [r0, #-2309]!	@ 0xfffff6fb
    129c:	05022101 	streq	r2, [r2, #-257]	@ 0xfffffeff
    12a0:	cc010100 	stfgts	f0, [r1], {-0}
    12a4:	03000006 	movweq	r0, #6
    12a8:	0004ec00 	andeq	lr, r4, r0, lsl #24
    12ac:	fb010200 	blx	41ab6 <_Min_Stack_Size+0x416b6>
    12b0:	01000d0e 	tsteq	r0, lr, lsl #26
    12b4:	00010101 	andeq	r0, r1, r1, lsl #2
    12b8:	00010000 	andeq	r0, r1, r0
    12bc:	2e2e0100 	sufcse	f0, f6, f0
    12c0:	6372532f 	cmnvs	r2, #-1140850688	@ 0xbc000000
    12c4:	41434d2f 	cmpmi	r3, pc, lsr #26
    12c8:	3a43004c 	bcc	10c1400 <_Min_Stack_Size+0x10c1000>
    12cc:	5c54535c 	mrrcpl	3, 5, r5, r4, cr12
    12d0:	334d5453 	movtcc	r5, #54355	@ 0xd453
    12d4:	62754332 	rsbsvs	r4, r5, #-939524096	@ 0xc8000000
    12d8:	45444965 	strbmi	r4, [r4, #-2405]	@ 0xfffff69b
    12dc:	312e315f 			@ <UNDEFINED> instruction: 0x312e315f
    12e0:	5c322e33 	ldcpl	14, cr2, [r2], #-204	@ 0xffffff34
    12e4:	334d5453 	movtcc	r5, #54355	@ 0xd453
    12e8:	62754332 	rsbsvs	r4, r5, #-939524096	@ 0xc8000000
    12ec:	45444965 	strbmi	r4, [r4, #-2405]	@ 0xfffff69b
    12f0:	756c705c 	strbvc	r7, [ip, #-92]!	@ 0xffffffa4
    12f4:	736e6967 	cmnvc	lr, #1687552	@ 0x19c000
    12f8:	6d6f635c 	stclvs	3, cr6, [pc, #-368]!	@ 1190 <_Min_Stack_Size+0xd90>
    12fc:	2e74732e 	cdpcs	3, 7, cr7, cr4, cr14, {1}
    1300:	336d7473 	cmncc	sp, #1929379840	@ 0x73000000
    1304:	62756332 	rsbsvs	r6, r5, #-939524096	@ 0xc8000000
    1308:	64692e65 	strbtvs	r2, [r9], #-3685	@ 0xfffff19b
    130c:	636d2e65 	cmnvs	sp, #1616	@ 0x650
    1310:	78652e75 	stmdavc	r5!, {r0, r2, r4, r5, r6, r9, sl, fp, sp}^
    1314:	6e726574 	mrcvs	5, 3, r6, cr2, cr4, {3}
    1318:	6f746c61 	svcvs	0x00746c61
    131c:	2e736c6f 	cdpcs	12, 7, cr6, cr3, cr15, {3}
    1320:	2d756e67 	ldclcs	14, cr6, [r5, #-412]!	@ 0xfffffe64
    1324:	6c6f6f74 	stclvs	15, cr6, [pc], #-464	@ 115c <_Min_Stack_Size+0xd5c>
    1328:	6f662d73 	svcvs	0x00662d73
    132c:	74732d72 	ldrbtvc	r2, [r3], #-3442	@ 0xfffff28e
    1330:	2e32336d 	cdpcs	3, 3, cr3, cr2, cr13, {3}
    1334:	332e3231 			@ <UNDEFINED> instruction: 0x332e3231
    1338:	6c65722e 	sfmvs	f7, 2, [r5], #-184	@ 0xffffff48
    133c:	69772e31 	ldmdbvs	r7!, {r0, r4, r5, r9, sl, fp, sp}^
    1340:	5f32336e 	svcpl	0x0032336e
    1344:	2e302e31 	mrccs	14, 1, r2, cr0, cr1, {1}
    1348:	2e303031 	mrccs	0, 1, r3, cr0, cr1, {1}
    134c:	34323032 	ldrtcc	r3, [r2], #-50	@ 0xffffffce
    1350:	31313330 	teqcc	r1, r0, lsr r3
    1354:	36353231 			@ <UNDEFINED> instruction: 0x36353231
    1358:	6f6f745c 	svcvs	0x006f745c
    135c:	625c736c 	subsvs	r7, ip, #108, 6	@ 0xb0000001
    1360:	2e2f6e69 	cdpcs	14, 2, cr6, cr15, cr9, {3}
    1364:	696c2f2e 	stmdbvs	ip!, {r1, r2, r3, r5, r8, r9, sl, fp, sp}^
    1368:	63672f62 	cmnvs	r7, #392	@ 0x188
    136c:	72612f63 	rsbvc	r2, r1, #396	@ 0x18c
    1370:	6f6e2d6d 	svcvs	0x006e2d6d
    1374:	652d656e 	strvs	r6, [sp, #-1390]!	@ 0xfffffa92
    1378:	2f696261 	svccs	0x00696261
    137c:	332e3231 			@ <UNDEFINED> instruction: 0x332e3231
    1380:	2e2f312e 	sufcsep	f3, f7, #0.5
    1384:	2e2e2f2e 	cdpcs	15, 2, cr2, cr14, cr14, {1}
    1388:	2f2e2e2f 	svccs	0x002e2e2f
    138c:	612f2e2e 			@ <UNDEFINED> instruction: 0x612f2e2e
    1390:	6e2d6d72 	mcrvs	13, 1, r6, cr13, cr2, {3}
    1394:	2d656e6f 	stclcs	14, cr6, [r5, #-444]!	@ 0xfffffe44
    1398:	69626165 	stmdbvs	r2!, {r0, r2, r5, r6, r8, sp, lr}^
    139c:	636e692f 	cmnvs	lr, #770048	@ 0xbc000
    13a0:	6564756c 	strbvs	r7, [r4, #-1388]!	@ 0xfffffa94
    13a4:	63616d2f 	cmnvs	r1, #3008	@ 0xbc0
    13a8:	656e6968 	strbvs	r6, [lr, #-2408]!	@ 0xfffff698
    13ac:	5c3a4300 	ldcpl	3, cr4, [sl], #-0
    13b0:	535c5453 	cmppl	ip, #1392508928	@ 0x53000000
    13b4:	32334d54 	eorscc	r4, r3, #84, 26	@ 0x1500
    13b8:	65627543 	strbvs	r7, [r2, #-1347]!	@ 0xfffffabd
    13bc:	5f454449 	svcpl	0x00454449
    13c0:	33312e31 	teqcc	r1, #784	@ 0x310
    13c4:	535c322e 	cmppl	ip, #-536870910	@ 0xe0000002
    13c8:	32334d54 	eorscc	r4, r3, #84, 26	@ 0x1500
    13cc:	65627543 	strbvs	r7, [r2, #-1347]!	@ 0xfffffabd
    13d0:	5c454449 	cfstrdpl	mvd4, [r5], {73}	@ 0x49
    13d4:	67756c70 			@ <UNDEFINED> instruction: 0x67756c70
    13d8:	5c736e69 	ldclpl	14, cr6, [r3], #-420	@ 0xfffffe5c
    13dc:	2e6d6f63 	cdpcs	15, 6, cr6, cr13, cr3, {3}
    13e0:	732e7473 			@ <UNDEFINED> instruction: 0x732e7473
    13e4:	32336d74 	eorscc	r6, r3, #116, 26	@ 0x1d00
    13e8:	65627563 	strbvs	r7, [r2, #-1379]!	@ 0xfffffa9d
    13ec:	6564692e 	strbvs	r6, [r4, #-2350]!	@ 0xfffff6d2
    13f0:	75636d2e 	strbvc	r6, [r3, #-3374]!	@ 0xfffff2d2
    13f4:	7478652e 	ldrbtvc	r6, [r8], #-1326	@ 0xfffffad2
    13f8:	616e7265 	cmnvs	lr, r5, ror #4
    13fc:	6f6f746c 	svcvs	0x006f746c
    1400:	672e736c 	strvs	r7, [lr, -ip, ror #6]!
    1404:	742d756e 	strtvc	r7, [sp], #-1390	@ 0xfffffa92
    1408:	736c6f6f 	cmnvc	ip, #444	@ 0x1bc
    140c:	726f662d 	rsbvc	r6, pc, #47185920	@ 0x2d00000
    1410:	6d74732d 	ldclvs	3, cr7, [r4, #-180]!	@ 0xffffff4c
    1414:	312e3233 			@ <UNDEFINED> instruction: 0x312e3233
    1418:	2e332e32 	mrccs	14, 1, r2, cr3, cr2, {1}
    141c:	316c6572 	smccc	50770	@ 0xc652
    1420:	6e69772e 	cdpvs	7, 6, cr7, cr9, cr14, {1}
    1424:	315f3233 	cmpcc	pc, r3, lsr r2	@ <UNPREDICTABLE>
    1428:	312e302e 			@ <UNDEFINED> instruction: 0x312e302e
    142c:	322e3030 	eorcc	r3, lr, #48	@ 0x30
    1430:	30343230 	eorscc	r3, r4, r0, lsr r2
    1434:	31313133 	teqcc	r1, r3, lsr r1
    1438:	5c363532 	cfldr32pl	mvfx3, [r6], #-200	@ 0xffffff38
    143c:	6c6f6f74 	stclvs	15, cr6, [pc], #-464	@ 1274 <_Min_Stack_Size+0xe74>
    1440:	69625c73 	stmdbvs	r2!, {r0, r1, r4, r5, r6, sl, fp, ip, lr}^
    1444:	2e2e2f6e 	cdpcs	15, 2, cr2, cr14, cr14, {3}
    1448:	62696c2f 	rsbvs	r6, r9, #12032	@ 0x2f00
    144c:	6363672f 	cmnvs	r3, #12320768	@ 0xbc0000
    1450:	6d72612f 	ldfvse	f6, [r2, #-188]!	@ 0xffffff44
    1454:	6e6f6e2d 	cdpvs	14, 6, cr6, cr15, cr13, {1}
    1458:	61652d65 	cmnvs	r5, r5, ror #26
    145c:	312f6962 			@ <UNDEFINED> instruction: 0x312f6962
    1460:	2e332e32 	mrccs	14, 1, r2, cr3, cr2, {1}
    1464:	2e2e2f31 	mcrcs	15, 1, r2, cr14, cr1, {1}
    1468:	2f2e2e2f 	svccs	0x002e2e2f
    146c:	2e2f2e2e 	cdpcs	14, 2, cr2, cr15, cr14, {1}
    1470:	72612f2e 	rsbvc	r2, r1, #46, 30	@ 0xb8
    1474:	6f6e2d6d 	svcvs	0x006e2d6d
    1478:	652d656e 	strvs	r6, [sp, #-1390]!	@ 0xfffffa92
    147c:	2f696261 	svccs	0x00696261
    1480:	6c636e69 	stclvs	14, cr6, [r3], #-420	@ 0xfffffe5c
    1484:	2f656475 	svccs	0x00656475
    1488:	00737973 	rsbseq	r7, r3, r3, ror r9
    148c:	452f3a44 	strmi	r3, [pc, #-2628]!	@ a50 <_Min_Stack_Size+0x650>
    1490:	6465626d 	strbtvs	r6, [r5], #-621	@ 0xfffffd93
    1494:	20646564 	rsbcs	r6, r4, r4, ror #10
    1498:	74737953 	ldrbtvc	r7, [r3], #-2387	@ 0xfffff6ad
    149c:	44206d65 	strtmi	r6, [r0], #-3429	@ 0xfffff29b
    14a0:	6f6c7069 	svcvs	0x006c7069
    14a4:	4d2f616d 	stfmis	f6, [pc, #-436]!	@ 12f8 <_Min_Stack_Size+0xef8>
    14a8:	72747361 	rsbsvc	r7, r4, #-2080374783	@ 0x84000001
    14ac:	20676e69 	rsbcs	r6, r7, r9, ror #28
    14b0:	65626d45 	strbvs	r6, [r2, #-3397]!	@ 0xfffff2bb
    14b4:	64656464 	strbtvs	r6, [r5], #-1124	@ 0xfffffb9c
    14b8:	73795320 	cmnvc	r9, #32, 6	@ 0x80000000
    14bc:	206d6574 	rsbcs	r6, sp, r4, ror r5
    14c0:	68746957 	ldmdavs	r4!, {r0, r1, r2, r4, r6, r8, fp, sp, lr}^
    14c4:	532e4b20 			@ <UNDEFINED> instruction: 0x532e4b20
    14c8:	5f31302f 	svcpl	0x0031302f
    14cc:	436d7453 	cmnmi	sp, #1392508928	@ 0x53000000
    14d0:	5f656275 	svcpl	0x00656275
    14d4:	6b726f57 	blvs	1c9d238 <_Min_Stack_Size+0x1c9ce38>
    14d8:	63617073 	cmnvs	r1, #115	@ 0x73
    14dc:	39302f65 	ldmdbcc	r0!, {r0, r2, r5, r6, r8, r9, sl, fp, sp}
    14e0:	3431555f 	ldrtcc	r5, [r1], #-1375	@ 0xfffffaa1
    14e4:	3141334c 	cmpcc	r1, ip, asr #6
    14e8:	6372532f 	cmnvs	r2, #-1140850688	@ 0xbc000000
    14ec:	4954552f 	ldmdbmi	r4, {r0, r1, r2, r3, r5, r8, sl, ip, lr}^
    14f0:	692f534c 	stmdbvs	pc!, {r2, r3, r6, r8, r9, ip, lr}	@ <UNPREDICTABLE>
    14f4:	4400636e 	strmi	r6, [r0], #-878	@ 0xfffffc92
    14f8:	6d452f3a 	stclvs	15, cr2, [r5, #-232]	@ 0xffffff18
    14fc:	64646562 	strbtvs	r6, [r4], #-1378	@ 0xfffffa9e
    1500:	53206465 			@ <UNDEFINED> instruction: 0x53206465
    1504:	65747379 	ldrbvs	r7, [r4, #-889]!	@ 0xfffffc87
    1508:	6944206d 	stmdbvs	r4, {r0, r2, r3, r5, r6, sp}^
    150c:	6d6f6c70 	stclvs	12, cr6, [pc, #-448]!	@ 1354 <_Min_Stack_Size+0xf54>
    1510:	614d2f61 	cmpvs	sp, r1, ror #30
    1514:	69727473 	ldmdbvs	r2!, {r0, r1, r4, r5, r6, sl, ip, sp, lr}^
    1518:	4520676e 	strmi	r6, [r0, #-1902]!	@ 0xfffff892
    151c:	6465626d 	strbtvs	r6, [r5], #-621	@ 0xfffffd93
    1520:	20646564 	rsbcs	r6, r4, r4, ror #10
    1524:	74737953 	ldrbtvc	r7, [r3], #-2387	@ 0xfffff6ad
    1528:	57206d65 	strpl	r6, [r0, -r5, ror #26]!
    152c:	20687469 	rsbcs	r7, r8, r9, ror #8
    1530:	2f532e4b 	svccs	0x00532e4b
    1534:	535f3130 	cmppl	pc, #48, 2
    1538:	75436d74 	strbvc	r6, [r3, #-3444]	@ 0xfffff28c
    153c:	575f6562 	ldrbpl	r6, [pc, -r2, ror #10]
    1540:	736b726f 	cmnvc	fp, #-268435450	@ 0xf0000006
    1544:	65636170 	strbvs	r6, [r3, #-368]!	@ 0xfffffe90
    1548:	5f39302f 	svcpl	0x0039302f
    154c:	4c343155 	ldfmis	f3, [r4], #-340	@ 0xfffffeac
    1550:	2f314133 	svccs	0x00314133
    1554:	2f637253 	svccs	0x00637253
    1558:	4c41434d 	mcrrmi	3, 4, r4, r1, cr13
    155c:	636e692f 	cmnvs	lr, #770048	@ 0xbc000
    1560:	5c3a4300 	ldcpl	3, cr4, [sl], #-0
    1564:	535c5453 	cmppl	ip, #1392508928	@ 0x53000000
    1568:	32334d54 	eorscc	r4, r3, #84, 26	@ 0x1500
    156c:	65627543 	strbvs	r7, [r2, #-1347]!	@ 0xfffffabd
    1570:	5f454449 	svcpl	0x00454449
    1574:	33312e31 	teqcc	r1, #784	@ 0x310
    1578:	535c322e 	cmppl	ip, #-536870910	@ 0xe0000002
    157c:	32334d54 	eorscc	r4, r3, #84, 26	@ 0x1500
    1580:	65627543 	strbvs	r7, [r2, #-1347]!	@ 0xfffffabd
    1584:	5c454449 	cfstrdpl	mvd4, [r5], {73}	@ 0x49
    1588:	67756c70 			@ <UNDEFINED> instruction: 0x67756c70
    158c:	5c736e69 	ldclpl	14, cr6, [r3], #-420	@ 0xfffffe5c
    1590:	2e6d6f63 	cdpcs	15, 6, cr6, cr13, cr3, {3}
    1594:	732e7473 			@ <UNDEFINED> instruction: 0x732e7473
    1598:	32336d74 	eorscc	r6, r3, #116, 26	@ 0x1d00
    159c:	65627563 	strbvs	r7, [r2, #-1379]!	@ 0xfffffa9d
    15a0:	6564692e 	strbvs	r6, [r4, #-2350]!	@ 0xfffff6d2
    15a4:	75636d2e 	strbvc	r6, [r3, #-3374]!	@ 0xfffff2d2
    15a8:	7478652e 	ldrbtvc	r6, [r8], #-1326	@ 0xfffffad2
    15ac:	616e7265 	cmnvs	lr, r5, ror #4
    15b0:	6f6f746c 	svcvs	0x006f746c
    15b4:	672e736c 	strvs	r7, [lr, -ip, ror #6]!
    15b8:	742d756e 	strtvc	r7, [sp], #-1390	@ 0xfffffa92
    15bc:	736c6f6f 	cmnvc	ip, #444	@ 0x1bc
    15c0:	726f662d 	rsbvc	r6, pc, #47185920	@ 0x2d00000
    15c4:	6d74732d 	ldclvs	3, cr7, [r4, #-180]!	@ 0xffffff4c
    15c8:	312e3233 			@ <UNDEFINED> instruction: 0x312e3233
    15cc:	2e332e32 	mrccs	14, 1, r2, cr3, cr2, {1}
    15d0:	316c6572 	smccc	50770	@ 0xc652
    15d4:	6e69772e 	cdpvs	7, 6, cr7, cr9, cr14, {1}
    15d8:	315f3233 	cmpcc	pc, r3, lsr r2	@ <UNPREDICTABLE>
    15dc:	312e302e 			@ <UNDEFINED> instruction: 0x312e302e
    15e0:	322e3030 	eorcc	r3, lr, #48	@ 0x30
    15e4:	30343230 	eorscc	r3, r4, r0, lsr r2
    15e8:	31313133 	teqcc	r1, r3, lsr r1
    15ec:	5c363532 	cfldr32pl	mvfx3, [r6], #-200	@ 0xffffff38
    15f0:	6c6f6f74 	stclvs	15, cr6, [pc], #-464	@ 1428 <_Min_Stack_Size+0x1028>
    15f4:	69625c73 	stmdbvs	r2!, {r0, r1, r4, r5, r6, sl, fp, ip, lr}^
    15f8:	2e2e2f6e 	cdpcs	15, 2, cr2, cr14, cr14, {3}
    15fc:	62696c2f 	rsbvs	r6, r9, #12032	@ 0x2f00
    1600:	6363672f 	cmnvs	r3, #12320768	@ 0xbc0000
    1604:	6d72612f 	ldfvse	f6, [r2, #-188]!	@ 0xffffff44
    1608:	6e6f6e2d 	cdpvs	14, 6, cr6, cr15, cr13, {1}
    160c:	61652d65 	cmnvs	r5, r5, ror #26
    1610:	312f6962 			@ <UNDEFINED> instruction: 0x312f6962
    1614:	2e332e32 	mrccs	14, 1, r2, cr3, cr2, {1}
    1618:	6e692f31 	mcrvs	15, 3, r2, cr9, cr1, {1}
    161c:	64756c63 	ldrbtvs	r6, [r5], #-3171	@ 0xfffff39d
    1620:	3a430065 	bcc	10c17bc <_Min_Stack_Size+0x10c13bc>
    1624:	5c54535c 	mrrcpl	3, 5, r5, r4, cr12
    1628:	334d5453 	movtcc	r5, #54355	@ 0xd453
    162c:	62754332 	rsbsvs	r4, r5, #-939524096	@ 0xc8000000
    1630:	45444965 	strbmi	r4, [r4, #-2405]	@ 0xfffff69b
    1634:	312e315f 			@ <UNDEFINED> instruction: 0x312e315f
    1638:	5c322e33 	ldcpl	14, cr2, [r2], #-204	@ 0xffffff34
    163c:	334d5453 	movtcc	r5, #54355	@ 0xd453
    1640:	62754332 	rsbsvs	r4, r5, #-939524096	@ 0xc8000000
    1644:	45444965 	strbmi	r4, [r4, #-2405]	@ 0xfffff69b
    1648:	756c705c 	strbvc	r7, [ip, #-92]!	@ 0xffffffa4
    164c:	736e6967 	cmnvc	lr, #1687552	@ 0x19c000
    1650:	6d6f635c 	stclvs	3, cr6, [pc, #-368]!	@ 14e8 <_Min_Stack_Size+0x10e8>
    1654:	2e74732e 	cdpcs	3, 7, cr7, cr4, cr14, {1}
    1658:	336d7473 	cmncc	sp, #1929379840	@ 0x73000000
    165c:	62756332 	rsbsvs	r6, r5, #-939524096	@ 0xc8000000
    1660:	64692e65 	strbtvs	r2, [r9], #-3685	@ 0xfffff19b
    1664:	636d2e65 	cmnvs	sp, #1616	@ 0x650
    1668:	78652e75 	stmdavc	r5!, {r0, r2, r4, r5, r6, r9, sl, fp, sp}^
    166c:	6e726574 	mrcvs	5, 3, r6, cr2, cr4, {3}
    1670:	6f746c61 	svcvs	0x00746c61
    1674:	2e736c6f 	cdpcs	12, 7, cr6, cr3, cr15, {3}
    1678:	2d756e67 	ldclcs	14, cr6, [r5, #-412]!	@ 0xfffffe64
    167c:	6c6f6f74 	stclvs	15, cr6, [pc], #-464	@ 14b4 <_Min_Stack_Size+0x10b4>
    1680:	6f662d73 	svcvs	0x00662d73
    1684:	74732d72 	ldrbtvc	r2, [r3], #-3442	@ 0xfffff28e
    1688:	2e32336d 	cdpcs	3, 3, cr3, cr2, cr13, {3}
    168c:	332e3231 			@ <UNDEFINED> instruction: 0x332e3231
    1690:	6c65722e 	sfmvs	f7, 2, [r5], #-184	@ 0xffffff48
    1694:	69772e31 	ldmdbvs	r7!, {r0, r4, r5, r9, sl, fp, sp}^
    1698:	5f32336e 	svcpl	0x0032336e
    169c:	2e302e31 	mrccs	14, 1, r2, cr0, cr1, {1}
    16a0:	2e303031 	mrccs	0, 1, r3, cr0, cr1, {1}
    16a4:	34323032 	ldrtcc	r3, [r2], #-50	@ 0xffffffce
    16a8:	31313330 	teqcc	r1, r0, lsr r3
    16ac:	36353231 			@ <UNDEFINED> instruction: 0x36353231
    16b0:	6f6f745c 	svcvs	0x006f745c
    16b4:	625c736c 	subsvs	r7, ip, #108, 6	@ 0xb0000001
    16b8:	2e2f6e69 	cdpcs	14, 2, cr6, cr15, cr9, {3}
    16bc:	696c2f2e 	stmdbvs	ip!, {r1, r2, r3, r5, r8, r9, sl, fp, sp}^
    16c0:	63672f62 	cmnvs	r7, #392	@ 0x188
    16c4:	72612f63 	rsbvc	r2, r1, #396	@ 0x18c
    16c8:	6f6e2d6d 	svcvs	0x006e2d6d
    16cc:	652d656e 	strvs	r6, [sp, #-1390]!	@ 0xfffffa92
    16d0:	2f696261 	svccs	0x00696261
    16d4:	332e3231 			@ <UNDEFINED> instruction: 0x332e3231
    16d8:	2e2f312e 	sufcsep	f3, f7, #0.5
    16dc:	2e2e2f2e 	cdpcs	15, 2, cr2, cr14, cr14, {1}
    16e0:	2f2e2e2f 	svccs	0x002e2e2f
    16e4:	612f2e2e 			@ <UNDEFINED> instruction: 0x612f2e2e
    16e8:	6e2d6d72 	mcrvs	13, 1, r6, cr13, cr2, {3}
    16ec:	2d656e6f 	stclcs	14, cr6, [r5, #-444]!	@ 0xfffffe44
    16f0:	69626165 	stmdbvs	r2!, {r0, r2, r5, r6, r8, sp, lr}^
    16f4:	636e692f 	cmnvs	lr, #770048	@ 0xbc000
    16f8:	6564756c 	strbvs	r7, [r4, #-1388]!	@ 0xfffffa94
    16fc:	564e0000 	strbpl	r0, [lr], -r0
    1700:	632e4349 			@ <UNDEFINED> instruction: 0x632e4349
    1704:	00000100 	andeq	r0, r0, r0, lsl #2
    1708:	6665645f 			@ <UNDEFINED> instruction: 0x6665645f
    170c:	746c7561 	strbtvc	r7, [ip], #-1377	@ 0xfffffa9f
    1710:	7079745f 	rsbsvc	r7, r9, pc, asr r4
    1714:	682e7365 	stmdavs	lr!, {r0, r2, r5, r6, r8, r9, ip, sp, lr}
    1718:	00000200 	andeq	r0, r0, r0, lsl #4
    171c:	6474735f 	ldrbtvs	r7, [r4], #-863	@ 0xfffffca1
    1720:	2e746e69 	cdpcs	14, 7, cr6, cr4, cr9, {3}
    1724:	00030068 	andeq	r0, r3, r8, rrx
    1728:	6d6f6300 	stclvs	3, cr6, [pc, #-0]	@ 1730 <_Min_Stack_Size+0x1330>
    172c:	2e6e6f6d 	cdpcs	15, 6, cr6, cr14, cr13, {3}
    1730:	00040068 	andeq	r0, r4, r8, rrx
    1734:	6d747300 	ldclvs	3, cr7, [r4, #-0]
    1738:	31663233 	cmncc	r6, r3, lsr r2
    173c:	36783330 			@ <UNDEFINED> instruction: 0x36783330
    1740:	0400682e 	streq	r6, [r0], #-2094	@ 0xfffff7d2
    1744:	564e0000 	strbpl	r0, [lr], -r0
    1748:	682e4349 	stmdavs	lr!, {r0, r3, r6, r8, r9, lr}
    174c:	00000500 	andeq	r0, r0, r0, lsl #10
    1750:	69647473 	stmdbvs	r4!, {r0, r1, r4, r5, r6, sl, ip, sp, lr}^
    1754:	682e746e 	stmdavs	lr!, {r1, r2, r3, r5, r6, sl, ip, sp, lr}
    1758:	00000600 	andeq	r0, r0, r0, lsl #12
    175c:	69647473 	stmdbvs	r4!, {r0, r1, r4, r5, r6, sl, ip, sp, lr}^
    1760:	682e746e 	stmdavs	lr!, {r1, r2, r3, r5, r6, sl, ip, sp, lr}
    1764:	00000700 	andeq	r0, r0, r0, lsl #14
    1768:	74616566 	strbtvc	r6, [r1], #-1382	@ 0xfffffa9a
    176c:	73657275 	cmnvc	r5, #1342177287	@ 0x50000007
    1770:	0300682e 	movweq	r6, #2094	@ 0x82e
    1774:	6e5f0000 	cdpvs	0, 5, cr0, cr15, cr0, {0}
    1778:	696c7765 	stmdbvs	ip!, {r0, r2, r5, r6, r8, r9, sl, ip, sp, lr}^
    177c:	65765f62 	ldrbvs	r5, [r6, #-3938]!	@ 0xfffff09e
    1780:	6f697372 	svcvs	0x00697372
    1784:	00682e6e 	rsbeq	r2, r8, lr, ror #28
    1788:	5f000007 	svcpl	0x00000007
    178c:	73746e69 	cmnvc	r4, #1680	@ 0x690
    1790:	682e7075 	stmdavs	lr!, {r0, r2, r4, r5, r6, ip, sp, lr}
    1794:	00000300 	andeq	r0, r0, r0, lsl #6
    1798:	00010500 	andeq	r0, r1, r0, lsl #10
    179c:	093c0205 	ldmdbeq	ip!, {r0, r2, r9}
    17a0:	12030800 	andne	r0, r3, #0, 16
    17a4:	59180501 	ldmdbpl	r8, {r0, r8, sl}
    17a8:	052f0405 	streq	r0, [pc, #-1029]!	@ 13ab <_Min_Stack_Size+0xfab>
    17ac:	07053e2b 	streq	r3, [r5, -fp, lsr #28]
    17b0:	200f053c 	andcs	r0, pc, ip, lsr r5	@ <UNPREDICTABLE>
    17b4:	054a2805 	strbeq	r2, [sl, #-2053]	@ 0xfffff7fb
    17b8:	07053c21 	streq	r3, [r5, -r1, lsr #24]
    17bc:	0905402f 	stmdbeq	r5, {r0, r1, r2, r3, r5, lr}
    17c0:	21010530 	tstcs	r1, r0, lsr r5
    17c4:	01000702 	tsteq	r0, r2, lsl #14
    17c8:	00010501 	andeq	r0, r1, r1, lsl #10
    17cc:	09840205 	stmibeq	r4, {r0, r2, r9}
    17d0:	27030800 	strcs	r0, [r3, -r0, lsl #16]
    17d4:	59180501 	ldmdbpl	r8, {r0, r8, sl}
    17d8:	052f0405 	streq	r0, [pc, #-1029]!	@ 13db <_Min_Stack_Size+0xfdb>
    17dc:	07053e2b 	streq	r3, [r5, -fp, lsr #28]
    17e0:	200f053c 	andcs	r0, pc, ip, lsr r5	@ <UNPREDICTABLE>
    17e4:	054a2805 	strbeq	r2, [sl, #-2053]	@ 0xfffff7fb
    17e8:	07052e21 	streq	r2, [r5, -r1, lsr #28]
    17ec:	0905404b 	stmdbeq	r5, {r0, r1, r3, r6, lr}
    17f0:	21010530 	tstcs	r1, r0, lsr r5
    17f4:	01000802 	tsteq	r0, r2, lsl #16
    17f8:	00010501 	andeq	r0, r1, r1, lsl #10
    17fc:	00000205 	andeq	r0, r0, r5, lsl #4
    1800:	3d030000 	stccc	0, cr0, [r3, #-0]
    1804:	67180501 	ldrvs	r0, [r8, -r1, lsl #10]
    1808:	052f0405 	streq	r0, [pc, #-1029]!	@ 140b <_Min_Stack_Size+0x100b>
    180c:	1c053e05 	stcne	14, cr3, [r5], {5}
    1810:	2024053e 	eorcs	r0, r4, lr, lsr r5
    1814:	053c2305 	ldreq	r2, [ip, #-773]!	@ 0xfffffcfb
    1818:	36053c39 			@ <UNDEFINED> instruction: 0x36053c39
    181c:	2e4b053c 	mcrcs	5, 2, r0, cr11, cr12, {1}
    1820:	054a1305 	strbeq	r1, [sl, #-773]	@ 0xfffffcfb
    1824:	05402f08 	strbeq	r2, [r0, #-3848]	@ 0xfffff0f8
    1828:	09054107 	stmdbeq	r5, {r0, r1, r2, r8, lr}
    182c:	21010530 	tstcs	r1, r0, lsr r5
    1830:	01000702 	tsteq	r0, r2, lsl #14
    1834:	00010501 	andeq	r0, r1, r1, lsl #10
    1838:	00000205 	andeq	r0, r0, r5, lsl #4
    183c:	d9030000 	stmdble	r3, {}	@ <UNPREDICTABLE>
    1840:	18050100 	stmdane	r5, {r8}
    1844:	2f040559 	svccs	0x00040559
    1848:	053e2b05 	ldreq	r2, [lr, #-2821]!	@ 0xfffff4fb
    184c:	0f053c07 	svceq	0x00053c07
    1850:	4a280520 	bmi	a02cd8 <_Min_Stack_Size+0xa028d8>
    1854:	052e2105 	streq	r2, [lr, #-261]!	@ 0xfffffefb
    1858:	05404b07 	strbeq	r4, [r0, #-2823]	@ 0xfffff4f9
    185c:	01053109 	tsteq	r5, r9, lsl #2
    1860:	00080221 	andeq	r0, r8, r1, lsr #4
    1864:	01050101 	tsteq	r5, r1, lsl #2
    1868:	00020500 	andeq	r0, r2, r0, lsl #10
    186c:	03000000 	movweq	r0, #0
    1870:	050100ef 	streq	r0, [r1, #-239]	@ 0xffffff11
    1874:	04055918 	streq	r5, [r5], #-2328	@ 0xfffff6e8
    1878:	3e2b052f 	cfsh64cc	mvdx0, mvdx11, #31
    187c:	053c0705 	ldreq	r0, [ip, #-1797]!	@ 0xfffff8fb
    1880:	2805200f 	stmdacs	r5, {r0, r1, r2, r3, sp}
    1884:	2e21054a 	cfsh64cs	mvdx0, mvdx1, #42
    1888:	404b0705 	submi	r0, fp, r5, lsl #14
    188c:	05310905 	ldreq	r0, [r1, #-2309]!	@ 0xfffff6fb
    1890:	08022101 	stmdaeq	r2, {r0, r8, sp}
    1894:	05010100 	streq	r0, [r1, #-256]	@ 0xffffff00
    1898:	02050001 	andeq	r0, r5, #1
    189c:	00000000 	andeq	r0, r0, r0
    18a0:	01018603 	tsteq	r1, r3, lsl #12
    18a4:	05671805 	strbeq	r1, [r7, #-2053]!	@ 0xfffff7fb
    18a8:	05052f04 	streq	r2, [r5, #-3844]	@ 0xfffff0fc
    18ac:	3e1c053e 	mrccc	5, 0, r0, cr12, cr14, {1}
    18b0:	05202405 	streq	r2, [r0, #-1029]!	@ 0xfffffbfb
    18b4:	39053c23 	stmdbcc	r5, {r0, r1, r5, sl, fp, ip, sp}
    18b8:	3c36053c 	cfldr32cc	mvfx0, [r6], #-240	@ 0xffffff10
    18bc:	052e4b05 	streq	r4, [lr, #-2821]!	@ 0xfffff4fb
    18c0:	08054a13 	stmdaeq	r5, {r0, r1, r4, r9, fp, lr}
    18c4:	0705402f 	streq	r4, [r5, -pc, lsr #32]
    18c8:	30090541 	andcc	r0, r9, r1, asr #10
    18cc:	02210105 	eoreq	r0, r1, #1073741825	@ 0x40000001
    18d0:	01010007 	tsteq	r1, r7
    18d4:	05000105 	streq	r0, [r0, #-261]	@ 0xfffffefb
    18d8:	00000002 	andeq	r0, r0, r2
    18dc:	01a50300 			@ <UNDEFINED> instruction: 0x01a50300
    18e0:	e5180501 	ldr	r0, [r8, #-1281]	@ 0xfffffaff
    18e4:	05300405 	ldreq	r0, [r0, #-1029]!	@ 0xfffffbfb
    18e8:	0a053e05 	beq	151104 <_Min_Stack_Size+0x150d04>
    18ec:	2f04053e 	svccs	0x0004053e
    18f0:	14082905 	strne	r2, [r8], #-2309	@ 0xfffff6fb
    18f4:	052e3b05 	streq	r3, [lr, #-2821]!	@ 0xfffff4fb
    18f8:	3d052129 	stfccs	f2, [r5, #-164]	@ 0xffffff5c
    18fc:	213b052e 	teqcs	fp, lr, lsr #10
    1900:	052e4005 	streq	r4, [lr, #-5]!
    1904:	52055829 	andpl	r5, r5, #2686976	@ 0x290000
    1908:	213b0520 	teqcs	fp, r0, lsr #10
    190c:	052e4005 	streq	r4, [lr, #-5]!
    1910:	52055829 	andpl	r5, r5, #2686976	@ 0x290000
    1914:	213b0520 	teqcs	fp, r0, lsr #10
    1918:	052e4005 	streq	r4, [lr, #-5]!
    191c:	52055829 	andpl	r5, r5, #2686976	@ 0x290000
    1920:	23080520 	movwcs	r0, #34080	@ 0x8520
    1924:	05200e05 	streq	r0, [r0, #-3589]!	@ 0xfffff1fb
    1928:	16052023 	strne	r2, [r5], -r3, lsr #32
    192c:	3d08053c 	cfstr32cc	mvfx0, [r8, #-240]	@ 0xffffff10
    1930:	41070540 	tstmi	r7, r0, asr #10
    1934:	05300905 	ldreq	r0, [r0, #-2309]!	@ 0xfffff6fb
    1938:	08022101 	stmdaeq	r2, {r0, r8, sp}
    193c:	05010100 	streq	r0, [r1, #-256]	@ 0xffffff00
    1940:	02050001 	andeq	r0, r5, #1
    1944:	00000000 	andeq	r0, r0, r0
    1948:	0101cc03 	tsteq	r1, r3, lsl #24
    194c:	05591805 	ldrbeq	r1, [r9, #-2053]	@ 0xfffff7fb
    1950:	06052f04 	streq	r2, [r5], -r4, lsl #30
    1954:	200e053e 	andcs	r0, lr, lr, lsr r5
    1958:	052f2f05 	streq	r2, [pc, #-3845]!	@ a5b <_Min_Stack_Size+0x65b>
    195c:	1b052e06 	blne	14d17c <_Min_Stack_Size+0x14cd7c>
    1960:	4a0e0520 	bmi	382de8 <_Min_Stack_Size+0x3829e8>
    1964:	40210705 	eormi	r0, r1, r5, lsl #14
    1968:	05310905 	ldreq	r0, [r1, #-2309]!	@ 0xfffff6fb
    196c:	09022101 	stmdbeq	r2, {r0, r8, sp}
    1970:	95010100 	strls	r0, [r1, #-256]	@ 0xffffff00
    1974:	0300000d 	movweq	r0, #13
    1978:	0004ea00 	andeq	lr, r4, r0, lsl #20
    197c:	fb010200 	blx	42186 <_Min_Stack_Size+0x41d86>
    1980:	01000d0e 	tsteq	r0, lr, lsl #26
    1984:	00010101 	andeq	r0, r1, r1, lsl #2
    1988:	00010000 	andeq	r0, r1, r0
    198c:	2e2e0100 	sufcse	f0, f6, f0
    1990:	6372532f 	cmnvs	r2, #-1140850688	@ 0xbc000000
    1994:	41434d2f 	cmpmi	r3, pc, lsr #26
    1998:	3a43004c 	bcc	10c1ad0 <_Min_Stack_Size+0x10c16d0>
    199c:	5c54535c 	mrrcpl	3, 5, r5, r4, cr12
    19a0:	334d5453 	movtcc	r5, #54355	@ 0xd453
    19a4:	62754332 	rsbsvs	r4, r5, #-939524096	@ 0xc8000000
    19a8:	45444965 	strbmi	r4, [r4, #-2405]	@ 0xfffff69b
    19ac:	312e315f 			@ <UNDEFINED> instruction: 0x312e315f
    19b0:	5c322e33 	ldcpl	14, cr2, [r2], #-204	@ 0xffffff34
    19b4:	334d5453 	movtcc	r5, #54355	@ 0xd453
    19b8:	62754332 	rsbsvs	r4, r5, #-939524096	@ 0xc8000000
    19bc:	45444965 	strbmi	r4, [r4, #-2405]	@ 0xfffff69b
    19c0:	756c705c 	strbvc	r7, [ip, #-92]!	@ 0xffffffa4
    19c4:	736e6967 	cmnvc	lr, #1687552	@ 0x19c000
    19c8:	6d6f635c 	stclvs	3, cr6, [pc, #-368]!	@ 1860 <_Min_Stack_Size+0x1460>
    19cc:	2e74732e 	cdpcs	3, 7, cr7, cr4, cr14, {1}
    19d0:	336d7473 	cmncc	sp, #1929379840	@ 0x73000000
    19d4:	62756332 	rsbsvs	r6, r5, #-939524096	@ 0xc8000000
    19d8:	64692e65 	strbtvs	r2, [r9], #-3685	@ 0xfffff19b
    19dc:	636d2e65 	cmnvs	sp, #1616	@ 0x650
    19e0:	78652e75 	stmdavc	r5!, {r0, r2, r4, r5, r6, r9, sl, fp, sp}^
    19e4:	6e726574 	mrcvs	5, 3, r6, cr2, cr4, {3}
    19e8:	6f746c61 	svcvs	0x00746c61
    19ec:	2e736c6f 	cdpcs	12, 7, cr6, cr3, cr15, {3}
    19f0:	2d756e67 	ldclcs	14, cr6, [r5, #-412]!	@ 0xfffffe64
    19f4:	6c6f6f74 	stclvs	15, cr6, [pc], #-464	@ 182c <_Min_Stack_Size+0x142c>
    19f8:	6f662d73 	svcvs	0x00662d73
    19fc:	74732d72 	ldrbtvc	r2, [r3], #-3442	@ 0xfffff28e
    1a00:	2e32336d 	cdpcs	3, 3, cr3, cr2, cr13, {3}
    1a04:	332e3231 			@ <UNDEFINED> instruction: 0x332e3231
    1a08:	6c65722e 	sfmvs	f7, 2, [r5], #-184	@ 0xffffff48
    1a0c:	69772e31 	ldmdbvs	r7!, {r0, r4, r5, r9, sl, fp, sp}^
    1a10:	5f32336e 	svcpl	0x0032336e
    1a14:	2e302e31 	mrccs	14, 1, r2, cr0, cr1, {1}
    1a18:	2e303031 	mrccs	0, 1, r3, cr0, cr1, {1}
    1a1c:	34323032 	ldrtcc	r3, [r2], #-50	@ 0xffffffce
    1a20:	31313330 	teqcc	r1, r0, lsr r3
    1a24:	36353231 			@ <UNDEFINED> instruction: 0x36353231
    1a28:	6f6f745c 	svcvs	0x006f745c
    1a2c:	625c736c 	subsvs	r7, ip, #108, 6	@ 0xb0000001
    1a30:	2e2f6e69 	cdpcs	14, 2, cr6, cr15, cr9, {3}
    1a34:	696c2f2e 	stmdbvs	ip!, {r1, r2, r3, r5, r8, r9, sl, fp, sp}^
    1a38:	63672f62 	cmnvs	r7, #392	@ 0x188
    1a3c:	72612f63 	rsbvc	r2, r1, #396	@ 0x18c
    1a40:	6f6e2d6d 	svcvs	0x006e2d6d
    1a44:	652d656e 	strvs	r6, [sp, #-1390]!	@ 0xfffffa92
    1a48:	2f696261 	svccs	0x00696261
    1a4c:	332e3231 			@ <UNDEFINED> instruction: 0x332e3231
    1a50:	2e2f312e 	sufcsep	f3, f7, #0.5
    1a54:	2e2e2f2e 	cdpcs	15, 2, cr2, cr14, cr14, {1}
    1a58:	2f2e2e2f 	svccs	0x002e2e2f
    1a5c:	612f2e2e 			@ <UNDEFINED> instruction: 0x612f2e2e
    1a60:	6e2d6d72 	mcrvs	13, 1, r6, cr13, cr2, {3}
    1a64:	2d656e6f 	stclcs	14, cr6, [r5, #-444]!	@ 0xfffffe44
    1a68:	69626165 	stmdbvs	r2!, {r0, r2, r5, r6, r8, sp, lr}^
    1a6c:	636e692f 	cmnvs	lr, #770048	@ 0xbc000
    1a70:	6564756c 	strbvs	r7, [r4, #-1388]!	@ 0xfffffa94
    1a74:	63616d2f 	cmnvs	r1, #3008	@ 0xbc0
    1a78:	656e6968 	strbvs	r6, [lr, #-2408]!	@ 0xfffff698
    1a7c:	5c3a4300 	ldcpl	3, cr4, [sl], #-0
    1a80:	535c5453 	cmppl	ip, #1392508928	@ 0x53000000
    1a84:	32334d54 	eorscc	r4, r3, #84, 26	@ 0x1500
    1a88:	65627543 	strbvs	r7, [r2, #-1347]!	@ 0xfffffabd
    1a8c:	5f454449 	svcpl	0x00454449
    1a90:	33312e31 	teqcc	r1, #784	@ 0x310
    1a94:	535c322e 	cmppl	ip, #-536870910	@ 0xe0000002
    1a98:	32334d54 	eorscc	r4, r3, #84, 26	@ 0x1500
    1a9c:	65627543 	strbvs	r7, [r2, #-1347]!	@ 0xfffffabd
    1aa0:	5c454449 	cfstrdpl	mvd4, [r5], {73}	@ 0x49
    1aa4:	67756c70 			@ <UNDEFINED> instruction: 0x67756c70
    1aa8:	5c736e69 	ldclpl	14, cr6, [r3], #-420	@ 0xfffffe5c
    1aac:	2e6d6f63 	cdpcs	15, 6, cr6, cr13, cr3, {3}
    1ab0:	732e7473 			@ <UNDEFINED> instruction: 0x732e7473
    1ab4:	32336d74 	eorscc	r6, r3, #116, 26	@ 0x1d00
    1ab8:	65627563 	strbvs	r7, [r2, #-1379]!	@ 0xfffffa9d
    1abc:	6564692e 	strbvs	r6, [r4, #-2350]!	@ 0xfffff6d2
    1ac0:	75636d2e 	strbvc	r6, [r3, #-3374]!	@ 0xfffff2d2
    1ac4:	7478652e 	ldrbtvc	r6, [r8], #-1326	@ 0xfffffad2
    1ac8:	616e7265 	cmnvs	lr, r5, ror #4
    1acc:	6f6f746c 	svcvs	0x006f746c
    1ad0:	672e736c 	strvs	r7, [lr, -ip, ror #6]!
    1ad4:	742d756e 	strtvc	r7, [sp], #-1390	@ 0xfffffa92
    1ad8:	736c6f6f 	cmnvc	ip, #444	@ 0x1bc
    1adc:	726f662d 	rsbvc	r6, pc, #47185920	@ 0x2d00000
    1ae0:	6d74732d 	ldclvs	3, cr7, [r4, #-180]!	@ 0xffffff4c
    1ae4:	312e3233 			@ <UNDEFINED> instruction: 0x312e3233
    1ae8:	2e332e32 	mrccs	14, 1, r2, cr3, cr2, {1}
    1aec:	316c6572 	smccc	50770	@ 0xc652
    1af0:	6e69772e 	cdpvs	7, 6, cr7, cr9, cr14, {1}
    1af4:	315f3233 	cmpcc	pc, r3, lsr r2	@ <UNPREDICTABLE>
    1af8:	312e302e 			@ <UNDEFINED> instruction: 0x312e302e
    1afc:	322e3030 	eorcc	r3, lr, #48	@ 0x30
    1b00:	30343230 	eorscc	r3, r4, r0, lsr r2
    1b04:	31313133 	teqcc	r1, r3, lsr r1
    1b08:	5c363532 	cfldr32pl	mvfx3, [r6], #-200	@ 0xffffff38
    1b0c:	6c6f6f74 	stclvs	15, cr6, [pc], #-464	@ 1944 <_Min_Stack_Size+0x1544>
    1b10:	69625c73 	stmdbvs	r2!, {r0, r1, r4, r5, r6, sl, fp, ip, lr}^
    1b14:	2e2e2f6e 	cdpcs	15, 2, cr2, cr14, cr14, {3}
    1b18:	62696c2f 	rsbvs	r6, r9, #12032	@ 0x2f00
    1b1c:	6363672f 	cmnvs	r3, #12320768	@ 0xbc0000
    1b20:	6d72612f 	ldfvse	f6, [r2, #-188]!	@ 0xffffff44
    1b24:	6e6f6e2d 	cdpvs	14, 6, cr6, cr15, cr13, {1}
    1b28:	61652d65 	cmnvs	r5, r5, ror #26
    1b2c:	312f6962 			@ <UNDEFINED> instruction: 0x312f6962
    1b30:	2e332e32 	mrccs	14, 1, r2, cr3, cr2, {1}
    1b34:	2e2e2f31 	mcrcs	15, 1, r2, cr14, cr1, {1}
    1b38:	2f2e2e2f 	svccs	0x002e2e2f
    1b3c:	2e2f2e2e 	cdpcs	14, 2, cr2, cr15, cr14, {1}
    1b40:	72612f2e 	rsbvc	r2, r1, #46, 30	@ 0xb8
    1b44:	6f6e2d6d 	svcvs	0x006e2d6d
    1b48:	652d656e 	strvs	r6, [sp, #-1390]!	@ 0xfffffa92
    1b4c:	2f696261 	svccs	0x00696261
    1b50:	6c636e69 	stclvs	14, cr6, [r3], #-420	@ 0xfffffe5c
    1b54:	2f656475 	svccs	0x00656475
    1b58:	00737973 	rsbseq	r7, r3, r3, ror r9
    1b5c:	452f3a44 	strmi	r3, [pc, #-2628]!	@ 1120 <_Min_Stack_Size+0xd20>
    1b60:	6465626d 	strbtvs	r6, [r5], #-621	@ 0xfffffd93
    1b64:	20646564 	rsbcs	r6, r4, r4, ror #10
    1b68:	74737953 	ldrbtvc	r7, [r3], #-2387	@ 0xfffff6ad
    1b6c:	44206d65 	strtmi	r6, [r0], #-3429	@ 0xfffff29b
    1b70:	6f6c7069 	svcvs	0x006c7069
    1b74:	4d2f616d 	stfmis	f6, [pc, #-436]!	@ 19c8 <_Min_Stack_Size+0x15c8>
    1b78:	72747361 	rsbsvc	r7, r4, #-2080374783	@ 0x84000001
    1b7c:	20676e69 	rsbcs	r6, r7, r9, ror #28
    1b80:	65626d45 	strbvs	r6, [r2, #-3397]!	@ 0xfffff2bb
    1b84:	64656464 	strbtvs	r6, [r5], #-1124	@ 0xfffffb9c
    1b88:	73795320 	cmnvc	r9, #32, 6	@ 0x80000000
    1b8c:	206d6574 	rsbcs	r6, sp, r4, ror r5
    1b90:	68746957 	ldmdavs	r4!, {r0, r1, r2, r4, r6, r8, fp, sp, lr}^
    1b94:	532e4b20 			@ <UNDEFINED> instruction: 0x532e4b20
    1b98:	5f31302f 	svcpl	0x0031302f
    1b9c:	436d7453 	cmnmi	sp, #1392508928	@ 0x53000000
    1ba0:	5f656275 	svcpl	0x00656275
    1ba4:	6b726f57 	blvs	1c9d908 <_Min_Stack_Size+0x1c9d508>
    1ba8:	63617073 	cmnvs	r1, #115	@ 0x73
    1bac:	39302f65 	ldmdbcc	r0!, {r0, r2, r5, r6, r8, r9, sl, fp, sp}
    1bb0:	3431555f 	ldrtcc	r5, [r1], #-1375	@ 0xfffffaa1
    1bb4:	3141334c 	cmpcc	r1, ip, asr #6
    1bb8:	6372532f 	cmnvs	r2, #-1140850688	@ 0xbc000000
    1bbc:	4954552f 	ldmdbmi	r4, {r0, r1, r2, r3, r5, r8, sl, ip, lr}^
    1bc0:	692f534c 	stmdbvs	pc!, {r2, r3, r6, r8, r9, ip, lr}	@ <UNPREDICTABLE>
    1bc4:	4400636e 	strmi	r6, [r0], #-878	@ 0xfffffc92
    1bc8:	6d452f3a 	stclvs	15, cr2, [r5, #-232]	@ 0xffffff18
    1bcc:	64646562 	strbtvs	r6, [r4], #-1378	@ 0xfffffa9e
    1bd0:	53206465 			@ <UNDEFINED> instruction: 0x53206465
    1bd4:	65747379 	ldrbvs	r7, [r4, #-889]!	@ 0xfffffc87
    1bd8:	6944206d 	stmdbvs	r4, {r0, r2, r3, r5, r6, sp}^
    1bdc:	6d6f6c70 	stclvs	12, cr6, [pc, #-448]!	@ 1a24 <_Min_Stack_Size+0x1624>
    1be0:	614d2f61 	cmpvs	sp, r1, ror #30
    1be4:	69727473 	ldmdbvs	r2!, {r0, r1, r4, r5, r6, sl, ip, sp, lr}^
    1be8:	4520676e 	strmi	r6, [r0, #-1902]!	@ 0xfffff892
    1bec:	6465626d 	strbtvs	r6, [r5], #-621	@ 0xfffffd93
    1bf0:	20646564 	rsbcs	r6, r4, r4, ror #10
    1bf4:	74737953 	ldrbtvc	r7, [r3], #-2387	@ 0xfffff6ad
    1bf8:	57206d65 	strpl	r6, [r0, -r5, ror #26]!
    1bfc:	20687469 	rsbcs	r7, r8, r9, ror #8
    1c00:	2f532e4b 	svccs	0x00532e4b
    1c04:	535f3130 	cmppl	pc, #48, 2
    1c08:	75436d74 	strbvc	r6, [r3, #-3444]	@ 0xfffff28c
    1c0c:	575f6562 	ldrbpl	r6, [pc, -r2, ror #10]
    1c10:	736b726f 	cmnvc	fp, #-268435450	@ 0xf0000006
    1c14:	65636170 	strbvs	r6, [r3, #-368]!	@ 0xfffffe90
    1c18:	5f39302f 	svcpl	0x0039302f
    1c1c:	4c343155 	ldfmis	f3, [r4], #-340	@ 0xfffffeac
    1c20:	2f314133 	svccs	0x00314133
    1c24:	2f637253 	svccs	0x00637253
    1c28:	4c41434d 	mcrrmi	3, 4, r4, r1, cr13
    1c2c:	636e692f 	cmnvs	lr, #770048	@ 0xbc000
    1c30:	5c3a4300 	ldcpl	3, cr4, [sl], #-0
    1c34:	535c5453 	cmppl	ip, #1392508928	@ 0x53000000
    1c38:	32334d54 	eorscc	r4, r3, #84, 26	@ 0x1500
    1c3c:	65627543 	strbvs	r7, [r2, #-1347]!	@ 0xfffffabd
    1c40:	5f454449 	svcpl	0x00454449
    1c44:	33312e31 	teqcc	r1, #784	@ 0x310
    1c48:	535c322e 	cmppl	ip, #-536870910	@ 0xe0000002
    1c4c:	32334d54 	eorscc	r4, r3, #84, 26	@ 0x1500
    1c50:	65627543 	strbvs	r7, [r2, #-1347]!	@ 0xfffffabd
    1c54:	5c454449 	cfstrdpl	mvd4, [r5], {73}	@ 0x49
    1c58:	67756c70 			@ <UNDEFINED> instruction: 0x67756c70
    1c5c:	5c736e69 	ldclpl	14, cr6, [r3], #-420	@ 0xfffffe5c
    1c60:	2e6d6f63 	cdpcs	15, 6, cr6, cr13, cr3, {3}
    1c64:	732e7473 			@ <UNDEFINED> instruction: 0x732e7473
    1c68:	32336d74 	eorscc	r6, r3, #116, 26	@ 0x1d00
    1c6c:	65627563 	strbvs	r7, [r2, #-1379]!	@ 0xfffffa9d
    1c70:	6564692e 	strbvs	r6, [r4, #-2350]!	@ 0xfffff6d2
    1c74:	75636d2e 	strbvc	r6, [r3, #-3374]!	@ 0xfffff2d2
    1c78:	7478652e 	ldrbtvc	r6, [r8], #-1326	@ 0xfffffad2
    1c7c:	616e7265 	cmnvs	lr, r5, ror #4
    1c80:	6f6f746c 	svcvs	0x006f746c
    1c84:	672e736c 	strvs	r7, [lr, -ip, ror #6]!
    1c88:	742d756e 	strtvc	r7, [sp], #-1390	@ 0xfffffa92
    1c8c:	736c6f6f 	cmnvc	ip, #444	@ 0x1bc
    1c90:	726f662d 	rsbvc	r6, pc, #47185920	@ 0x2d00000
    1c94:	6d74732d 	ldclvs	3, cr7, [r4, #-180]!	@ 0xffffff4c
    1c98:	312e3233 			@ <UNDEFINED> instruction: 0x312e3233
    1c9c:	2e332e32 	mrccs	14, 1, r2, cr3, cr2, {1}
    1ca0:	316c6572 	smccc	50770	@ 0xc652
    1ca4:	6e69772e 	cdpvs	7, 6, cr7, cr9, cr14, {1}
    1ca8:	315f3233 	cmpcc	pc, r3, lsr r2	@ <UNPREDICTABLE>
    1cac:	312e302e 			@ <UNDEFINED> instruction: 0x312e302e
    1cb0:	322e3030 	eorcc	r3, lr, #48	@ 0x30
    1cb4:	30343230 	eorscc	r3, r4, r0, lsr r2
    1cb8:	31313133 	teqcc	r1, r3, lsr r1
    1cbc:	5c363532 	cfldr32pl	mvfx3, [r6], #-200	@ 0xffffff38
    1cc0:	6c6f6f74 	stclvs	15, cr6, [pc], #-464	@ 1af8 <_Min_Stack_Size+0x16f8>
    1cc4:	69625c73 	stmdbvs	r2!, {r0, r1, r4, r5, r6, sl, fp, ip, lr}^
    1cc8:	2e2e2f6e 	cdpcs	15, 2, cr2, cr14, cr14, {3}
    1ccc:	62696c2f 	rsbvs	r6, r9, #12032	@ 0x2f00
    1cd0:	6363672f 	cmnvs	r3, #12320768	@ 0xbc0000
    1cd4:	6d72612f 	ldfvse	f6, [r2, #-188]!	@ 0xffffff44
    1cd8:	6e6f6e2d 	cdpvs	14, 6, cr6, cr15, cr13, {1}
    1cdc:	61652d65 	cmnvs	r5, r5, ror #26
    1ce0:	312f6962 			@ <UNDEFINED> instruction: 0x312f6962
    1ce4:	2e332e32 	mrccs	14, 1, r2, cr3, cr2, {1}
    1ce8:	6e692f31 	mcrvs	15, 3, r2, cr9, cr1, {1}
    1cec:	64756c63 	ldrbtvs	r6, [r5], #-3171	@ 0xfffff39d
    1cf0:	3a430065 	bcc	10c1e8c <_Min_Stack_Size+0x10c1a8c>
    1cf4:	5c54535c 	mrrcpl	3, 5, r5, r4, cr12
    1cf8:	334d5453 	movtcc	r5, #54355	@ 0xd453
    1cfc:	62754332 	rsbsvs	r4, r5, #-939524096	@ 0xc8000000
    1d00:	45444965 	strbmi	r4, [r4, #-2405]	@ 0xfffff69b
    1d04:	312e315f 			@ <UNDEFINED> instruction: 0x312e315f
    1d08:	5c322e33 	ldcpl	14, cr2, [r2], #-204	@ 0xffffff34
    1d0c:	334d5453 	movtcc	r5, #54355	@ 0xd453
    1d10:	62754332 	rsbsvs	r4, r5, #-939524096	@ 0xc8000000
    1d14:	45444965 	strbmi	r4, [r4, #-2405]	@ 0xfffff69b
    1d18:	756c705c 	strbvc	r7, [ip, #-92]!	@ 0xffffffa4
    1d1c:	736e6967 	cmnvc	lr, #1687552	@ 0x19c000
    1d20:	6d6f635c 	stclvs	3, cr6, [pc, #-368]!	@ 1bb8 <_Min_Stack_Size+0x17b8>
    1d24:	2e74732e 	cdpcs	3, 7, cr7, cr4, cr14, {1}
    1d28:	336d7473 	cmncc	sp, #1929379840	@ 0x73000000
    1d2c:	62756332 	rsbsvs	r6, r5, #-939524096	@ 0xc8000000
    1d30:	64692e65 	strbtvs	r2, [r9], #-3685	@ 0xfffff19b
    1d34:	636d2e65 	cmnvs	sp, #1616	@ 0x650
    1d38:	78652e75 	stmdavc	r5!, {r0, r2, r4, r5, r6, r9, sl, fp, sp}^
    1d3c:	6e726574 	mrcvs	5, 3, r6, cr2, cr4, {3}
    1d40:	6f746c61 	svcvs	0x00746c61
    1d44:	2e736c6f 	cdpcs	12, 7, cr6, cr3, cr15, {3}
    1d48:	2d756e67 	ldclcs	14, cr6, [r5, #-412]!	@ 0xfffffe64
    1d4c:	6c6f6f74 	stclvs	15, cr6, [pc], #-464	@ 1b84 <_Min_Stack_Size+0x1784>
    1d50:	6f662d73 	svcvs	0x00662d73
    1d54:	74732d72 	ldrbtvc	r2, [r3], #-3442	@ 0xfffff28e
    1d58:	2e32336d 	cdpcs	3, 3, cr3, cr2, cr13, {3}
    1d5c:	332e3231 			@ <UNDEFINED> instruction: 0x332e3231
    1d60:	6c65722e 	sfmvs	f7, 2, [r5], #-184	@ 0xffffff48
    1d64:	69772e31 	ldmdbvs	r7!, {r0, r4, r5, r9, sl, fp, sp}^
    1d68:	5f32336e 	svcpl	0x0032336e
    1d6c:	2e302e31 	mrccs	14, 1, r2, cr0, cr1, {1}
    1d70:	2e303031 	mrccs	0, 1, r3, cr0, cr1, {1}
    1d74:	34323032 	ldrtcc	r3, [r2], #-50	@ 0xffffffce
    1d78:	31313330 	teqcc	r1, r0, lsr r3
    1d7c:	36353231 			@ <UNDEFINED> instruction: 0x36353231
    1d80:	6f6f745c 	svcvs	0x006f745c
    1d84:	625c736c 	subsvs	r7, ip, #108, 6	@ 0xb0000001
    1d88:	2e2f6e69 	cdpcs	14, 2, cr6, cr15, cr9, {3}
    1d8c:	696c2f2e 	stmdbvs	ip!, {r1, r2, r3, r5, r8, r9, sl, fp, sp}^
    1d90:	63672f62 	cmnvs	r7, #392	@ 0x188
    1d94:	72612f63 	rsbvc	r2, r1, #396	@ 0x18c
    1d98:	6f6e2d6d 	svcvs	0x006e2d6d
    1d9c:	652d656e 	strvs	r6, [sp, #-1390]!	@ 0xfffffa92
    1da0:	2f696261 	svccs	0x00696261
    1da4:	332e3231 			@ <UNDEFINED> instruction: 0x332e3231
    1da8:	2e2f312e 	sufcsep	f3, f7, #0.5
    1dac:	2e2e2f2e 	cdpcs	15, 2, cr2, cr14, cr14, {1}
    1db0:	2f2e2e2f 	svccs	0x002e2e2f
    1db4:	612f2e2e 			@ <UNDEFINED> instruction: 0x612f2e2e
    1db8:	6e2d6d72 	mcrvs	13, 1, r6, cr13, cr2, {3}
    1dbc:	2d656e6f 	stclcs	14, cr6, [r5, #-444]!	@ 0xfffffe44
    1dc0:	69626165 	stmdbvs	r2!, {r0, r2, r5, r6, r8, sp, lr}^
    1dc4:	636e692f 	cmnvs	lr, #770048	@ 0xbc000
    1dc8:	6564756c 	strbvs	r7, [r4, #-1388]!	@ 0xfffffa94
    1dcc:	43520000 	cmpmi	r2, #0
    1dd0:	00632e43 	rsbeq	r2, r3, r3, asr #28
    1dd4:	5f000001 	svcpl	0x00000001
    1dd8:	61666564 	cmnvs	r6, r4, ror #10
    1ddc:	5f746c75 	svcpl	0x00746c75
    1de0:	65707974 	ldrbvs	r7, [r0, #-2420]!	@ 0xfffff68c
    1de4:	00682e73 	rsbeq	r2, r8, r3, ror lr
    1de8:	5f000002 	svcpl	0x00000002
    1dec:	69647473 	stmdbvs	r4!, {r0, r1, r4, r5, r6, sl, ip, sp, lr}^
    1df0:	682e746e 	stmdavs	lr!, {r1, r2, r3, r5, r6, sl, ip, sp, lr}
    1df4:	00000300 	andeq	r0, r0, r0, lsl #6
    1df8:	6d6d6f63 	stclvs	15, cr6, [sp, #-396]!	@ 0xfffffe74
    1dfc:	682e6e6f 	stmdavs	lr!, {r0, r1, r2, r3, r5, r6, r9, sl, fp, sp, lr}
    1e00:	00000400 	andeq	r0, r0, r0, lsl #8
    1e04:	336d7473 	cmncc	sp, #1929379840	@ 0x73000000
    1e08:	30316632 	eorscc	r6, r1, r2, lsr r6
    1e0c:	2e367833 	mrccs	8, 1, r7, cr6, cr3, {1}
    1e10:	00040068 	andeq	r0, r4, r8, rrx
    1e14:	43435200 	movtmi	r5, #12800	@ 0x3200
    1e18:	0500682e 	streq	r6, [r0, #-2094]	@ 0xfffff7d2
    1e1c:	74730000 	ldrbtvc	r0, [r3], #-0
    1e20:	746e6964 	strbtvc	r6, [lr], #-2404	@ 0xfffff69c
    1e24:	0600682e 	streq	r6, [r0], -lr, lsr #16
    1e28:	74730000 	ldrbtvc	r0, [r3], #-0
    1e2c:	746e6964 	strbtvc	r6, [lr], #-2404	@ 0xfffff69c
    1e30:	0700682e 	streq	r6, [r0, -lr, lsr #16]
    1e34:	65660000 	strbvs	r0, [r6, #-0]!
    1e38:	72757461 	rsbsvc	r7, r5, #1627389952	@ 0x61000000
    1e3c:	682e7365 	stmdavs	lr!, {r0, r2, r5, r6, r8, r9, ip, sp, lr}
    1e40:	00000300 	andeq	r0, r0, r0, lsl #6
    1e44:	77656e5f 			@ <UNDEFINED> instruction: 0x77656e5f
    1e48:	5f62696c 	svcpl	0x0062696c
    1e4c:	73726576 	cmnvc	r2, #494927872	@ 0x1d800000
    1e50:	2e6e6f69 	cdpcs	15, 6, cr6, cr14, cr9, {3}
    1e54:	00070068 	andeq	r0, r7, r8, rrx
    1e58:	6e695f00 	cdpvs	15, 6, cr5, cr9, cr0, {0}
    1e5c:	70757374 	rsbsvc	r7, r5, r4, ror r3
    1e60:	0300682e 	movweq	r6, #2094	@ 0x82e
    1e64:	05000000 	streq	r0, [r0, #-0]
    1e68:	02050001 	andeq	r0, r5, #1
    1e6c:	080009d0 	stmdaeq	r0, {r4, r6, r7, r8, fp}
    1e70:	05011c03 	streq	r1, [r1, #-3075]	@ 0xfffff3fd
    1e74:	0405e518 	streq	lr, [r5], #-1304	@ 0xfffffae8
    1e78:	4b4b4b30 	blmi	12d4b40 <_Min_Stack_Size+0x12d4740>
    1e7c:	054c0305 	strbeq	r0, [ip, #-773]	@ 0xfffffcfb
    1e80:	0c056a07 			@ <UNDEFINED> instruction: 0x0c056a07
    1e84:	3d07053c 	cfstr32cc	mvfx0, [r7, #-240]	@ 0xffffff10
    1e88:	053c0c05 	ldreq	r0, [ip, #-3077]!	@ 0xfffff3fb
    1e8c:	0c053d07 	stceq	13, cr3, [r5], {7}
    1e90:	3d09053c 	cfstr32cc	mvfx0, [r9, #-240]	@ 0xffffff10
    1e94:	02001005 	andeq	r1, r0, #5
    1e98:	05200104 	streq	r0, [r0, #-260]!	@ 0xfffffefc
    1e9c:	04020026 	streq	r0, [r2], #-38	@ 0xffffffda
    1ea0:	07052e01 	streq	r2, [r5, -r1, lsl #28]
    1ea4:	3c0e054b 	cfstr32cc	mvfx0, [lr], {75}	@ 0x4b
    1ea8:	053d0905 	ldreq	r0, [sp, #-2309]!	@ 0xfffff6fb
    1eac:	04020010 	streq	r0, [r2], #-16
    1eb0:	18052001 	stmdane	r5, {r0, sp}
    1eb4:	01040200 	mrseq	r0, R12_usr
    1eb8:	001e052e 	andseq	r0, lr, lr, lsr #10
    1ebc:	20010402 	andcs	r0, r1, r2, lsl #8
    1ec0:	02002805 	andeq	r2, r0, #327680	@ 0x50000
    1ec4:	052e0104 	streq	r0, [lr, #-260]!	@ 0xfffffefc
    1ec8:	04052f08 	streq	r2, [r5], #-3848	@ 0xfffff0f8
    1ecc:	2407052f 	strcs	r0, [r7], #-1327	@ 0xfffffad1
    1ed0:	053c0c05 	ldreq	r0, [ip, #-3077]!	@ 0xfffff3fb
    1ed4:	0c053d07 	stceq	13, cr3, [r5], {7}
    1ed8:	3d07053c 	cfstr32cc	mvfx0, [r7, #-240]	@ 0xffffff10
    1edc:	053c0c05 	ldreq	r0, [ip, #-3077]!	@ 0xfffff3fb
    1ee0:	0f053d09 	svceq	0x00053d09
    1ee4:	01040200 	mrseq	r0, R12_usr
    1ee8:	00250520 	eoreq	r0, r5, r0, lsr #10
    1eec:	2e010402 	cdpcs	4, 0, cr0, cr1, cr2, {0}
    1ef0:	054b0705 	strbeq	r0, [fp, #-1797]	@ 0xfffff8fb
    1ef4:	07053c0e 	streq	r3, [r5, -lr, lsl #24]
    1ef8:	3c0e053d 	cfstr32cc	mvfx0, [lr], {61}	@ 0x3d
    1efc:	053d0905 	ldreq	r0, [sp, #-2309]!	@ 0xfffff6fb
    1f00:	04020010 	streq	r0, [r2], #-16
    1f04:	18052001 	stmdane	r5, {r0, sp}
    1f08:	01040200 	mrseq	r0, R12_usr
    1f0c:	001e052e 	andseq	r0, lr, lr, lsr #10
    1f10:	20010402 	andcs	r0, r1, r2, lsl #8
    1f14:	02002805 	andeq	r2, r0, #327680	@ 0x50000
    1f18:	052e0104 	streq	r0, [lr, #-260]!	@ 0xfffffefc
    1f1c:	04052f08 	streq	r2, [r5], #-3848	@ 0xfffff0f8
    1f20:	2211052f 	andscs	r0, r1, #197132288	@ 0xbc00000
    1f24:	05310505 	ldreq	r0, [r1, #-1285]!	@ 0xfffffafb
    1f28:	1b053e14 	blne	151780 <_Min_Stack_Size+0x151380>
    1f2c:	2e42052e 	cdpcs	5, 4, cr0, cr2, cr14, {1}
    1f30:	052e0705 	streq	r0, [lr, #-1797]!	@ 0xfffff8fb
    1f34:	0e05202d 	cdpeq	0, 0, cr2, cr5, cr13, {1}
    1f38:	21140520 	tstcs	r4, r0, lsr #10
    1f3c:	052e1b05 	streq	r1, [lr, #-2821]!	@ 0xfffff4fb
    1f40:	07052e42 	streq	r2, [r5, -r2, asr #28]
    1f44:	202d052e 	eorcs	r0, sp, lr, lsr #10
    1f48:	05200e05 	streq	r0, [r0, #-3589]!	@ 0xfffff1fb
    1f4c:	1b052114 	blne	14a3a4 <_Min_Stack_Size+0x149fa4>
    1f50:	2e42052e 	cdpcs	5, 4, cr0, cr2, cr14, {1}
    1f54:	052e0705 	streq	r0, [lr, #-1797]!	@ 0xfffff8fb
    1f58:	0e05202d 	cdpeq	0, 0, cr2, cr5, cr13, {1}
    1f5c:	1c050520 	cfstr32ne	mvfx0, [r5], {32}
    1f60:	0a030705 	beq	c3b7c <_Min_Stack_Size+0xc377c>
    1f64:	30090520 	andcc	r0, r9, r0, lsr #10
    1f68:	02210105 	eoreq	r0, r1, #1073741825	@ 0x40000001
    1f6c:	01010007 	tsteq	r1, r7
    1f70:	05000105 	streq	r0, [r0, #-261]	@ 0xfffffefb
    1f74:	00000002 	andeq	r0, r0, r2
    1f78:	00dc0300 	sbcseq	r0, ip, r0, lsl #6
    1f7c:	e5180501 	ldr	r0, [r8, #-1281]	@ 0xfffffaff
    1f80:	4b300405 	blmi	c02f9c <_Min_Stack_Size+0xc02b9c>
    1f84:	054b4b4b 	strbeq	r4, [fp, #-2891]	@ 0xfffff4b5
    1f88:	07054c03 	streq	r4, [r5, -r3, lsl #24]
    1f8c:	3c0c05b0 	cfstr32cc	mvfx0, [ip], {176}	@ 0xb0
    1f90:	053d0705 	ldreq	r0, [sp, #-1797]!	@ 0xfffff8fb
    1f94:	07053c0c 	streq	r3, [r5, -ip, lsl #24]
    1f98:	3c0c053d 	cfstr32cc	mvfx0, [ip], {61}	@ 0x3d
    1f9c:	053d0905 	ldreq	r0, [sp, #-2309]!	@ 0xfffff6fb
    1fa0:	04020010 	streq	r0, [r2], #-16
    1fa4:	26052001 	strcs	r2, [r5], -r1
    1fa8:	01040200 	mrseq	r0, R12_usr
    1fac:	4b07052e 	blmi	1c346c <_Min_Stack_Size+0x1c306c>
    1fb0:	053c0e05 	ldreq	r0, [ip, #-3589]!	@ 0xfffff1fb
    1fb4:	10053d09 	andne	r3, r5, r9, lsl #26
    1fb8:	01040200 	mrseq	r0, R12_usr
    1fbc:	00180520 	andseq	r0, r8, r0, lsr #10
    1fc0:	2e010402 	cdpcs	4, 0, cr0, cr1, cr2, {0}
    1fc4:	02001e05 	andeq	r1, r0, #5, 28	@ 0x50
    1fc8:	05200104 	streq	r0, [r0, #-260]!	@ 0xfffffefc
    1fcc:	04020028 	streq	r0, [r2], #-40	@ 0xffffffd8
    1fd0:	15052e01 	strne	r2, [r5, #-3585]	@ 0xfffff1ff
    1fd4:	2e1c052f 	cfmul64cs	mvdx0, mvdx12, mvdx15
    1fd8:	052e3f05 	streq	r3, [lr, #-3845]!	@ 0xfffff0fb
    1fdc:	2f052e07 	svccs	0x00052e07
    1fe0:	200e0520 	andcs	r0, lr, r0, lsr #10
    1fe4:	05210705 	streq	r0, [r1, #-1797]!	@ 0xfffff8fb
    1fe8:	07053c0e 	streq	r3, [r5, -lr, lsl #24]
    1fec:	3c0c053d 	cfstr32cc	mvfx0, [ip], {61}	@ 0x3d
    1ff0:	053d0905 	ldreq	r0, [sp, #-2309]!	@ 0xfffff6fb
    1ff4:	04020010 	streq	r0, [r2], #-16
    1ff8:	27052001 	strcs	r2, [r5, -r1]
    1ffc:	01040200 	mrseq	r0, R12_usr
    2000:	4b07052e 	blmi	1c34c0 <_Min_Stack_Size+0x1c30c0>
    2004:	053c0e05 	ldreq	r0, [ip, #-3589]!	@ 0xfffff1fb
    2008:	0e053d07 	cdpeq	13, 0, cr3, cr5, cr7, {0}
    200c:	3d09053c 	cfstr32cc	mvfx0, [r9, #-240]	@ 0xffffff10
    2010:	02001005 	andeq	r1, r0, #5
    2014:	05200104 	streq	r0, [r0, #-260]!	@ 0xfffffefc
    2018:	04020018 	streq	r0, [r2], #-24	@ 0xffffffe8
    201c:	1e052e01 	cdpne	14, 0, cr2, cr5, cr1, {0}
    2020:	01040200 	mrseq	r0, R12_usr
    2024:	00280520 	eoreq	r0, r8, r0, lsr #10
    2028:	2e010402 	cdpcs	4, 0, cr0, cr1, cr2, {0}
    202c:	052f0805 	streq	r0, [pc, #-2053]!	@ 182f <_Min_Stack_Size+0x142f>
    2030:	07052f04 	streq	r2, [r5, -r4, lsl #30]
    2034:	3c0c0525 	cfstr32cc	mvfx0, [ip], {37}	@ 0x25
    2038:	053d0705 	ldreq	r0, [sp, #-1797]!	@ 0xfffff8fb
    203c:	07053c0c 	streq	r3, [r5, -ip, lsl #24]
    2040:	3c0c053d 	cfstr32cc	mvfx0, [ip], {61}	@ 0x3d
    2044:	053d0905 	ldreq	r0, [sp, #-2309]!	@ 0xfffff6fb
    2048:	0402000f 	streq	r0, [r2], #-15
    204c:	25052001 	strcs	r2, [r5, #-1]
    2050:	01040200 	mrseq	r0, R12_usr
    2054:	4b07052e 	blmi	1c3514 <_Min_Stack_Size+0x1c3114>
    2058:	053c0e05 	ldreq	r0, [ip, #-3589]!	@ 0xfffff1fb
    205c:	0e053d07 	cdpeq	13, 0, cr3, cr5, cr7, {0}
    2060:	3d09053c 	cfstr32cc	mvfx0, [r9, #-240]	@ 0xffffff10
    2064:	02001005 	andeq	r1, r0, #5
    2068:	05200104 	streq	r0, [r0, #-260]!	@ 0xfffffefc
    206c:	04020018 	streq	r0, [r2], #-24	@ 0xffffffe8
    2070:	1e052e01 	cdpne	14, 0, cr2, cr5, cr1, {0}
    2074:	01040200 	mrseq	r0, R12_usr
    2078:	00280520 	eoreq	r0, r8, r0, lsr #10
    207c:	2e010402 	cdpcs	4, 0, cr0, cr1, cr2, {0}
    2080:	052f1505 	streq	r1, [pc, #-1285]!	@ 1b83 <_Min_Stack_Size+0x1783>
    2084:	3f052e1c 	svccc	0x00052e1c
    2088:	2e07052e 	cfsh32cs	mvfx0, mvfx7, #30
    208c:	05202f05 	streq	r2, [r0, #-3845]!	@ 0xfffff0fb
    2090:	0705200e 	streq	r2, [r5, -lr]
    2094:	3c0e0521 	cfstr32cc	mvfx0, [lr], {33}	@ 0x21
    2098:	053d0705 	ldreq	r0, [sp, #-1797]!	@ 0xfffff8fb
    209c:	06053c0e 	streq	r3, [r5], -lr, lsl #24
    20a0:	3d08053d 	cfstr32cc	mvfx0, [r8, #-244]	@ 0xffffff0c
    20a4:	053c0f05 	ldreq	r0, [ip, #-3845]!	@ 0xfffff0fb
    20a8:	0c053d07 	stceq	13, cr3, [r5], {7}
    20ac:	3d09053c 	cfstr32cc	mvfx0, [r9, #-240]	@ 0xffffff10
    20b0:	02001005 	andeq	r1, r0, #5
    20b4:	05200104 	streq	r0, [r0, #-260]!	@ 0xfffffefc
    20b8:	04020027 	streq	r0, [r2], #-39	@ 0xffffffd9
    20bc:	07052e01 	streq	r2, [r5, -r1, lsl #28]
    20c0:	3c0e054b 	cfstr32cc	mvfx0, [lr], {75}	@ 0x4b
    20c4:	053d0705 	ldreq	r0, [sp, #-1797]!	@ 0xfffff8fb
    20c8:	09053c0e 	stmdbeq	r5, {r1, r2, r3, sl, fp, ip, sp}
    20cc:	0010053d 	andseq	r0, r0, sp, lsr r5
    20d0:	20010402 	andcs	r0, r1, r2, lsl #8
    20d4:	02001805 	andeq	r1, r0, #327680	@ 0x50000
    20d8:	052e0104 	streq	r0, [lr, #-260]!	@ 0xfffffefc
    20dc:	0402001e 	streq	r0, [r2], #-30	@ 0xffffffe2
    20e0:	28052001 	stmdacs	r5, {r0, sp}
    20e4:	01040200 	mrseq	r0, R12_usr
    20e8:	2f08052e 	svccs	0x0008052e
    20ec:	052f0405 	streq	r0, [pc, #-1029]!	@ 1cef <_Min_Stack_Size+0x18ef>
    20f0:	05052211 	streq	r2, [r5, #-529]	@ 0xfffffdef
    20f4:	3e140531 	mrccc	5, 0, r0, cr4, cr1, {1}
    20f8:	052e1b05 	streq	r1, [lr, #-2821]!	@ 0xfffff4fb
    20fc:	07052e42 	streq	r2, [r5, -r2, asr #28]
    2100:	202d052e 	eorcs	r0, sp, lr, lsr #10
    2104:	05200e05 	streq	r0, [r0, #-3589]!	@ 0xfffff1fb
    2108:	1b052114 	blne	14a560 <_Min_Stack_Size+0x14a160>
    210c:	2e42052e 	cdpcs	5, 4, cr0, cr2, cr14, {1}
    2110:	052e0705 	streq	r0, [lr, #-1797]!	@ 0xfffff8fb
    2114:	0e05202d 	cdpeq	0, 0, cr2, cr5, cr13, {1}
    2118:	21140520 	tstcs	r4, r0, lsr #10
    211c:	052e1b05 	streq	r1, [lr, #-2821]!	@ 0xfffff4fb
    2120:	07052e42 	streq	r2, [r5, -r2, asr #28]
    2124:	202d052e 	eorcs	r0, sp, lr, lsr #10
    2128:	05200e05 	streq	r0, [r0, #-3589]!	@ 0xfffff1fb
    212c:	07051c05 	streq	r1, [r5, -r5, lsl #24]
    2130:	05200a03 	streq	r0, [r0, #-2563]!	@ 0xfffff5fd
    2134:	01053009 	tsteq	r5, r9
    2138:	00070221 	andeq	r0, r7, r1, lsr #4
    213c:	01050101 	tsteq	r5, r1, lsl #2
    2140:	28020500 	stmdacs	r2, {r8, sl}
    2144:	0308000b 	movweq	r0, #32779	@ 0x800b
    2148:	050101aa 	streq	r0, [r1, #-426]	@ 0xfffffe56
    214c:	04055918 	streq	r5, [r5], #-2328	@ 0xfffff6e8
    2150:	4c030530 	cfstr32mi	mvfx0, [r3], {48}	@ 0x30
    2154:	67021705 	strvs	r1, [r2, -r5, lsl #14]
    2158:	3c200513 	cfstr32cc	mvfx0, [r0], #-76	@ 0xffffffb4
    215c:	053c2f05 	ldreq	r2, [ip, #-3845]!	@ 0xfffff0fb
    2160:	17052e39 	smladxne	r5, r9, lr, r2
    2164:	3c200521 	cfstr32cc	mvfx0, [r0], #-132	@ 0xffffff7c
    2168:	053c2f05 	ldreq	r2, [ip, #-3845]!	@ 0xfffff0fb
    216c:	17052e39 	smladxne	r5, r9, lr, r2
    2170:	3c200521 	cfstr32cc	mvfx0, [r0], #-132	@ 0xffffff7c
    2174:	053c2f05 	ldreq	r2, [ip, #-3845]!	@ 0xfffff0fb
    2178:	17052e39 	smladxne	r5, r9, lr, r2
    217c:	3c200521 	cfstr32cc	mvfx0, [r0], #-132	@ 0xffffff7c
    2180:	053c2f05 	ldreq	r2, [ip, #-3845]!	@ 0xfffff0fb
    2184:	17052e39 	smladxne	r5, r9, lr, r2
    2188:	3c200521 	cfstr32cc	mvfx0, [r0], #-132	@ 0xffffff7c
    218c:	053c2f05 	ldreq	r2, [ip, #-3845]!	@ 0xfffff0fb
    2190:	17052e39 	smladxne	r5, r9, lr, r2
    2194:	3c200521 	cfstr32cc	mvfx0, [r0], #-132	@ 0xffffff7c
    2198:	053c2f05 	ldreq	r2, [ip, #-3845]!	@ 0xfffff0fb
    219c:	17052e39 	smladxne	r5, r9, lr, r2
    21a0:	3c200521 	cfstr32cc	mvfx0, [r0], #-132	@ 0xffffff7c
    21a4:	053c2f05 	ldreq	r2, [ip, #-3845]!	@ 0xfffff0fb
    21a8:	17052e39 	smladxne	r5, r9, lr, r2
    21ac:	3c210521 	cfstr32cc	mvfx0, [r1], #-132	@ 0xffffff7c
    21b0:	053c2f05 	ldreq	r2, [ip, #-3845]!	@ 0xfffff0fb
    21b4:	17052e39 	smladxne	r5, r9, lr, r2
    21b8:	3c210521 	cfstr32cc	mvfx0, [r1], #-132	@ 0xffffff7c
    21bc:	053c2f05 	ldreq	r2, [ip, #-3845]!	@ 0xfffff0fb
    21c0:	17052e39 	smladxne	r5, r9, lr, r2
    21c4:	3c210521 	cfstr32cc	mvfx0, [r1], #-132	@ 0xffffff7c
    21c8:	053c2f05 	ldreq	r2, [ip, #-3845]!	@ 0xfffff0fb
    21cc:	17052e39 	smladxne	r5, r9, lr, r2
    21d0:	3c210521 	cfstr32cc	mvfx0, [r1], #-132	@ 0xffffff7c
    21d4:	053c2f05 	ldreq	r2, [ip, #-3845]!	@ 0xfffff0fb
    21d8:	17052e39 	smladxne	r5, r9, lr, r2
    21dc:	3c210521 	cfstr32cc	mvfx0, [r1], #-132	@ 0xffffff7c
    21e0:	053c2f05 	ldreq	r2, [ip, #-3845]!	@ 0xfffff0fb
    21e4:	17052e39 	smladxne	r5, r9, lr, r2
    21e8:	3c210521 	cfstr32cc	mvfx0, [r1], #-132	@ 0xffffff7c
    21ec:	053c2f05 	ldreq	r2, [ip, #-3845]!	@ 0xfffff0fb
    21f0:	17052e39 	smladxne	r5, r9, lr, r2
    21f4:	3c210521 	cfstr32cc	mvfx0, [r1], #-132	@ 0xffffff7c
    21f8:	053c2f05 	ldreq	r2, [ip, #-3845]!	@ 0xfffff0fb
    21fc:	17052e39 	smladxne	r5, r9, lr, r2
    2200:	3c210521 	cfstr32cc	mvfx0, [r1], #-132	@ 0xffffff7c
    2204:	053c2f05 	ldreq	r2, [ip, #-3845]!	@ 0xfffff0fb
    2208:	17052e39 	smladxne	r5, r9, lr, r2
    220c:	3c210521 	cfstr32cc	mvfx0, [r1], #-132	@ 0xffffff7c
    2210:	053c2f05 	ldreq	r2, [ip, #-3845]!	@ 0xfffff0fb
    2214:	17052e39 	smladxne	r5, r9, lr, r2
    2218:	3c210521 	cfstr32cc	mvfx0, [r1], #-132	@ 0xffffff7c
    221c:	053c3005 	ldreq	r3, [ip, #-5]!
    2220:	17052e3a 	smladxne	r5, sl, lr, r2
    2224:	3c210521 	cfstr32cc	mvfx0, [r1], #-132	@ 0xffffff7c
    2228:	053c3005 	ldreq	r3, [ip, #-5]!
    222c:	17052e3a 	smladxne	r5, sl, lr, r2
    2230:	3c210521 	cfstr32cc	mvfx0, [r1], #-132	@ 0xffffff7c
    2234:	053c3005 	ldreq	r3, [ip, #-5]!
    2238:	17052e3a 	smladxne	r5, sl, lr, r2
    223c:	3c210521 	cfstr32cc	mvfx0, [r1], #-132	@ 0xffffff7c
    2240:	053c3005 	ldreq	r3, [ip, #-5]!
    2244:	18052e3a 	stmdane	r5, {r1, r3, r4, r5, r9, sl, fp, sp}
    2248:	3c220521 	cfstr32cc	mvfx0, [r2], #-132	@ 0xffffff7c
    224c:	053c3105 	ldreq	r3, [ip, #-261]!	@ 0xfffffefb
    2250:	17052e3b 	smladxne	r5, fp, lr, r2
    2254:	3c210521 	cfstr32cc	mvfx0, [r1], #-132	@ 0xffffff7c
    2258:	053c3005 	ldreq	r3, [ip, #-5]!
    225c:	17052e3a 	smladxne	r5, sl, lr, r2
    2260:	3c210521 	cfstr32cc	mvfx0, [r1], #-132	@ 0xffffff7c
    2264:	053c3005 	ldreq	r3, [ip, #-5]!
    2268:	17052e3a 	smladxne	r5, sl, lr, r2
    226c:	3c210521 	cfstr32cc	mvfx0, [r1], #-132	@ 0xffffff7c
    2270:	053c3005 	ldreq	r3, [ip, #-5]!
    2274:	17052e3a 	smladxne	r5, sl, lr, r2
    2278:	3c210521 	cfstr32cc	mvfx0, [r1], #-132	@ 0xffffff7c
    227c:	053c3005 	ldreq	r3, [ip, #-5]!
    2280:	17052e3a 	smladxne	r5, sl, lr, r2
    2284:	3c210521 	cfstr32cc	mvfx0, [r1], #-132	@ 0xffffff7c
    2288:	053c2f05 	ldreq	r2, [ip, #-3845]!	@ 0xfffff0fb
    228c:	17052e39 	smladxne	r5, r9, lr, r2
    2290:	3c210521 	cfstr32cc	mvfx0, [r1], #-132	@ 0xffffff7c
    2294:	053c2f05 	ldreq	r2, [ip, #-3845]!	@ 0xfffff0fb
    2298:	17052e39 	smladxne	r5, r9, lr, r2
    229c:	3c210521 	cfstr32cc	mvfx0, [r1], #-132	@ 0xffffff7c
    22a0:	053c2f05 	ldreq	r2, [ip, #-3845]!	@ 0xfffff0fb
    22a4:	17052e39 	smladxne	r5, r9, lr, r2
    22a8:	3c210521 	cfstr32cc	mvfx0, [r1], #-132	@ 0xffffff7c
    22ac:	053c2f05 	ldreq	r2, [ip, #-3845]!	@ 0xfffff0fb
    22b0:	17052e39 	smladxne	r5, r9, lr, r2
    22b4:	3c210521 	cfstr32cc	mvfx0, [r1], #-132	@ 0xffffff7c
    22b8:	053c2f05 	ldreq	r2, [ip, #-3845]!	@ 0xfffff0fb
    22bc:	17052e39 	smladxne	r5, r9, lr, r2
    22c0:	3c210521 	cfstr32cc	mvfx0, [r1], #-132	@ 0xffffff7c
    22c4:	053c2f05 	ldreq	r2, [ip, #-3845]!	@ 0xfffff0fb
    22c8:	17052e39 	smladxne	r5, r9, lr, r2
    22cc:	3c210521 	cfstr32cc	mvfx0, [r1], #-132	@ 0xffffff7c
    22d0:	053c2f05 	ldreq	r2, [ip, #-3845]!	@ 0xfffff0fb
    22d4:	17052e39 	smladxne	r5, r9, lr, r2
    22d8:	3c210521 	cfstr32cc	mvfx0, [r1], #-132	@ 0xffffff7c
    22dc:	053c2f05 	ldreq	r2, [ip, #-3845]!	@ 0xfffff0fb
    22e0:	17052e39 	smladxne	r5, r9, lr, r2
    22e4:	3c210521 	cfstr32cc	mvfx0, [r1], #-132	@ 0xffffff7c
    22e8:	053c2f05 	ldreq	r2, [ip, #-3845]!	@ 0xfffff0fb
    22ec:	17052e39 	smladxne	r5, r9, lr, r2
    22f0:	3c210521 	cfstr32cc	mvfx0, [r1], #-132	@ 0xffffff7c
    22f4:	053c3005 	ldreq	r3, [ip, #-5]!
    22f8:	17052e3a 	smladxne	r5, sl, lr, r2
    22fc:	3c210521 	cfstr32cc	mvfx0, [r1], #-132	@ 0xffffff7c
    2300:	053c3005 	ldreq	r3, [ip, #-5]!
    2304:	17052e3a 	smladxne	r5, sl, lr, r2
    2308:	3c21053d 	cfstr32cc	mvfx0, [r1], #-244	@ 0xffffff0c
    230c:	053c3005 	ldreq	r3, [ip, #-5]!
    2310:	18052e3a 	stmdane	r5, {r1, r3, r4, r5, r9, sl, fp, sp}
    2314:	3c220521 	cfstr32cc	mvfx0, [r2], #-132	@ 0xffffff7c
    2318:	053c3105 	ldreq	r3, [ip, #-261]!	@ 0xfffffefb
    231c:	18052e3b 	stmdane	r5, {r0, r1, r3, r4, r5, r9, sl, fp, sp}
    2320:	3c220521 	cfstr32cc	mvfx0, [r2], #-132	@ 0xffffff7c
    2324:	053c3105 	ldreq	r3, [ip, #-261]!	@ 0xfffffefb
    2328:	18052e3b 	stmdane	r5, {r0, r1, r3, r4, r5, r9, sl, fp, sp}
    232c:	3c220521 	cfstr32cc	mvfx0, [r2], #-132	@ 0xffffff7c
    2330:	053c3105 	ldreq	r3, [ip, #-261]!	@ 0xfffffefb
    2334:	18052e3b 	stmdane	r5, {r0, r1, r3, r4, r5, r9, sl, fp, sp}
    2338:	3c220521 	cfstr32cc	mvfx0, [r2], #-132	@ 0xffffff7c
    233c:	053c3105 	ldreq	r3, [ip, #-261]!	@ 0xfffffefb
    2340:	17052e3b 	smladxne	r5, fp, lr, r2
    2344:	3c210521 	cfstr32cc	mvfx0, [r1], #-132	@ 0xffffff7c
    2348:	053c3005 	ldreq	r3, [ip, #-5]!
    234c:	17052e3a 	smladxne	r5, sl, lr, r2
    2350:	3c210521 	cfstr32cc	mvfx0, [r1], #-132	@ 0xffffff7c
    2354:	053c3005 	ldreq	r3, [ip, #-5]!
    2358:	16052e3a 			@ <UNDEFINED> instruction: 0x16052e3a
    235c:	3c200521 	cfstr32cc	mvfx0, [r0], #-132	@ 0xffffff7c
    2360:	053c2f05 	ldreq	r2, [ip, #-3845]!	@ 0xfffff0fb
    2364:	16052e39 			@ <UNDEFINED> instruction: 0x16052e39
    2368:	3c200521 	cfstr32cc	mvfx0, [r0], #-132	@ 0xffffff7c
    236c:	053c2f05 	ldreq	r2, [ip, #-3845]!	@ 0xfffff0fb
    2370:	16052e39 			@ <UNDEFINED> instruction: 0x16052e39
    2374:	3c200521 	cfstr32cc	mvfx0, [r0], #-132	@ 0xffffff7c
    2378:	053c2f05 	ldreq	r2, [ip, #-3845]!	@ 0xfffff0fb
    237c:	16052e39 			@ <UNDEFINED> instruction: 0x16052e39
    2380:	3c200521 	cfstr32cc	mvfx0, [r0], #-132	@ 0xffffff7c
    2384:	053c2f05 	ldreq	r2, [ip, #-3845]!	@ 0xfffff0fb
    2388:	16052e39 			@ <UNDEFINED> instruction: 0x16052e39
    238c:	3c200521 	cfstr32cc	mvfx0, [r0], #-132	@ 0xffffff7c
    2390:	053c2f05 	ldreq	r2, [ip, #-3845]!	@ 0xfffff0fb
    2394:	13052e39 	movwne	r2, #24121	@ 0x5e39
    2398:	2e270521 	cfsh64cs	mvdx0, mvdx7, #17
    239c:	05250705 	streq	r0, [r5, #-1797]!	@ 0xfffff8fb
    23a0:	01053009 	tsteq	r5, r9
    23a4:	00080221 	andeq	r0, r8, r1, lsr #4
    23a8:	01050101 	tsteq	r5, r1, lsl #2
    23ac:	00020500 	andeq	r0, r2, r0, lsl #10
    23b0:	03000000 	movweq	r0, #0
    23b4:	050101f1 	streq	r0, [r1, #-497]	@ 0xfffffe0f
    23b8:	04055918 	streq	r5, [r5], #-2328	@ 0xfffff6e8
    23bc:	00230530 	eoreq	r0, r3, r0, lsr r5
    23c0:	4a010402 	bmi	433d0 <_Min_Stack_Size+0x42fd0>
    23c4:	054c0305 	strbeq	r0, [ip, #-773]	@ 0xfffffcfb
    23c8:	135b0217 	cmpne	fp, #1879048193	@ 0x70000001
    23cc:	053c2205 	ldreq	r2, [ip, #-517]!	@ 0xfffffdfb
    23d0:	3b053c31 	blcc	15149c <_Min_Stack_Size+0x15109c>
    23d4:	2117052e 	tstcs	r7, lr, lsr #10
    23d8:	053c2205 	ldreq	r2, [ip, #-517]!	@ 0xfffffdfb
    23dc:	3b053c31 	blcc	1514a8 <_Min_Stack_Size+0x1510a8>
    23e0:	2117052e 	tstcs	r7, lr, lsr #10
    23e4:	053c2205 	ldreq	r2, [ip, #-517]!	@ 0xfffffdfb
    23e8:	3b053c31 	blcc	1514b4 <_Min_Stack_Size+0x1510b4>
    23ec:	2117052e 	tstcs	r7, lr, lsr #10
    23f0:	053c2205 	ldreq	r2, [ip, #-517]!	@ 0xfffffdfb
    23f4:	3b053c31 	blcc	1514c0 <_Min_Stack_Size+0x1510c0>
    23f8:	2117052e 	tstcs	r7, lr, lsr #10
    23fc:	053c2205 	ldreq	r2, [ip, #-517]!	@ 0xfffffdfb
    2400:	3b053c31 	blcc	1514cc <_Min_Stack_Size+0x1510cc>
    2404:	2117052e 	tstcs	r7, lr, lsr #10
    2408:	053c2205 	ldreq	r2, [ip, #-517]!	@ 0xfffffdfb
    240c:	3b053c31 	blcc	1514d8 <_Min_Stack_Size+0x1510d8>
    2410:	2117052e 	tstcs	r7, lr, lsr #10
    2414:	053c2205 	ldreq	r2, [ip, #-517]!	@ 0xfffffdfb
    2418:	3b053c31 	blcc	1514e4 <_Min_Stack_Size+0x1510e4>
    241c:	2117052e 	tstcs	r7, lr, lsr #10
    2420:	053c2205 	ldreq	r2, [ip, #-517]!	@ 0xfffffdfb
    2424:	3b053c31 	blcc	1514f0 <_Min_Stack_Size+0x1510f0>
    2428:	2117052e 	tstcs	r7, lr, lsr #10
    242c:	053c2205 	ldreq	r2, [ip, #-517]!	@ 0xfffffdfb
    2430:	3b053c31 	blcc	1514fc <_Min_Stack_Size+0x1510fc>
    2434:	2117052e 	tstcs	r7, lr, lsr #10
    2438:	053c2205 	ldreq	r2, [ip, #-517]!	@ 0xfffffdfb
    243c:	3b053c31 	blcc	151508 <_Min_Stack_Size+0x151108>
    2440:	2117052e 	tstcs	r7, lr, lsr #10
    2444:	053c2205 	ldreq	r2, [ip, #-517]!	@ 0xfffffdfb
    2448:	3b053c31 	blcc	151514 <_Min_Stack_Size+0x151114>
    244c:	2117052e 	tstcs	r7, lr, lsr #10
    2450:	053c2205 	ldreq	r2, [ip, #-517]!	@ 0xfffffdfb
    2454:	3b053c31 	blcc	151520 <_Min_Stack_Size+0x151120>
    2458:	2117052e 	tstcs	r7, lr, lsr #10
    245c:	053c2205 	ldreq	r2, [ip, #-517]!	@ 0xfffffdfb
    2460:	3b053c31 	blcc	15152c <_Min_Stack_Size+0x15112c>
    2464:	2118052e 	tstcs	r8, lr, lsr #10
    2468:	053c2305 	ldreq	r2, [ip, #-773]!	@ 0xfffffcfb
    246c:	3c053c32 	stccc	12, cr3, [r5], {50}	@ 0x32
    2470:	2117052e 	tstcs	r7, lr, lsr #10
    2474:	053c2205 	ldreq	r2, [ip, #-517]!	@ 0xfffffdfb
    2478:	3b053c31 	blcc	151544 <_Min_Stack_Size+0x151144>
    247c:	2117052e 	tstcs	r7, lr, lsr #10
    2480:	053c2205 	ldreq	r2, [ip, #-517]!	@ 0xfffffdfb
    2484:	3b053c31 	blcc	151550 <_Min_Stack_Size+0x151150>
    2488:	2117052e 	tstcs	r7, lr, lsr #10
    248c:	053c2205 	ldreq	r2, [ip, #-517]!	@ 0xfffffdfb
    2490:	3b053c31 	blcc	15155c <_Min_Stack_Size+0x15115c>
    2494:	2117052e 	tstcs	r7, lr, lsr #10
    2498:	053c2205 	ldreq	r2, [ip, #-517]!	@ 0xfffffdfb
    249c:	3b053c31 	blcc	151568 <_Min_Stack_Size+0x151168>
    24a0:	2117052e 	tstcs	r7, lr, lsr #10
    24a4:	053c2205 	ldreq	r2, [ip, #-517]!	@ 0xfffffdfb
    24a8:	3b053c31 	blcc	151574 <_Min_Stack_Size+0x151174>
    24ac:	2117052e 	tstcs	r7, lr, lsr #10
    24b0:	053c2205 	ldreq	r2, [ip, #-517]!	@ 0xfffffdfb
    24b4:	3b053c31 	blcc	151580 <_Min_Stack_Size+0x151180>
    24b8:	2117052e 	tstcs	r7, lr, lsr #10
    24bc:	053c2205 	ldreq	r2, [ip, #-517]!	@ 0xfffffdfb
    24c0:	3b053c31 	blcc	15158c <_Min_Stack_Size+0x15118c>
    24c4:	2117052e 	tstcs	r7, lr, lsr #10
    24c8:	053c2205 	ldreq	r2, [ip, #-517]!	@ 0xfffffdfb
    24cc:	3b053c31 	blcc	151598 <_Min_Stack_Size+0x151198>
    24d0:	2117052e 	tstcs	r7, lr, lsr #10
    24d4:	053c2205 	ldreq	r2, [ip, #-517]!	@ 0xfffffdfb
    24d8:	3b053c31 	blcc	1515a4 <_Min_Stack_Size+0x1511a4>
    24dc:	2117052e 	tstcs	r7, lr, lsr #10
    24e0:	053c2205 	ldreq	r2, [ip, #-517]!	@ 0xfffffdfb
    24e4:	3b053c31 	blcc	1515b0 <_Min_Stack_Size+0x1511b0>
    24e8:	2117052e 	tstcs	r7, lr, lsr #10
    24ec:	053c2205 	ldreq	r2, [ip, #-517]!	@ 0xfffffdfb
    24f0:	3b053c31 	blcc	1515bc <_Min_Stack_Size+0x1511bc>
    24f4:	2117052e 	tstcs	r7, lr, lsr #10
    24f8:	053c2205 	ldreq	r2, [ip, #-517]!	@ 0xfffffdfb
    24fc:	3b053c31 	blcc	1515c8 <_Min_Stack_Size+0x1511c8>
    2500:	2117052e 	tstcs	r7, lr, lsr #10
    2504:	053c2205 	ldreq	r2, [ip, #-517]!	@ 0xfffffdfb
    2508:	3b053c31 	blcc	1515d4 <_Min_Stack_Size+0x1511d4>
    250c:	2117052e 	tstcs	r7, lr, lsr #10
    2510:	053c2205 	ldreq	r2, [ip, #-517]!	@ 0xfffffdfb
    2514:	3b053c31 	blcc	1515e0 <_Min_Stack_Size+0x1511e0>
    2518:	2117052e 	tstcs	r7, lr, lsr #10
    251c:	053c2205 	ldreq	r2, [ip, #-517]!	@ 0xfffffdfb
    2520:	3b053c31 	blcc	1515ec <_Min_Stack_Size+0x1511ec>
    2524:	2117052e 	tstcs	r7, lr, lsr #10
    2528:	053c2205 	ldreq	r2, [ip, #-517]!	@ 0xfffffdfb
    252c:	3b053c31 	blcc	1515f8 <_Min_Stack_Size+0x1511f8>
    2530:	2118052e 	tstcs	r8, lr, lsr #10
    2534:	053c2305 	ldreq	r2, [ip, #-773]!	@ 0xfffffcfb
    2538:	3c053c32 	stccc	12, cr3, [r5], {50}	@ 0x32
    253c:	2118052e 	tstcs	r8, lr, lsr #10
    2540:	053c2305 	ldreq	r2, [ip, #-773]!	@ 0xfffffcfb
    2544:	3c053c32 	stccc	12, cr3, [r5], {50}	@ 0x32
    2548:	2118052e 	tstcs	r8, lr, lsr #10
    254c:	053c2305 	ldreq	r2, [ip, #-773]!	@ 0xfffffcfb
    2550:	3c053c32 	stccc	12, cr3, [r5], {50}	@ 0x32
    2554:	2118052e 	tstcs	r8, lr, lsr #10
    2558:	053c2305 	ldreq	r2, [ip, #-773]!	@ 0xfffffcfb
    255c:	3c053c32 	stccc	12, cr3, [r5], {50}	@ 0x32
    2560:	2117052e 	tstcs	r7, lr, lsr #10
    2564:	053c2205 	ldreq	r2, [ip, #-517]!	@ 0xfffffdfb
    2568:	3b053c31 	blcc	151634 <_Min_Stack_Size+0x151234>
    256c:	2117052e 	tstcs	r7, lr, lsr #10
    2570:	053c2205 	ldreq	r2, [ip, #-517]!	@ 0xfffffdfb
    2574:	3b053c31 	blcc	151640 <_Min_Stack_Size+0x151240>
    2578:	3d16052e 	cfldr32cc	mvfx0, [r6, #-184]	@ 0xffffff48
    257c:	053c2105 	ldreq	r2, [ip, #-261]!	@ 0xfffffefb
    2580:	3a053c30 	bcc	151648 <_Min_Stack_Size+0x151248>
    2584:	2116052e 	tstcs	r6, lr, lsr #10
    2588:	053c2105 	ldreq	r2, [ip, #-261]!	@ 0xfffffefb
    258c:	3a053c30 	bcc	151654 <_Min_Stack_Size+0x151254>
    2590:	2116052e 	tstcs	r6, lr, lsr #10
    2594:	053c2105 	ldreq	r2, [ip, #-261]!	@ 0xfffffefb
    2598:	3a053c30 	bcc	151660 <_Min_Stack_Size+0x151260>
    259c:	2116052e 	tstcs	r6, lr, lsr #10
    25a0:	053c2105 	ldreq	r2, [ip, #-261]!	@ 0xfffffefb
    25a4:	3a053c30 	bcc	15166c <_Min_Stack_Size+0x15126c>
    25a8:	2116052e 	tstcs	r6, lr, lsr #10
    25ac:	053c2105 	ldreq	r2, [ip, #-261]!	@ 0xfffffefb
    25b0:	3a053c30 	bcc	151678 <_Min_Stack_Size+0x151278>
    25b4:	2113052e 	tstcs	r3, lr, lsr #10
    25b8:	052e2705 	streq	r2, [lr, #-1797]!	@ 0xfffff8fb
    25bc:	20560303 	subscs	r0, r6, r3, lsl #6
    25c0:	2f030705 	svccs	0x00030705
    25c4:	30090520 	andcc	r0, r9, r0, lsr #10
    25c8:	02210105 	eoreq	r0, r1, #1073741825	@ 0x40000001
    25cc:	01010008 	tsteq	r1, r8
    25d0:	05000105 	streq	r0, [r0, #-261]	@ 0xfffffefb
    25d4:	00000002 	andeq	r0, r0, r2
    25d8:	02b10300 	adcseq	r0, r1, #0, 6
    25dc:	4b180501 	blmi	6039e8 <_Min_Stack_Size+0x6035e8>
    25e0:	05300405 	ldreq	r0, [r0, #-1029]!	@ 0xfffffbfb
    25e4:	16053e0f 	strne	r3, [r5], -pc, lsl #28
    25e8:	201c052e 	andscs	r0, ip, lr, lsr #10
    25ec:	052e0305 	streq	r0, [lr, #-773]!	@ 0xfffffcfb
    25f0:	08059412 	stmdaeq	r5, {r1, r4, sl, ip, pc}
    25f4:	2f04053d 	svccs	0x0004053d
    25f8:	05241205 	streq	r1, [r4, #-517]!	@ 0xfffffdfb
    25fc:	04053d08 	streq	r3, [r5], #-3336	@ 0xfffff2f8
    2600:	240c052f 	strcs	r0, [ip], #-1327	@ 0xfffffad1
    2604:	052e2205 	streq	r2, [lr, #-517]!	@ 0xfffffdfb
    2608:	1c052e06 	stcne	14, cr2, [r5], {6}
    260c:	2e230531 	mcrcs	5, 1, r0, cr3, cr1, {1}
    2610:	05202a05 	streq	r2, [r0, #-2565]!	@ 0xfffff5fb
    2614:	28052015 	stmdacs	r5, {r0, r2, r4, sp}
    2618:	4a13053d 	bmi	4c3b14 <_Min_Stack_Size+0x4c3714>
    261c:	052f0905 	streq	r0, [pc, #-2309]!	@ 1d1f <_Min_Stack_Size+0x191f>
    2620:	2e0d0304 	cdpcs	3, 0, cr0, cr13, cr4, {0}
    2624:	75031105 	strvc	r1, [r3, #-261]	@ 0xfffffefb
    2628:	2e180520 	cfmul64cs	mvdx0, mvdx8, mvdx0
    262c:	05201f05 	streq	r1, [r0, #-3845]!	@ 0xfffff0fb
    2630:	1c052e0b 	stcne	14, cr2, [r5], {11}
    2634:	2e230531 	mcrcs	5, 1, r0, cr3, cr1, {1}
    2638:	05202a05 	streq	r2, [r0, #-2565]!	@ 0xfffff5fb
    263c:	23052015 	movwcs	r2, #20501	@ 0x5015
    2640:	4a13053d 	bmi	4c3b3c <_Min_Stack_Size+0x4c373c>
    2644:	052f0905 	streq	r0, [pc, #-2309]!	@ 1d47 <_Min_Stack_Size+0x1947>
    2648:	09053404 	stmdbeq	r5, {r2, sl, ip, sp}
    264c:	3004051e 	andcc	r0, r4, lr, lsl r5
    2650:	05221105 	streq	r1, [r2, #-261]!	@ 0xfffffefb
    2654:	09054107 	stmdbeq	r5, {r0, r1, r2, r8, lr}
    2658:	21010530 	tstcs	r1, r0, lsr r5
    265c:	01000b02 	tsteq	r0, r2, lsl #22
    2660:	00010501 	andeq	r0, r1, r1, lsl #10
    2664:	00000205 	andeq	r0, r0, r5, lsl #4
    2668:	eb030000 	bl	c2670 <_Min_Stack_Size+0xc2270>
    266c:	18050102 	stmdane	r5, {r1, r8}
    2670:	3004054b 	andcc	r0, r4, fp, asr #10
    2674:	053f0905 	ldreq	r0, [pc, #-2309]!	@ 1d77 <_Min_Stack_Size+0x1977>
    2678:	3805751e 	stmdacc	r5, {r1, r2, r3, r4, r8, sl, ip, sp, lr}
    267c:	2e3f0520 	cfabs64cs	mvdx0, mvdx15
    2680:	05204505 	streq	r4, [r0, #-1285]!	@ 0xfffffafb
    2684:	1e052e32 	mcrne	14, 0, r2, cr5, cr2, {1}
    2688:	2e11052e 	cfmul64cs	mvdx0, mvdx1, mvdx14
    268c:	05400705 	strbeq	r0, [r0, #-1797]	@ 0xfffff8fb
    2690:	01053009 	tsteq	r5, r9
    2694:	00080221 	andeq	r0, r8, r1, lsr #4
    2698:	01050101 	tsteq	r5, r1, lsl #2
    269c:	00020500 	andeq	r0, r2, r0, lsl #10
    26a0:	03000000 	movweq	r0, #0
    26a4:	05010382 	streq	r0, [r1, #-898]	@ 0xfffffc7e
    26a8:	04054b18 	streq	r4, [r5], #-2840	@ 0xfffff4e8
    26ac:	3f090530 	svccc	0x00090530
    26b0:	05751e05 	ldrbeq	r1, [r5, #-3589]!	@ 0xfffff1fb
    26b4:	3f052038 	svccc	0x00052038
    26b8:	2045052e 	subcs	r0, r5, lr, lsr #10
    26bc:	052e3205 	streq	r3, [lr, #-517]!	@ 0xfffffdfb
    26c0:	11052e1e 	tstne	r5, lr, lsl lr
    26c4:	4007052e 	andmi	r0, r7, lr, lsr #10
    26c8:	05300905 	ldreq	r0, [r0, #-2309]!	@ 0xfffff6fb
    26cc:	08022101 	stmdaeq	r2, {r0, r8, sp}
    26d0:	05010100 	streq	r0, [r1, #-256]	@ 0xffffff00
    26d4:	02050001 	andeq	r0, r5, #1
    26d8:	00000000 	andeq	r0, r0, r0
    26dc:	01039903 	tsteq	r3, r3, lsl #18
    26e0:	054b1805 	strbeq	r1, [fp, #-2053]	@ 0xfffff7fb
    26e4:	09053004 	stmdbeq	r5, {r2, ip, sp}
    26e8:	751e053f 	ldrvc	r0, [lr, #-1343]	@ 0xfffffac1
    26ec:	05203805 	streq	r3, [r0, #-2053]!	@ 0xfffff7fb
    26f0:	46052e3f 			@ <UNDEFINED> instruction: 0x46052e3f
    26f4:	2e320520 	cfabs64cs	mvdx0, mvdx2
    26f8:	052e1e05 	streq	r1, [lr, #-3589]!	@ 0xfffff1fb
    26fc:	07052e11 	smladeq	r5, r1, lr, r2
    2700:	30090540 	andcc	r0, r9, r0, asr #10
    2704:	02210105 	eoreq	r0, r1, #1073741825	@ 0x40000001
    2708:	01010008 	tsteq	r1, r8
    270c:	0000055c 	andeq	r0, r0, ip, asr r5
    2710:	05040003 	streq	r0, [r4, #-3]
    2714:	01020000 	mrseq	r0, (UNDEF: 2)
    2718:	000d0efb 	strdeq	r0, [sp], -fp
    271c:	01010101 	tsteq	r1, r1, lsl #2
    2720:	01000000 	mrseq	r0, (UNDEF: 0)
    2724:	2e010000 	cdpcs	0, 0, cr0, cr1, cr0, {0}
    2728:	72532f2e 	subsvc	r2, r3, #46, 30	@ 0xb8
    272c:	3a430063 	bcc	10c28c0 <_Min_Stack_Size+0x10c24c0>
    2730:	5c54535c 	mrrcpl	3, 5, r5, r4, cr12
    2734:	334d5453 	movtcc	r5, #54355	@ 0xd453
    2738:	62754332 	rsbsvs	r4, r5, #-939524096	@ 0xc8000000
    273c:	45444965 	strbmi	r4, [r4, #-2405]	@ 0xfffff69b
    2740:	312e315f 			@ <UNDEFINED> instruction: 0x312e315f
    2744:	5c322e33 	ldcpl	14, cr2, [r2], #-204	@ 0xffffff34
    2748:	334d5453 	movtcc	r5, #54355	@ 0xd453
    274c:	62754332 	rsbsvs	r4, r5, #-939524096	@ 0xc8000000
    2750:	45444965 	strbmi	r4, [r4, #-2405]	@ 0xfffff69b
    2754:	756c705c 	strbvc	r7, [ip, #-92]!	@ 0xffffffa4
    2758:	736e6967 	cmnvc	lr, #1687552	@ 0x19c000
    275c:	6d6f635c 	stclvs	3, cr6, [pc, #-368]!	@ 25f4 <_Min_Stack_Size+0x21f4>
    2760:	2e74732e 	cdpcs	3, 7, cr7, cr4, cr14, {1}
    2764:	336d7473 	cmncc	sp, #1929379840	@ 0x73000000
    2768:	62756332 	rsbsvs	r6, r5, #-939524096	@ 0xc8000000
    276c:	64692e65 	strbtvs	r2, [r9], #-3685	@ 0xfffff19b
    2770:	636d2e65 	cmnvs	sp, #1616	@ 0x650
    2774:	78652e75 	stmdavc	r5!, {r0, r2, r4, r5, r6, r9, sl, fp, sp}^
    2778:	6e726574 	mrcvs	5, 3, r6, cr2, cr4, {3}
    277c:	6f746c61 	svcvs	0x00746c61
    2780:	2e736c6f 	cdpcs	12, 7, cr6, cr3, cr15, {3}
    2784:	2d756e67 	ldclcs	14, cr6, [r5, #-412]!	@ 0xfffffe64
    2788:	6c6f6f74 	stclvs	15, cr6, [pc], #-464	@ 25c0 <_Min_Stack_Size+0x21c0>
    278c:	6f662d73 	svcvs	0x00662d73
    2790:	74732d72 	ldrbtvc	r2, [r3], #-3442	@ 0xfffff28e
    2794:	2e32336d 	cdpcs	3, 3, cr3, cr2, cr13, {3}
    2798:	332e3231 			@ <UNDEFINED> instruction: 0x332e3231
    279c:	6c65722e 	sfmvs	f7, 2, [r5], #-184	@ 0xffffff48
    27a0:	69772e31 	ldmdbvs	r7!, {r0, r4, r5, r9, sl, fp, sp}^
    27a4:	5f32336e 	svcpl	0x0032336e
    27a8:	2e302e31 	mrccs	14, 1, r2, cr0, cr1, {1}
    27ac:	2e303031 	mrccs	0, 1, r3, cr0, cr1, {1}
    27b0:	34323032 	ldrtcc	r3, [r2], #-50	@ 0xffffffce
    27b4:	31313330 	teqcc	r1, r0, lsr r3
    27b8:	36353231 			@ <UNDEFINED> instruction: 0x36353231
    27bc:	6f6f745c 	svcvs	0x006f745c
    27c0:	625c736c 	subsvs	r7, ip, #108, 6	@ 0xb0000001
    27c4:	2e2f6e69 	cdpcs	14, 2, cr6, cr15, cr9, {3}
    27c8:	696c2f2e 	stmdbvs	ip!, {r1, r2, r3, r5, r8, r9, sl, fp, sp}^
    27cc:	63672f62 	cmnvs	r7, #392	@ 0x188
    27d0:	72612f63 	rsbvc	r2, r1, #396	@ 0x18c
    27d4:	6f6e2d6d 	svcvs	0x006e2d6d
    27d8:	652d656e 	strvs	r6, [sp, #-1390]!	@ 0xfffffa92
    27dc:	2f696261 	svccs	0x00696261
    27e0:	332e3231 			@ <UNDEFINED> instruction: 0x332e3231
    27e4:	2e2f312e 	sufcsep	f3, f7, #0.5
    27e8:	2e2e2f2e 	cdpcs	15, 2, cr2, cr14, cr14, {1}
    27ec:	2f2e2e2f 	svccs	0x002e2e2f
    27f0:	612f2e2e 			@ <UNDEFINED> instruction: 0x612f2e2e
    27f4:	6e2d6d72 	mcrvs	13, 1, r6, cr13, cr2, {3}
    27f8:	2d656e6f 	stclcs	14, cr6, [r5, #-444]!	@ 0xfffffe44
    27fc:	69626165 	stmdbvs	r2!, {r0, r2, r5, r6, r8, sp, lr}^
    2800:	636e692f 	cmnvs	lr, #770048	@ 0xbc000
    2804:	6564756c 	strbvs	r7, [r4, #-1388]!	@ 0xfffffa94
    2808:	63616d2f 	cmnvs	r1, #3008	@ 0xbc0
    280c:	656e6968 	strbvs	r6, [lr, #-2408]!	@ 0xfffff698
    2810:	5c3a4300 	ldcpl	3, cr4, [sl], #-0
    2814:	535c5453 	cmppl	ip, #1392508928	@ 0x53000000
    2818:	32334d54 	eorscc	r4, r3, #84, 26	@ 0x1500
    281c:	65627543 	strbvs	r7, [r2, #-1347]!	@ 0xfffffabd
    2820:	5f454449 	svcpl	0x00454449
    2824:	33312e31 	teqcc	r1, #784	@ 0x310
    2828:	535c322e 	cmppl	ip, #-536870910	@ 0xe0000002
    282c:	32334d54 	eorscc	r4, r3, #84, 26	@ 0x1500
    2830:	65627543 	strbvs	r7, [r2, #-1347]!	@ 0xfffffabd
    2834:	5c454449 	cfstrdpl	mvd4, [r5], {73}	@ 0x49
    2838:	67756c70 			@ <UNDEFINED> instruction: 0x67756c70
    283c:	5c736e69 	ldclpl	14, cr6, [r3], #-420	@ 0xfffffe5c
    2840:	2e6d6f63 	cdpcs	15, 6, cr6, cr13, cr3, {3}
    2844:	732e7473 			@ <UNDEFINED> instruction: 0x732e7473
    2848:	32336d74 	eorscc	r6, r3, #116, 26	@ 0x1d00
    284c:	65627563 	strbvs	r7, [r2, #-1379]!	@ 0xfffffa9d
    2850:	6564692e 	strbvs	r6, [r4, #-2350]!	@ 0xfffff6d2
    2854:	75636d2e 	strbvc	r6, [r3, #-3374]!	@ 0xfffff2d2
    2858:	7478652e 	ldrbtvc	r6, [r8], #-1326	@ 0xfffffad2
    285c:	616e7265 	cmnvs	lr, r5, ror #4
    2860:	6f6f746c 	svcvs	0x006f746c
    2864:	672e736c 	strvs	r7, [lr, -ip, ror #6]!
    2868:	742d756e 	strtvc	r7, [sp], #-1390	@ 0xfffffa92
    286c:	736c6f6f 	cmnvc	ip, #444	@ 0x1bc
    2870:	726f662d 	rsbvc	r6, pc, #47185920	@ 0x2d00000
    2874:	6d74732d 	ldclvs	3, cr7, [r4, #-180]!	@ 0xffffff4c
    2878:	312e3233 			@ <UNDEFINED> instruction: 0x312e3233
    287c:	2e332e32 	mrccs	14, 1, r2, cr3, cr2, {1}
    2880:	316c6572 	smccc	50770	@ 0xc652
    2884:	6e69772e 	cdpvs	7, 6, cr7, cr9, cr14, {1}
    2888:	315f3233 	cmpcc	pc, r3, lsr r2	@ <UNPREDICTABLE>
    288c:	312e302e 			@ <UNDEFINED> instruction: 0x312e302e
    2890:	322e3030 	eorcc	r3, lr, #48	@ 0x30
    2894:	30343230 	eorscc	r3, r4, r0, lsr r2
    2898:	31313133 	teqcc	r1, r3, lsr r1
    289c:	5c363532 	cfldr32pl	mvfx3, [r6], #-200	@ 0xffffff38
    28a0:	6c6f6f74 	stclvs	15, cr6, [pc], #-464	@ 26d8 <_Min_Stack_Size+0x22d8>
    28a4:	69625c73 	stmdbvs	r2!, {r0, r1, r4, r5, r6, sl, fp, ip, lr}^
    28a8:	2e2e2f6e 	cdpcs	15, 2, cr2, cr14, cr14, {3}
    28ac:	62696c2f 	rsbvs	r6, r9, #12032	@ 0x2f00
    28b0:	6363672f 	cmnvs	r3, #12320768	@ 0xbc0000
    28b4:	6d72612f 	ldfvse	f6, [r2, #-188]!	@ 0xffffff44
    28b8:	6e6f6e2d 	cdpvs	14, 6, cr6, cr15, cr13, {1}
    28bc:	61652d65 	cmnvs	r5, r5, ror #26
    28c0:	312f6962 			@ <UNDEFINED> instruction: 0x312f6962
    28c4:	2e332e32 	mrccs	14, 1, r2, cr3, cr2, {1}
    28c8:	2e2e2f31 	mcrcs	15, 1, r2, cr14, cr1, {1}
    28cc:	2f2e2e2f 	svccs	0x002e2e2f
    28d0:	2e2f2e2e 	cdpcs	14, 2, cr2, cr15, cr14, {1}
    28d4:	72612f2e 	rsbvc	r2, r1, #46, 30	@ 0xb8
    28d8:	6f6e2d6d 	svcvs	0x006e2d6d
    28dc:	652d656e 	strvs	r6, [sp, #-1390]!	@ 0xfffffa92
    28e0:	2f696261 	svccs	0x00696261
    28e4:	6c636e69 	stclvs	14, cr6, [r3], #-420	@ 0xfffffe5c
    28e8:	2f656475 	svccs	0x00656475
    28ec:	00737973 	rsbseq	r7, r3, r3, ror r9
    28f0:	452f3a44 	strmi	r3, [pc, #-2628]!	@ 1eb4 <_Min_Stack_Size+0x1ab4>
    28f4:	6465626d 	strbtvs	r6, [r5], #-621	@ 0xfffffd93
    28f8:	20646564 	rsbcs	r6, r4, r4, ror #10
    28fc:	74737953 	ldrbtvc	r7, [r3], #-2387	@ 0xfffff6ad
    2900:	44206d65 	strtmi	r6, [r0], #-3429	@ 0xfffff29b
    2904:	6f6c7069 	svcvs	0x006c7069
    2908:	4d2f616d 	stfmis	f6, [pc, #-436]!	@ 275c <_Min_Stack_Size+0x235c>
    290c:	72747361 	rsbsvc	r7, r4, #-2080374783	@ 0x84000001
    2910:	20676e69 	rsbcs	r6, r7, r9, ror #28
    2914:	65626d45 	strbvs	r6, [r2, #-3397]!	@ 0xfffff2bb
    2918:	64656464 	strbtvs	r6, [r5], #-1124	@ 0xfffffb9c
    291c:	73795320 	cmnvc	r9, #32, 6	@ 0x80000000
    2920:	206d6574 	rsbcs	r6, sp, r4, ror r5
    2924:	68746957 	ldmdavs	r4!, {r0, r1, r2, r4, r6, r8, fp, sp, lr}^
    2928:	532e4b20 			@ <UNDEFINED> instruction: 0x532e4b20
    292c:	5f31302f 	svcpl	0x0031302f
    2930:	436d7453 	cmnmi	sp, #1392508928	@ 0x53000000
    2934:	5f656275 	svcpl	0x00656275
    2938:	6b726f57 	blvs	1c9e69c <_Min_Stack_Size+0x1c9e29c>
    293c:	63617073 	cmnvs	r1, #115	@ 0x73
    2940:	39302f65 	ldmdbcc	r0!, {r0, r2, r5, r6, r8, r9, sl, fp, sp}
    2944:	3431555f 	ldrtcc	r5, [r1], #-1375	@ 0xfffffaa1
    2948:	3141334c 	cmpcc	r1, ip, asr #6
    294c:	6372532f 	cmnvs	r2, #-1140850688	@ 0xbc000000
    2950:	4954552f 	ldmdbmi	r4, {r0, r1, r2, r3, r5, r8, sl, ip, lr}^
    2954:	692f534c 	stmdbvs	pc!, {r2, r3, r6, r8, r9, ip, lr}	@ <UNPREDICTABLE>
    2958:	4400636e 	strmi	r6, [r0], #-878	@ 0xfffffc92
    295c:	6d452f3a 	stclvs	15, cr2, [r5, #-232]	@ 0xffffff18
    2960:	64646562 	strbtvs	r6, [r4], #-1378	@ 0xfffffa9e
    2964:	53206465 			@ <UNDEFINED> instruction: 0x53206465
    2968:	65747379 	ldrbvs	r7, [r4, #-889]!	@ 0xfffffc87
    296c:	6944206d 	stmdbvs	r4, {r0, r2, r3, r5, r6, sp}^
    2970:	6d6f6c70 	stclvs	12, cr6, [pc, #-448]!	@ 27b8 <_Min_Stack_Size+0x23b8>
    2974:	614d2f61 	cmpvs	sp, r1, ror #30
    2978:	69727473 	ldmdbvs	r2!, {r0, r1, r4, r5, r6, sl, ip, sp, lr}^
    297c:	4520676e 	strmi	r6, [r0, #-1902]!	@ 0xfffff892
    2980:	6465626d 	strbtvs	r6, [r5], #-621	@ 0xfffffd93
    2984:	20646564 	rsbcs	r6, r4, r4, ror #10
    2988:	74737953 	ldrbtvc	r7, [r3], #-2387	@ 0xfffff6ad
    298c:	57206d65 	strpl	r6, [r0, -r5, ror #26]!
    2990:	20687469 	rsbcs	r7, r8, r9, ror #8
    2994:	2f532e4b 	svccs	0x00532e4b
    2998:	535f3130 	cmppl	pc, #48, 2
    299c:	75436d74 	strbvc	r6, [r3, #-3444]	@ 0xfffff28c
    29a0:	575f6562 	ldrbpl	r6, [pc, -r2, ror #10]
    29a4:	736b726f 	cmnvc	fp, #-268435450	@ 0xf0000006
    29a8:	65636170 	strbvs	r6, [r3, #-368]!	@ 0xfffffe90
    29ac:	5f39302f 	svcpl	0x0039302f
    29b0:	4c343155 	ldfmis	f3, [r4], #-340	@ 0xfffffeac
    29b4:	2f314133 	svccs	0x00314133
    29b8:	2f637253 	svccs	0x00637253
    29bc:	4c41434d 	mcrrmi	3, 4, r4, r1, cr13
    29c0:	636e692f 	cmnvs	lr, #770048	@ 0xbc000
    29c4:	5c3a4300 	ldcpl	3, cr4, [sl], #-0
    29c8:	535c5453 	cmppl	ip, #1392508928	@ 0x53000000
    29cc:	32334d54 	eorscc	r4, r3, #84, 26	@ 0x1500
    29d0:	65627543 	strbvs	r7, [r2, #-1347]!	@ 0xfffffabd
    29d4:	5f454449 	svcpl	0x00454449
    29d8:	33312e31 	teqcc	r1, #784	@ 0x310
    29dc:	535c322e 	cmppl	ip, #-536870910	@ 0xe0000002
    29e0:	32334d54 	eorscc	r4, r3, #84, 26	@ 0x1500
    29e4:	65627543 	strbvs	r7, [r2, #-1347]!	@ 0xfffffabd
    29e8:	5c454449 	cfstrdpl	mvd4, [r5], {73}	@ 0x49
    29ec:	67756c70 			@ <UNDEFINED> instruction: 0x67756c70
    29f0:	5c736e69 	ldclpl	14, cr6, [r3], #-420	@ 0xfffffe5c
    29f4:	2e6d6f63 	cdpcs	15, 6, cr6, cr13, cr3, {3}
    29f8:	732e7473 			@ <UNDEFINED> instruction: 0x732e7473
    29fc:	32336d74 	eorscc	r6, r3, #116, 26	@ 0x1d00
    2a00:	65627563 	strbvs	r7, [r2, #-1379]!	@ 0xfffffa9d
    2a04:	6564692e 	strbvs	r6, [r4, #-2350]!	@ 0xfffff6d2
    2a08:	75636d2e 	strbvc	r6, [r3, #-3374]!	@ 0xfffff2d2
    2a0c:	7478652e 	ldrbtvc	r6, [r8], #-1326	@ 0xfffffad2
    2a10:	616e7265 	cmnvs	lr, r5, ror #4
    2a14:	6f6f746c 	svcvs	0x006f746c
    2a18:	672e736c 	strvs	r7, [lr, -ip, ror #6]!
    2a1c:	742d756e 	strtvc	r7, [sp], #-1390	@ 0xfffffa92
    2a20:	736c6f6f 	cmnvc	ip, #444	@ 0x1bc
    2a24:	726f662d 	rsbvc	r6, pc, #47185920	@ 0x2d00000
    2a28:	6d74732d 	ldclvs	3, cr7, [r4, #-180]!	@ 0xffffff4c
    2a2c:	312e3233 			@ <UNDEFINED> instruction: 0x312e3233
    2a30:	2e332e32 	mrccs	14, 1, r2, cr3, cr2, {1}
    2a34:	316c6572 	smccc	50770	@ 0xc652
    2a38:	6e69772e 	cdpvs	7, 6, cr7, cr9, cr14, {1}
    2a3c:	315f3233 	cmpcc	pc, r3, lsr r2	@ <UNPREDICTABLE>
    2a40:	312e302e 			@ <UNDEFINED> instruction: 0x312e302e
    2a44:	322e3030 	eorcc	r3, lr, #48	@ 0x30
    2a48:	30343230 	eorscc	r3, r4, r0, lsr r2
    2a4c:	31313133 	teqcc	r1, r3, lsr r1
    2a50:	5c363532 	cfldr32pl	mvfx3, [r6], #-200	@ 0xffffff38
    2a54:	6c6f6f74 	stclvs	15, cr6, [pc], #-464	@ 288c <_Min_Stack_Size+0x248c>
    2a58:	69625c73 	stmdbvs	r2!, {r0, r1, r4, r5, r6, sl, fp, ip, lr}^
    2a5c:	2e2e2f6e 	cdpcs	15, 2, cr2, cr14, cr14, {3}
    2a60:	62696c2f 	rsbvs	r6, r9, #12032	@ 0x2f00
    2a64:	6363672f 	cmnvs	r3, #12320768	@ 0xbc0000
    2a68:	6d72612f 	ldfvse	f6, [r2, #-188]!	@ 0xffffff44
    2a6c:	6e6f6e2d 	cdpvs	14, 6, cr6, cr15, cr13, {1}
    2a70:	61652d65 	cmnvs	r5, r5, ror #26
    2a74:	312f6962 			@ <UNDEFINED> instruction: 0x312f6962
    2a78:	2e332e32 	mrccs	14, 1, r2, cr3, cr2, {1}
    2a7c:	6e692f31 	mcrvs	15, 3, r2, cr9, cr1, {1}
    2a80:	64756c63 	ldrbtvs	r6, [r5], #-3171	@ 0xfffff39d
    2a84:	3a430065 	bcc	10c2c20 <_Min_Stack_Size+0x10c2820>
    2a88:	5c54535c 	mrrcpl	3, 5, r5, r4, cr12
    2a8c:	334d5453 	movtcc	r5, #54355	@ 0xd453
    2a90:	62754332 	rsbsvs	r4, r5, #-939524096	@ 0xc8000000
    2a94:	45444965 	strbmi	r4, [r4, #-2405]	@ 0xfffff69b
    2a98:	312e315f 			@ <UNDEFINED> instruction: 0x312e315f
    2a9c:	5c322e33 	ldcpl	14, cr2, [r2], #-204	@ 0xffffff34
    2aa0:	334d5453 	movtcc	r5, #54355	@ 0xd453
    2aa4:	62754332 	rsbsvs	r4, r5, #-939524096	@ 0xc8000000
    2aa8:	45444965 	strbmi	r4, [r4, #-2405]	@ 0xfffff69b
    2aac:	756c705c 	strbvc	r7, [ip, #-92]!	@ 0xffffffa4
    2ab0:	736e6967 	cmnvc	lr, #1687552	@ 0x19c000
    2ab4:	6d6f635c 	stclvs	3, cr6, [pc, #-368]!	@ 294c <_Min_Stack_Size+0x254c>
    2ab8:	2e74732e 	cdpcs	3, 7, cr7, cr4, cr14, {1}
    2abc:	336d7473 	cmncc	sp, #1929379840	@ 0x73000000
    2ac0:	62756332 	rsbsvs	r6, r5, #-939524096	@ 0xc8000000
    2ac4:	64692e65 	strbtvs	r2, [r9], #-3685	@ 0xfffff19b
    2ac8:	636d2e65 	cmnvs	sp, #1616	@ 0x650
    2acc:	78652e75 	stmdavc	r5!, {r0, r2, r4, r5, r6, r9, sl, fp, sp}^
    2ad0:	6e726574 	mrcvs	5, 3, r6, cr2, cr4, {3}
    2ad4:	6f746c61 	svcvs	0x00746c61
    2ad8:	2e736c6f 	cdpcs	12, 7, cr6, cr3, cr15, {3}
    2adc:	2d756e67 	ldclcs	14, cr6, [r5, #-412]!	@ 0xfffffe64
    2ae0:	6c6f6f74 	stclvs	15, cr6, [pc], #-464	@ 2918 <_Min_Stack_Size+0x2518>
    2ae4:	6f662d73 	svcvs	0x00662d73
    2ae8:	74732d72 	ldrbtvc	r2, [r3], #-3442	@ 0xfffff28e
    2aec:	2e32336d 	cdpcs	3, 3, cr3, cr2, cr13, {3}
    2af0:	332e3231 			@ <UNDEFINED> instruction: 0x332e3231
    2af4:	6c65722e 	sfmvs	f7, 2, [r5], #-184	@ 0xffffff48
    2af8:	69772e31 	ldmdbvs	r7!, {r0, r4, r5, r9, sl, fp, sp}^
    2afc:	5f32336e 	svcpl	0x0032336e
    2b00:	2e302e31 	mrccs	14, 1, r2, cr0, cr1, {1}
    2b04:	2e303031 	mrccs	0, 1, r3, cr0, cr1, {1}
    2b08:	34323032 	ldrtcc	r3, [r2], #-50	@ 0xffffffce
    2b0c:	31313330 	teqcc	r1, r0, lsr r3
    2b10:	36353231 			@ <UNDEFINED> instruction: 0x36353231
    2b14:	6f6f745c 	svcvs	0x006f745c
    2b18:	625c736c 	subsvs	r7, ip, #108, 6	@ 0xb0000001
    2b1c:	2e2f6e69 	cdpcs	14, 2, cr6, cr15, cr9, {3}
    2b20:	696c2f2e 	stmdbvs	ip!, {r1, r2, r3, r5, r8, r9, sl, fp, sp}^
    2b24:	63672f62 	cmnvs	r7, #392	@ 0x188
    2b28:	72612f63 	rsbvc	r2, r1, #396	@ 0x18c
    2b2c:	6f6e2d6d 	svcvs	0x006e2d6d
    2b30:	652d656e 	strvs	r6, [sp, #-1390]!	@ 0xfffffa92
    2b34:	2f696261 	svccs	0x00696261
    2b38:	332e3231 			@ <UNDEFINED> instruction: 0x332e3231
    2b3c:	2e2f312e 	sufcsep	f3, f7, #0.5
    2b40:	2e2e2f2e 	cdpcs	15, 2, cr2, cr14, cr14, {1}
    2b44:	2f2e2e2f 	svccs	0x002e2e2f
    2b48:	612f2e2e 			@ <UNDEFINED> instruction: 0x612f2e2e
    2b4c:	6e2d6d72 	mcrvs	13, 1, r6, cr13, cr2, {3}
    2b50:	2d656e6f 	stclcs	14, cr6, [r5, #-444]!	@ 0xfffffe44
    2b54:	69626165 	stmdbvs	r2!, {r0, r2, r5, r6, r8, sp, lr}^
    2b58:	636e692f 	cmnvs	lr, #770048	@ 0xbc000
    2b5c:	6564756c 	strbvs	r7, [r4, #-1388]!	@ 0xfffffa94
    2b60:	616d0000 	cmnvs	sp, r0
    2b64:	632e6e69 			@ <UNDEFINED> instruction: 0x632e6e69
    2b68:	00000100 	andeq	r0, r0, r0, lsl #2
    2b6c:	6665645f 			@ <UNDEFINED> instruction: 0x6665645f
    2b70:	746c7561 	strbtvc	r7, [ip], #-1377	@ 0xfffffa9f
    2b74:	7079745f 	rsbsvc	r7, r9, pc, asr r4
    2b78:	682e7365 	stmdavs	lr!, {r0, r2, r5, r6, r8, r9, ip, sp, lr}
    2b7c:	00000200 	andeq	r0, r0, r0, lsl #4
    2b80:	6474735f 	ldrbtvs	r7, [r4], #-863	@ 0xfffffca1
    2b84:	2e746e69 	cdpcs	14, 7, cr6, cr4, cr9, {3}
    2b88:	00030068 	andeq	r0, r3, r8, rrx
    2b8c:	6d6f6300 	stclvs	3, cr6, [pc, #-0]	@ 2b94 <_Min_Stack_Size+0x2794>
    2b90:	2e6e6f6d 	cdpcs	15, 6, cr6, cr14, cr13, {3}
    2b94:	00040068 	andeq	r0, r4, r8, rrx
    2b98:	6d747300 	ldclvs	3, cr7, [r4, #-0]
    2b9c:	31663233 	cmncc	r6, r3, lsr r2
    2ba0:	36783330 			@ <UNDEFINED> instruction: 0x36783330
    2ba4:	0400682e 	streq	r6, [r0], #-2094	@ 0xfffff7d2
    2ba8:	50470000 	subpl	r0, r7, r0
    2bac:	682e4f49 	stmdavs	lr!, {r0, r3, r6, r8, r9, sl, fp, lr}
    2bb0:	00000500 	andeq	r0, r0, r0, lsl #10
    2bb4:	2e434352 	mcrcs	3, 2, r4, cr3, cr2, {2}
    2bb8:	00050068 	andeq	r0, r5, r8, rrx
    2bbc:	54584500 	ldrbpl	r4, [r8], #-1280	@ 0xfffffb00
    2bc0:	00682e49 	rsbeq	r2, r8, r9, asr #28
    2bc4:	73000005 	movwvc	r0, #5
    2bc8:	6e696474 	mcrvs	4, 3, r6, cr9, cr4, {3}
    2bcc:	00682e74 	rsbeq	r2, r8, r4, ror lr
    2bd0:	73000006 	movwvc	r0, #6
    2bd4:	6e696474 	mcrvs	4, 3, r6, cr9, cr4, {3}
    2bd8:	00682e74 	rsbeq	r2, r8, r4, ror lr
    2bdc:	66000007 	strvs	r0, [r0], -r7
    2be0:	75746165 	ldrbvc	r6, [r4, #-357]!	@ 0xfffffe9b
    2be4:	2e736572 	mrccs	5, 3, r6, cr3, cr2, {3}
    2be8:	00030068 	andeq	r0, r3, r8, rrx
    2bec:	656e5f00 	strbvs	r5, [lr, #-3840]!	@ 0xfffff100
    2bf0:	62696c77 	rsbvs	r6, r9, #30464	@ 0x7700
    2bf4:	7265765f 	rsbvc	r7, r5, #99614720	@ 0x5f00000
    2bf8:	6e6f6973 			@ <UNDEFINED> instruction: 0x6e6f6973
    2bfc:	0700682e 	streq	r6, [r0, -lr, lsr #16]
    2c00:	695f0000 	ldmdbvs	pc, {}^	@ <UNPREDICTABLE>
    2c04:	7573746e 	ldrbvc	r7, [r3, #-1134]!	@ 0xfffffb92
    2c08:	00682e70 	rsbeq	r2, r8, r0, ror lr
    2c0c:	4e000003 	cdpmi	0, 0, cr0, cr0, cr3, {0}
    2c10:	2e434956 			@ <UNDEFINED> instruction: 0x2e434956
    2c14:	00050068 	andeq	r0, r5, r8, rrx
    2c18:	01050000 	mrseq	r0, (UNDEF: 5)
    2c1c:	8c020500 	cfstr32hi	mvfx0, [r2], {-0}
    2c20:	0308000f 	movweq	r0, #32783	@ 0x800f
    2c24:	0a050113 	beq	143078 <_Min_Stack_Size+0x142c78>
    2c28:	3e02052f 	cfsh32cc	mvfx0, mvfx2, #31
    2c2c:	024c0105 	subeq	r0, ip, #1073741825	@ 0x40000001
    2c30:	01010009 	tsteq	r1, r9
    2c34:	05000105 	streq	r0, [r0, #-261]	@ 0xfffffefb
    2c38:	000fb002 	andeq	fp, pc, r2
    2c3c:	01210308 			@ <UNDEFINED> instruction: 0x01210308
    2c40:	673e0205 	ldrvs	r0, [lr, -r5, lsl #4]!
    2c44:	441d053d 	ldrmi	r0, [sp], #-1341	@ 0xfffffac3
    2c48:	2f2f1605 	svccs	0x002f1605
    2c4c:	6702052f 	strvs	r0, [r2, -pc, lsr #10]
    2c50:	3f4c3f5b 	svccc	0x004c3f5b
    2c54:	3f773f3f 	svccc	0x00773f3f
    2c58:	054f3f78 	strbeq	r3, [pc, #-3960]	@ 1ce8 <_Min_Stack_Size+0x18e8>
    2c5c:	05054006 	streq	r4, [r5, #-6]
    2c60:	2f0c052e 	svccs	0x000c052e
    2c64:	023b0505 	eorseq	r0, fp, #20971520	@ 0x1400000
    2c68:	01010010 	tsteq	r1, r0, lsl r0
    2c6c:	00000080 	andeq	r0, r0, r0, lsl #1
    2c70:	00390003 	eorseq	r0, r9, r3
    2c74:	01020000 	mrseq	r0, (UNDEF: 2)
    2c78:	000d0efb 	strdeq	r0, [sp], -fp
    2c7c:	01010101 	tsteq	r1, r1, lsl #2
    2c80:	01000000 	mrseq	r0, (UNDEF: 0)
    2c84:	2e010000 	cdpcs	0, 0, cr0, cr1, cr0, {0}
    2c88:	74532f2e 	ldrbvc	r2, [r3], #-3886	@ 0xfffff0d2
    2c8c:	75747261 	ldrbvc	r7, [r4, #-609]!	@ 0xfffffd9f
    2c90:	73000070 	movwvc	r0, #112	@ 0x70
    2c94:	74726174 	ldrbtvc	r6, [r2], #-372	@ 0xfffffe8c
    2c98:	735f7075 	cmpvc	pc, #117	@ 0x75
    2c9c:	32336d74 	eorscc	r6, r3, #116, 26	@ 0x1d00
    2ca0:	33303166 	teqcc	r0, #-2147483623	@ 0x80000019
    2ca4:	78743863 	ldmdavc	r4!, {r0, r1, r5, r6, fp, ip, sp}^
    2ca8:	0100732e 	tsteq	r0, lr, lsr #6
    2cac:	00000000 	andeq	r0, r0, r0
    2cb0:	10740205 	rsbsne	r0, r4, r5, lsl #4
    2cb4:	39030800 	stmdbcc	r3, {fp}
    2cb8:	31222101 			@ <UNDEFINED> instruction: 0x31222101
    2cbc:	21212121 			@ <UNDEFINED> instruction: 0x21212121
    2cc0:	23212123 			@ <UNDEFINED> instruction: 0x23212123
    2cc4:	21232121 			@ <UNDEFINED> instruction: 0x21232121
    2cc8:	21232121 			@ <UNDEFINED> instruction: 0x21232121
    2ccc:	30232123 	eorcc	r2, r3, r3, lsr #2
    2cd0:	20560331 	subscs	r0, r6, r1, lsr r3
    2cd4:	032f2f34 			@ <UNDEFINED> instruction: 0x032f2f34
    2cd8:	022f2e0f 	eoreq	r2, pc, #15, 28	@ 0xf0
    2cdc:	01010002 	tsteq	r1, r2
    2ce0:	c4020500 	strgt	r0, [r2], #-1280	@ 0xfffffb00
    2ce4:	03080010 	movweq	r0, #32784	@ 0x8010
    2ce8:	020100f2 	andeq	r0, r1, #242	@ 0xf2
    2cec:	01010001 	tsteq	r1, r1

Disassembly of section .debug_str:

00000000 <.debug_str>:
       0:	544e4957 	strbpl	r4, [lr], #-2391	@ 0xfffff6a9
       4:	4e494d5f 	mcrmi	13, 2, r4, cr9, cr15, {2}
       8:	5f5f2820 	svcpl	0x005f2820
       c:	544e4957 	strbpl	r4, [lr], #-2391	@ 0xfffff6a9
      10:	4e494d5f 	mcrmi	13, 2, r4, cr9, cr15, {2}
      14:	00295f5f 	eoreq	r5, r9, pc, asr pc
      18:	45445f5f 	strbmi	r5, [r4, #-3935]	@ 0xfffff0a1
      1c:	414d4943 	cmpmi	sp, r3, asr #18
      20:	49445f4c 	stmdbmi	r4, {r2, r3, r6, r8, r9, sl, fp, ip, lr}^
      24:	205f5f47 	subscs	r5, pc, r7, asr #30
      28:	5f003731 	svcpl	0x00003731
      2c:	4148555f 	cmpmi	r8, pc, asr r5
      30:	4942465f 	stmdbmi	r2, {r0, r1, r2, r3, r4, r6, r9, sl, lr}^
      34:	205f5f54 	subscs	r5, pc, r4, asr pc	@ <UNPREDICTABLE>
      38:	5f5f0038 	svcpl	0x005f0038
      3c:	44495653 	strbmi	r5, [r9], #-1619	@ 0xfffff9ad
      40:	5349565f 	movtpl	r5, #38495	@ 0x965f
      44:	454c4249 	strbmi	r4, [ip, #-585]	@ 0xfffffdb7
      48:	5f003120 	svcpl	0x00003120
      4c:	746e695f 	strbtvc	r6, [lr], #-2399	@ 0xfffff6a1
      50:	2b203032 	blcs	80c120 <_Min_Stack_Size+0x80bd20>
      54:	5f5f0032 	svcpl	0x005f0032
      58:	36544c46 	ldrbcc	r4, [r4], -r6, asr #24
      5c:	45445f34 	strbmi	r5, [r4, #-3892]	@ 0xfffff0cc
      60:	4d524f4e 	ldclmi	15, cr4, [r2, #-312]	@ 0xfffffec8
      64:	4e494d5f 	mcrmi	13, 2, r4, cr9, cr15, {2}
      68:	34205f5f 	strtcc	r5, [r0], #-3935	@ 0xfffff0a1
      6c:	3034392e 	eorscc	r3, r4, lr, lsr #18
      70:	34363536 	ldrtcc	r3, [r6], #-1334	@ 0xfffffaca
      74:	31343835 	teqcc	r4, r5, lsr r8
      78:	35363432 	ldrcc	r3, [r6, #-1074]!	@ 0xfffffbce
      7c:	332d6534 			@ <UNDEFINED> instruction: 0x332d6534
      80:	36463432 			@ <UNDEFINED> instruction: 0x36463432
      84:	32490034 	subcc	r0, r9, #52	@ 0x34
      88:	52435f43 	subpl	r5, r3, #268	@ 0x10c
      8c:	45505f31 	ldrbmi	r5, [r0, #-3889]	@ 0xfffff0cf
      90:	734d5f43 	movtvc	r5, #57155	@ 0xdf43
      94:	3028206b 	eorcc	r2, r8, fp, rrx
      98:	4c553178 	ldfmie	f3, [r5], {120}	@ 0x78
      9c:	203c3c20 	eorscs	r3, ip, r0, lsr #24
      a0:	5f433249 	svcpl	0x00433249
      a4:	5f315243 	svcpl	0x00315243
      a8:	5f434550 	svcpl	0x00434550
      ac:	29736f50 	ldmdbcs	r3!, {r4, r6, r8, r9, sl, fp, sp, lr}^
      b0:	475f5f00 	ldrbmi	r5, [pc, -r0, lsl #30]
      b4:	415f4343 	cmpmi	pc, r3, asr #6
      b8:	494d4f54 	stmdbmi	sp, {r2, r4, r6, r8, r9, sl, fp, lr}^
      bc:	43575f43 	cmpmi	r7, #268	@ 0x10c
      c0:	5f524148 	svcpl	0x00524148
      c4:	4f4c5f54 	svcmi	0x004c5f54
      c8:	465f4b43 	ldrbmi	r4, [pc], -r3, asr #22
      cc:	20454552 	subcs	r4, r5, r2, asr r5
      d0:	5f5f0032 	svcpl	0x005f0032
      d4:	52414843 	subpl	r4, r1, #4390912	@ 0x430000
      d8:	534e555f 	movtpl	r5, #58719	@ 0xe55f
      dc:	454e4749 	strbmi	r4, [lr, #-1865]	@ 0xfffff8b7
      e0:	205f5f44 	subscs	r5, pc, r4, asr #30
      e4:	5f5f0031 	svcpl	0x005f0031
      e8:	36544c46 	ldrbcc	r4, [r4], -r6, asr #24
      ec:	41485f34 	cmpmi	r8, r4, lsr pc
      f0:	4e495f53 	mcrmi	15, 2, r5, cr9, cr3, {2}
      f4:	494e4946 	stmdbmi	lr, {r1, r2, r6, r8, fp, lr}^
      f8:	5f5f5954 	svcpl	0x005f5954
      fc:	4d003120 	stfmis	f3, [r0, #-128]	@ 0xffffff80
     100:	49545845 	ldmdbmi	r4, {r0, r2, r6, fp, ip, lr}^
     104:	6464755f 	strbtvs	r7, [r4], #-1375	@ 0xfffffaa1
     108:	69704774 	ldmdbvs	r0!, {r2, r4, r5, r6, r8, r9, sl, lr}^
     10c:	6e69506f 	cdpvs	0, 6, cr5, cr9, cr15, {3}
     110:	5f00745f 	svcpl	0x0000745f
     114:	414c4c5f 	cmpmi	ip, pc, asr ip
     118:	4d554343 	ldclmi	3, cr4, [r5, #-268]	@ 0xfffffef4
     11c:	4e494d5f 	mcrmi	13, 2, r4, cr9, cr15, {2}
     120:	28205f5f 	stmdacs	r0!, {r0, r1, r2, r3, r4, r6, r8, r9, sl, fp, ip, lr}
     124:	3158302d 	cmpcc	r8, sp, lsr #32
     128:	4c313350 	ldcmi	3, cr3, [r1], #-320	@ 0xfffffec0
     12c:	302d4b4c 	eorcc	r4, sp, ip, asr #22
     130:	33503158 	cmpcc	r0, #88, 2
     134:	4b4c4c31 	blmi	1313200 <_Min_Stack_Size+0x1312e00>
     138:	5f5f0029 	svcpl	0x005f0029
     13c:	5f514855 	svcpl	0x00514855
     140:	54494246 	strbpl	r4, [r9], #-582	@ 0xfffffdba
     144:	31205f5f 			@ <UNDEFINED> instruction: 0x31205f5f
     148:	5f5f0036 	svcpl	0x005f0036
     14c:	4343414c 	movtmi	r4, #12620	@ 0x314c
     150:	455f4d55 	ldrbmi	r4, [pc, #-3413]	@ fffff403 <_estack+0xdfffa403>
     154:	4c495350 	mcrrmi	3, 5, r5, r9, cr0
     158:	5f5f4e4f 	svcpl	0x005f4e4f
     15c:	31783020 	cmncc	r8, r0, lsr #32
     160:	31332d50 	teqcc	r3, r0, asr sp
     164:	5f004b4c 	svcpl	0x00004b4c
     168:	5254505f 	subspl	r5, r4, #95	@ 0x5f
     16c:	46464944 	strbmi	r4, [r6], -r4, asr #18
     170:	58414d5f 	stmdapl	r1, {r0, r1, r2, r3, r4, r6, r8, sl, fp, lr}^
     174:	30205f5f 	eorcc	r5, r0, pc, asr pc
     178:	66663778 			@ <UNDEFINED> instruction: 0x66663778
     17c:	66666666 	strbtvs	r6, [r6], -r6, ror #12
     180:	58450066 	stmdapl	r5, {r1, r2, r5, r6}^
     184:	50334954 	eorspl	r4, r3, r4, asr r9
     188:	28203343 	stmdacs	r0!, {r0, r1, r6, r8, r9, ip, sp}
     18c:	5458454d 	ldrbpl	r4, [r8], #-1357	@ 0xfffffab3
     190:	64755f49 	ldrbtvs	r5, [r5], #-3913	@ 0xfffff0b7
     194:	70477464 	subvc	r7, r7, r4, ror #8
     198:	69506f69 	ldmdbvs	r0, {r0, r3, r5, r6, r8, r9, sl, fp, sp, lr}^
     19c:	29745f6e 	ldmdbcs	r4!, {r1, r2, r3, r5, r6, r8, r9, sl, fp, ip, lr}^
     1a0:	58454d7b 	stmdapl	r5, {r0, r1, r3, r4, r5, r6, r8, sl, fp, lr}^
     1a4:	4c5f4954 	mrrcmi	9, 5, r4, pc, cr4	@ <UNPREDICTABLE>
     1a8:	33454e49 	movtcc	r4, #24137	@ 0x5e49
     1ac:	5047202c 	subpl	r2, r7, ip, lsr #32
     1b0:	2c434f49 	mcrrcs	15, 4, r4, r3, cr9
     1b4:	50474d20 	subpl	r4, r7, r0, lsr #26
     1b8:	505f4f49 	subspl	r4, pc, r9, asr #30
     1bc:	2c334e49 	ldccs	14, cr4, [r3], #-292	@ 0xfffffedc
     1c0:	564e4d20 	strbpl	r4, [lr], -r0, lsr #26
     1c4:	455f4349 	ldrbmi	r4, [pc, #-841]	@ fffffe83 <_estack+0xdfffae83>
     1c8:	33495458 	movtcc	r5, #37976	@ 0x9458
     1cc:	5152495f 	cmppl	r2, pc, asr r9
     1d0:	5f5f007d 	svcpl	0x005f007d
     1d4:	4d544e49 	ldclmi	14, cr4, [r4, #-292]	@ 0xfffffedc
     1d8:	435f5841 	cmpmi	pc, #4259840	@ 0x410000
     1dc:	20296328 	eorcs	r6, r9, r8, lsr #6
     1e0:	23232063 			@ <UNDEFINED> instruction: 0x23232063
     1e4:	004c4c20 	subeq	r4, ip, r0, lsr #24
     1e8:	4e49555f 	mcrmi	5, 2, r5, cr9, cr15, {2}
     1ec:	5f323354 	svcpl	0x00323354
     1f0:	45445f54 	strbmi	r5, [r4, #-3924]	@ 0xfffff0ac
     1f4:	52414c43 	subpl	r4, r1, #17152	@ 0x4300
     1f8:	00204445 	eoreq	r4, r0, r5, asr #8
     1fc:	4e495f5f 	mcrmi	15, 2, r5, cr9, cr15, {2}
     200:	58414d54 	stmdapl	r1, {r2, r4, r6, r8, sl, fp, lr}^
     204:	58414d5f 	stmdapl	r1, {r0, r1, r2, r3, r4, r6, r8, sl, fp, lr}^
     208:	30205f5f 	eorcc	r5, r0, pc, asr pc
     20c:	66663778 			@ <UNDEFINED> instruction: 0x66663778
     210:	66666666 	strbtvs	r6, [r6], -r6, ror #12
     214:	66666666 	strbtvs	r6, [r6], -r6, ror #12
     218:	66666666 	strbtvs	r6, [r6], -r6, ror #12
     21c:	004c4c66 	subeq	r4, ip, r6, ror #24
     220:	49564e4d 	ldmdbmi	r6, {r0, r2, r3, r6, r9, sl, fp, lr}^
     224:	49545f43 	ldmdbmi	r4, {r0, r1, r6, r8, r9, sl, fp, ip, lr}^
     228:	435f384d 	cmpmi	pc, #5046272	@ 0x4d0000
     22c:	52495f43 	subpl	r5, r9, #268	@ 0x10c
     230:	36342051 			@ <UNDEFINED> instruction: 0x36342051
     234:	564e4d00 	strbpl	r4, [lr], -r0, lsl #26
     238:	525f4349 	subspl	r4, pc, #603979777	@ 0x24000001
     23c:	495f4343 	ldmdbmi	pc, {r0, r1, r6, r8, r9, lr}^	@ <UNPREDICTABLE>
     240:	35205152 	strcc	r5, [r0, #-338]!	@ 0xfffffeae
     244:	545f5f00 	ldrbpl	r5, [pc], #-3840	@ 24c <_Min_Heap_Size+0x4c>
     248:	42495f51 	submi	r5, r9, #324	@ 0x144
     24c:	5f5f5449 	svcpl	0x005f5449
     250:	5f003020 	svcpl	0x00003020
     254:	544c465f 	strbpl	r4, [ip], #-1631	@ 0xfffff9a1
     258:	445f3436 	ldrbmi	r3, [pc], #-1078	@ 260 <_Min_Heap_Size+0x60>
     25c:	4d494345 	stclmi	3, cr4, [r9, #-276]	@ 0xfffffeec
     260:	445f4c41 	ldrbmi	r4, [pc], #-3137	@ 268 <_Min_Heap_Size+0x68>
     264:	5f5f4749 	svcpl	0x005f4749
     268:	00373120 	eorseq	r3, r7, r0, lsr #2
     26c:	444c5f5f 	strbmi	r5, [ip], #-3935	@ 0xfffff0a1
     270:	4d5f4c42 	ldclmi	12, cr4, [pc, #-264]	@ 170 <_Min_Heap_Size-0x90>
     274:	5f5f4e49 	svcpl	0x005f4e49
     278:	322e3220 	eorcc	r3, lr, #32, 4
     27c:	37303532 			@ <UNDEFINED> instruction: 0x37303532
     280:	38353833 	ldmdacc	r5!, {r0, r1, r4, r5, fp, ip, sp}
     284:	32373035 	eorscc	r3, r7, #53	@ 0x35
     288:	65343130 	ldrvs	r3, [r4, #-304]!	@ 0xfffffed0
     28c:	3830332d 	ldmdacc	r0!, {r0, r2, r3, r5, r8, r9, ip, sp}
     290:	3249004c 	subcc	r0, r9, #76	@ 0x4c
     294:	52435f43 	subpl	r5, r3, #268	@ 0x10c
     298:	4c415f31 	mcrrmi	15, 3, r5, r1, cr1
     29c:	5f545245 	svcpl	0x00545245
     2a0:	206b734d 	rsbcs	r7, fp, sp, asr #6
     2a4:	31783028 	cmncc	r8, r8, lsr #32
     2a8:	3c204c55 	stccc	12, cr4, [r0], #-340	@ 0xfffffeac
     2ac:	3249203c 	subcc	r2, r9, #60	@ 0x3c
     2b0:	52435f43 	subpl	r5, r3, #268	@ 0x10c
     2b4:	4c415f31 	mcrrmi	15, 3, r5, r1, cr1
     2b8:	5f545245 	svcpl	0x00545245
     2bc:	29736f50 	ldmdbcs	r3!, {r4, r6, r8, r9, sl, fp, sp, lr}^
     2c0:	415f5f00 	cmpmi	pc, r0, lsl #30
     2c4:	494d4f54 	stmdbmi	sp, {r2, r4, r6, r8, r9, sl, fp, lr}^
     2c8:	4f435f43 	svcmi	0x00435f43
     2cc:	4d55534e 	ldclmi	3, cr5, [r5, #-312]	@ 0xfffffec8
     2d0:	00312045 	eorseq	r2, r1, r5, asr #32
     2d4:	4c555f5f 	mrrcmi	15, 5, r5, r5, cr15	@ <UNPREDICTABLE>
     2d8:	55434341 	strbpl	r4, [r3, #-833]	@ 0xfffffcbf
     2dc:	42465f4d 	submi	r5, r6, #308	@ 0x134
     2e0:	5f5f5449 	svcpl	0x005f5449
     2e4:	00323320 	eorseq	r3, r2, r0, lsr #6
     2e8:	43575f5f 	cmpmi	r7, #380	@ 0x17c
     2ec:	5f524148 	svcpl	0x00524148
     2f0:	5f58414d 	svcpl	0x0058414d
     2f4:	7830205f 	ldmdavc	r0!, {r0, r1, r2, r3, r4, r6, sp}
     2f8:	66666666 	strbtvs	r6, [r6], -r6, ror #12
     2fc:	66666666 	strbtvs	r6, [r6], -r6, ror #12
     300:	4f430055 	svcmi	0x00430055
     304:	4e4f4d4d 	cdpmi	13, 4, cr4, cr15, cr13, {2}
     308:	6464755f 	strbtvs	r7, [r4], #-1375	@ 0xfffffaa1
     30c:	69704174 	ldmdbvs	r0!, {r2, r4, r5, r6, r8, lr}^
     310:	74617453 	strbtvc	r7, [r1], #-1107	@ 0xfffffbad
     314:	00745f65 	rsbseq	r5, r4, r5, ror #30
     318:	49564e4d 	ldmdbmi	r6, {r0, r2, r3, r6, r9, sl, fp, lr}^
     31c:	41435f43 	cmpmi	r3, r3, asr #30
     320:	43535f4e 	cmpmi	r3, #312	@ 0x138
     324:	52495f45 	subpl	r5, r9, #276	@ 0x114
     328:	32322051 	eorscc	r2, r2, #81	@ 0x51
     32c:	695f5f00 	ldmdbvs	pc, {r8, r9, sl, fp, ip, lr}^	@ <UNPREDICTABLE>
     330:	3032746e 	eorscc	r7, r2, lr, ror #8
     334:	4d005f5f 	stcmi	15, cr5, [r0, #-380]	@ 0xfffffe84
     338:	4f495047 	svcmi	0x00495047
     33c:	54554f5f 	ldrbpl	r4, [r5], #-3935	@ 0xfffff0a1
     340:	5f545550 	svcpl	0x00545550
     344:	4d5f444f 	cfldrdmi	mvd4, [pc, #-316]	@ 210 <_Min_Heap_Size+0x10>
     348:	0045444f 	subeq	r4, r5, pc, asr #8
     34c:	5f433249 	svcpl	0x00433249
     350:	5f325253 	svcpl	0x00325253
     354:	20415254 	subcs	r5, r1, r4, asr r2
     358:	5f433249 	svcpl	0x00433249
     35c:	5f325253 	svcpl	0x00325253
     360:	5f415254 	svcpl	0x00415254
     364:	006b734d 	rsbeq	r7, fp, sp, asr #6
     368:	49535f5f 	ldmdbmi	r3, {r0, r1, r2, r3, r4, r6, r8, r9, sl, fp, ip, lr}^
     36c:	464f455a 			@ <UNDEFINED> instruction: 0x464f455a
     370:	4e4f4c5f 	mcrmi	12, 2, r4, cr15, cr15, {2}
     374:	4f4c5f47 	svcmi	0x004c5f47
     378:	5f5f474e 	svcpl	0x005f474e
     37c:	5f003820 	svcpl	0x00003820
     380:	4c42445f 	cfstrdmi	mvd4, [r2], {95}	@ 0x5f
     384:	58414d5f 	stmdapl	r1, {r0, r1, r2, r3, r4, r6, r8, sl, fp, lr}^
     388:	5f30315f 	svcpl	0x0030315f
     38c:	5f505845 	svcpl	0x00505845
     390:	3033205f 	eorscc	r2, r3, pc, asr r0
     394:	5f5f0038 	svcpl	0x005f0038
     398:	36544c46 	ldrbcc	r4, [r4], -r6, asr #24
     39c:	414d5f34 	cmpmi	sp, r4, lsr pc
     3a0:	445f544e 	ldrbmi	r5, [pc], #-1102	@ 3a8 <_Min_Heap_Size+0x1a8>
     3a4:	5f5f4749 	svcpl	0x005f4749
     3a8:	00333520 	eorseq	r3, r3, r0, lsr #10
     3ac:	52465f5f 	subpl	r5, r6, #380	@ 0x17c
     3b0:	5f544341 	svcpl	0x00544341
     3b4:	5f4e494d 	svcpl	0x004e494d
     3b8:	2d28205f 	stccs	0, cr2, [r8, #-380]!	@ 0xfffffe84
     3bc:	52352e30 	eorspl	r2, r5, #48, 28	@ 0x300
     3c0:	352e302d 	strcc	r3, [lr, #-45]!	@ 0xffffffd3
     3c4:	5f002952 	svcpl	0x00002952
     3c8:	534f505f 	movtpl	r5, #61535	@ 0xf05f
     3cc:	565f5849 	ldrbpl	r5, [pc], -r9, asr #16
     3d0:	42495349 	submi	r5, r9, #603979777	@ 0x24000001
     3d4:	3220454c 	eorcc	r4, r0, #76, 10	@ 0x13000000
     3d8:	30383030 	eorscc	r3, r8, r0, lsr r0
     3dc:	43520039 	cmpmi	r2, #57	@ 0x39
     3e0:	28282043 	stmdacs	r8!, {r0, r1, r6, sp}
     3e4:	5f434352 	svcpl	0x00434352
     3e8:	69676572 	stmdbvs	r7!, {r1, r4, r5, r6, r8, sl, sp, lr}^
     3ec:	72657473 	rsbvc	r7, r5, #1929379840	@ 0x73000000
     3f0:	5f70614d 	svcpl	0x0070614d
     3f4:	52292a74 	eorpl	r2, r9, #116, 20	@ 0x74000
     3f8:	425f4343 	subsmi	r4, pc, #201326593	@ 0xc000001
     3fc:	29455341 	stmdbcs	r5, {r0, r6, r8, r9, ip, lr}^
     400:	43324900 	teqmi	r2, #0, 18
     404:	3152435f 	cmpcc	r2, pc, asr r3
     408:	534f505f 	movtpl	r5, #61535	@ 0xf05f
     40c:	43324920 	teqmi	r2, #32, 18	@ 0x80000
     410:	3152435f 	cmpcc	r2, pc, asr r3
     414:	534f505f 	movtpl	r5, #61535	@ 0xf05f
     418:	6b734d5f 	blvs	1cd399c <_Min_Stack_Size+0x1cd359c>
     41c:	555f5f00 	ldrbpl	r5, [pc, #-3840]	@ fffff524 <_estack+0xdfffa524>
     420:	43434153 	movtmi	r4, #12627	@ 0x3153
     424:	4d5f4d55 	ldclmi	13, cr4, [pc, #-340]	@ 2d8 <_Min_Heap_Size+0xd8>
     428:	5f5f5841 	svcpl	0x005f5841
     42c:	46583020 	ldrbmi	r3, [r8], -r0, lsr #32
     430:	50464646 	subpl	r4, r6, r6, asr #12
     434:	4855382d 	ldmdami	r5, {r0, r2, r3, r5, fp, ip, sp}^
     438:	5f5f004b 	svcpl	0x005f004b
     43c:	41524653 	cmpmi	r2, r3, asr r6
     440:	465f5443 	ldrbmi	r5, [pc], -r3, asr #8
     444:	5f544942 	svcpl	0x00544942
     448:	0037205f 	eorseq	r2, r7, pc, asr r0
     44c:	4e495f5f 	mcrmi	15, 2, r5, cr9, cr15, {2}
     450:	58414d54 	stmdapl	r1, {r2, r4, r6, r8, sl, fp, lr}^
     454:	4449575f 	strbmi	r5, [r9], #-1887	@ 0xfffff8a1
     458:	5f5f4854 	svcpl	0x005f4854
     45c:	00343620 	eorseq	r3, r4, r0, lsr #12
     460:	52415f5f 	subpl	r5, r1, #380	@ 0x17c
     464:	45465f4d 	strbmi	r5, [r6, #-3917]	@ 0xfffff0b3
     468:	52555441 	subspl	r5, r5, #1090519040	@ 0x41000000
     46c:	46425f45 	strbmi	r5, [r2], -r5, asr #30
     470:	535f3631 	cmppl	pc, #51380224	@ 0x3100000
     474:	414c4143 	cmpmi	ip, r3, asr #2
     478:	52415f52 	subpl	r5, r1, #328	@ 0x148
     47c:	4d485449 	cfstrdmi	mvd5, [r8, #-292]	@ 0xfffffedc
     480:	43495445 	movtmi	r5, #37957	@ 0x9445
     484:	535f5f00 	cmppl	pc, #0, 30
     488:	42495f51 	submi	r5, r9, #324	@ 0x144
     48c:	5f5f5449 	svcpl	0x005f5449
     490:	5f003020 	svcpl	0x00003020
     494:	44524f5f 	ldrbmi	r4, [r2], #-3935	@ 0xfffff0a1
     498:	505f5245 	subspl	r5, pc, r5, asr #4
     49c:	455f5044 	ldrbmi	r5, [pc, #-68]	@ 460 <_Min_Stack_Size+0x60>
     4a0:	4149444e 	cmpmi	r9, lr, asr #8
     4a4:	205f5f4e 	subscs	r5, pc, lr, asr #30
     4a8:	32313433 	eorscc	r3, r1, #855638016	@ 0x33000000
     4ac:	53544600 	cmppl	r4, #0, 12
     4b0:	49550052 	ldmdbmi	r5, {r1, r4, r6}^
     4b4:	465f544e 	ldrbmi	r5, [pc], -lr, asr #8
     4b8:	33545341 	cmpcc	r4, #67108865	@ 0x4000001
     4bc:	414d5f32 	cmpmi	sp, r2, lsr pc
     4c0:	5f282058 	svcpl	0x00282058
     4c4:	4e49555f 	mcrmi	5, 2, r5, cr9, cr15, {2}
     4c8:	41465f54 	cmpmi	r6, r4, asr pc
     4cc:	32335453 	eorscc	r5, r3, #1392508928	@ 0x53000000
     4d0:	58414d5f 	stmdapl	r1, {r0, r1, r2, r3, r4, r6, r8, sl, fp, lr}^
     4d4:	00295f5f 	eoreq	r5, r9, pc, asr pc
     4d8:	4e495f5f 	mcrmi	15, 2, r5, cr9, cr15, {2}
     4dc:	545f3854 	ldrbpl	r3, [pc], #-2132	@ 4e4 <_Min_Stack_Size+0xe4>
     4e0:	5f455059 	svcpl	0x00455059
     4e4:	6973205f 	ldmdbvs	r3!, {r0, r1, r2, r3, r4, r6, sp}^
     4e8:	64656e67 	strbtvs	r6, [r5], #-3687	@ 0xfffff199
     4ec:	61686320 	cmnvs	r8, r0, lsr #6
     4f0:	5f5f0072 	svcpl	0x005f0072
     4f4:	5f4d5241 	svcpl	0x004d5241
     4f8:	48435241 	stmdami	r3, {r0, r6, r9, ip, lr}^
     4fc:	4f52505f 	svcmi	0x0052505f
     500:	454c4946 	strbmi	r4, [ip, #-2374]	@ 0xfffff6ba
     504:	00373720 	eorseq	r3, r7, r0, lsr #14
     508:	5f433249 	svcpl	0x00433249
     50c:	5f315253 	svcpl	0x00315253
     510:	41424d53 	cmpmi	r2, r3, asr sp
     514:	5452454c 	ldrbpl	r4, [r2], #-1356	@ 0xfffffab4
     518:	6b734d5f 	blvs	1cd3a9c <_Min_Stack_Size+0x1cd369c>
     51c:	78302820 	ldmdavc	r0!, {r5, fp, sp}
     520:	204c5531 	subcs	r5, ip, r1, lsr r5
     524:	49203c3c 	stmdbmi	r0!, {r2, r3, r4, r5, sl, fp, ip, sp}
     528:	535f4332 	cmppl	pc, #-939524096	@ 0xc8000000
     52c:	535f3152 	cmppl	pc, #-2147483628	@ 0x80000014
     530:	4c41424d 	sfmmi	f4, 2, [r1], {77}	@ 0x4d
     534:	5f545245 	svcpl	0x00545245
     538:	29736f50 	ldmdbcs	r3!, {r4, r6, r8, r9, sl, fp, sp, lr}^
     53c:	555f5f00 	ldrbpl	r5, [pc, #-3840]	@ fffff644 <_estack+0xdfffa644>
     540:	43434153 	movtmi	r4, #12627	@ 0x3153
     544:	4d5f4d55 	ldclmi	13, cr4, [pc, #-340]	@ 3f8 <_Min_Heap_Size+0x1f8>
     548:	5f5f4e49 	svcpl	0x005f4e49
     54c:	302e3020 	eorcc	r3, lr, r0, lsr #32
     550:	004b4855 	subeq	r4, fp, r5, asr r8
     554:	4c465f5f 	mcrrmi	15, 5, r5, r6, cr15
     558:	5f323354 	svcpl	0x00323354
     55c:	49434544 	stmdbmi	r3, {r2, r6, r8, sl, lr}^
     560:	5f4c414d 	svcpl	0x004c414d
     564:	5f474944 	svcpl	0x00474944
     568:	0039205f 	eorseq	r2, r9, pc, asr r0
     56c:	43475f5f 	movtmi	r5, #32607	@ 0x7f5f
     570:	54415f43 	strbpl	r5, [r1], #-3907	@ 0xfffff0bd
     574:	43494d4f 	movtmi	r4, #40271	@ 0x9d4f
     578:	4f4c4c5f 	svcmi	0x004c4c5f
     57c:	4c5f474e 	mrrcmi	7, 4, r4, pc, cr14	@ <UNPREDICTABLE>
     580:	5f4b434f 	svcpl	0x004b434f
     584:	45455246 	strbmi	r5, [r5, #-582]	@ 0xfffffdba
     588:	5f003120 	svcpl	0x00003120
     58c:	42444c5f 	submi	r4, r4, #24320	@ 0x5f00
     590:	494d5f4c 	stmdbmi	sp, {r2, r3, r6, r8, r9, sl, fp, ip, lr}^
     594:	58455f4e 	stmdapl	r5, {r1, r2, r3, r6, r8, r9, sl, fp, ip, lr}^
     598:	205f5f50 	subscs	r5, pc, r0, asr pc	@ <UNPREDICTABLE>
     59c:	30312d28 	eorscc	r2, r1, r8, lsr #26
     5a0:	00293132 	eoreq	r3, r9, r2, lsr r1
     5a4:	31433249 	cmpcc	r3, r9, asr #4
     5a8:	49282820 	stmdbmi	r8!, {r5, fp, sp}
     5ac:	725f4332 	subsvc	r4, pc, #-939524096	@ 0xc8000000
     5b0:	73696765 	cmnvc	r9, #26476544	@ 0x1940000
     5b4:	4d726574 	cfldr64mi	mvdx6, [r2, #-464]!	@ 0xfffffe30
     5b8:	745f7061 	ldrbvc	r7, [pc], #-97	@ 5c0 <_Min_Stack_Size+0x1c0>
     5bc:	3249292a 	subcc	r2, r9, #688128	@ 0xa8000
     5c0:	425f3143 	subsmi	r3, pc, #-1073741808	@ 0xc0000010
     5c4:	29455341 	stmdbcs	r5, {r0, r6, r8, r9, ip, lr}^
     5c8:	4c5f5f00 	mrrcmi	15, 0, r5, pc, cr0	@ <UNPREDICTABLE>
     5cc:	5f4c4244 	svcpl	0x004c4244
     5d0:	544e414d 	strbpl	r4, [lr], #-333	@ 0xfffffeb3
     5d4:	4749445f 	smlsldmi	r4, r9, pc, r4	@ <UNPREDICTABLE>
     5d8:	35205f5f 	strcc	r5, [r0, #-3935]!	@ 0xfffff0a1
     5dc:	5f5f0033 	svcpl	0x005f0033
     5e0:	544e4955 	strbpl	r4, [lr], #-2389	@ 0xfffff6ab
     5e4:	28435f38 	stmdacs	r3, {r3, r4, r5, r8, r9, sl, fp, ip, lr}^
     5e8:	63202963 			@ <UNDEFINED> instruction: 0x63202963
     5ec:	495f5f00 	ldmdbmi	pc, {r8, r9, sl, fp, ip, lr}^	@ <UNPREDICTABLE>
     5f0:	3631544e 	ldrtcc	r5, [r1], -lr, asr #8
     5f4:	5059545f 	subspl	r5, r9, pc, asr r4
     5f8:	205f5f45 	subscs	r5, pc, r5, asr #30
     5fc:	726f6873 	rsbvc	r6, pc, #7536640	@ 0x730000
     600:	6e692074 	mcrvs	0, 3, r2, cr9, cr4, {3}
     604:	46410074 			@ <UNDEFINED> instruction: 0x46410074
     608:	28204f49 	stmdacs	r0!, {r0, r3, r6, r8, r9, sl, fp, lr}
     60c:	49464128 	stmdbmi	r6, {r3, r5, r8, lr}^
     610:	65725f4f 	ldrbvs	r5, [r2, #-3919]!	@ 0xfffff0b1
     614:	74736967 	ldrbtvc	r6, [r3], #-2407	@ 0xfffff699
     618:	614d7265 	cmpvs	sp, r5, ror #4
     61c:	2a745f70 	bcs	1d183e4 <_Min_Stack_Size+0x1d17fe4>
     620:	49464129 	stmdbmi	r6, {r0, r3, r5, r8, lr}^
     624:	41425f4f 	cmpmi	r2, pc, asr #30
     628:	00294553 	eoreq	r4, r9, r3, asr r5
     62c:	49564e4d 	ldmdbmi	r6, {r0, r2, r3, r6, r9, sl, fp, lr}^
     630:	64755f43 	ldrbtvs	r5, [r5], #-3907	@ 0xfffff0bd
     634:	6e457464 	cdpvs	4, 4, cr7, cr5, cr4, {3}
     638:	656c6261 	strbvs	r6, [ip, #-609]!	@ 0xfffffd9f
     63c:	00515249 	subseq	r5, r1, r9, asr #4
     640:	4c465f5f 	mcrrmi	15, 5, r5, r6, cr15
     644:	5f343654 	svcpl	0x00343654
     648:	5f58414d 	svcpl	0x0058414d
     64c:	2e31205f 	mrccs	0, 1, r2, cr1, cr15, {2}
     650:	36373937 			@ <UNDEFINED> instruction: 0x36373937
     654:	33313339 	teqcc	r1, #-469762048	@ 0xe4000000
     658:	32363834 	eorscc	r3, r6, #52, 16	@ 0x340000
     65c:	37353133 			@ <UNDEFINED> instruction: 0x37353133
     660:	30332b65 	eorscc	r2, r3, r5, ror #22
     664:	34364638 	ldrtcc	r4, [r6], #-1592	@ 0xfffff9c8
     668:	43324900 	teqmi	r2, #0, 18
     66c:	3152435f 	cmpcc	r2, pc, asr r3
     670:	424d535f 	submi	r5, sp, #2080374785	@ 0x7c000001
     674:	45505954 	ldrbmi	r5, [r0, #-2388]	@ 0xfffff6ac
     678:	6b734d5f 	blvs	1cd3bfc <_Min_Stack_Size+0x1cd37fc>
     67c:	78302820 	ldmdavc	r0!, {r5, fp, sp}
     680:	204c5531 	subcs	r5, ip, r1, lsr r5
     684:	49203c3c 	stmdbmi	r0!, {r2, r3, r4, r5, sl, fp, ip, sp}
     688:	435f4332 	cmpmi	pc, #-939524096	@ 0xc8000000
     68c:	535f3152 	cmppl	pc, #-2147483628	@ 0x80000014
     690:	5954424d 	ldmdbpl	r4, {r0, r2, r3, r6, r9, lr}^
     694:	505f4550 	subspl	r4, pc, r0, asr r5	@ <UNPREDICTABLE>
     698:	0029736f 	eoreq	r7, r9, pc, ror #6
     69c:	49545845 	ldmdbmi	r4, {r0, r2, r6, fp, ip, lr}^
     6a0:	41503431 	cmpmi	r0, r1, lsr r4
     6a4:	28203431 	stmdacs	r0!, {r0, r4, r5, sl, ip, sp}
     6a8:	5458454d 	ldrbpl	r4, [r8], #-1357	@ 0xfffffab3
     6ac:	64755f49 	ldrbtvs	r5, [r5], #-3913	@ 0xfffff0b7
     6b0:	70477464 	subvc	r7, r7, r4, ror #8
     6b4:	69506f69 	ldmdbvs	r0, {r0, r3, r5, r6, r8, r9, sl, fp, sp, lr}^
     6b8:	29745f6e 	ldmdbcs	r4!, {r1, r2, r3, r5, r6, r8, r9, sl, fp, ip, lr}^
     6bc:	58454d7b 	stmdapl	r5, {r0, r1, r3, r4, r5, r6, r8, sl, fp, lr}^
     6c0:	4c5f4954 	mrrcmi	9, 5, r4, pc, cr4	@ <UNPREDICTABLE>
     6c4:	31454e49 	cmpcc	r5, r9, asr #28
     6c8:	47202c34 			@ <UNDEFINED> instruction: 0x47202c34
     6cc:	414f4950 	cmpmi	pc, r0, asr r9	@ <UNPREDICTABLE>
     6d0:	474d202c 	strbmi	r2, [sp, -ip, lsr #32]
     6d4:	5f4f4950 	svcpl	0x004f4950
     6d8:	314e4950 	cmpcc	lr, r0, asr r9
     6dc:	4d202c34 	stcmi	12, cr2, [r0, #-208]!	@ 0xffffff30
     6e0:	4349564e 	movtmi	r5, #38478	@ 0x964e
     6e4:	5458455f 	ldrbpl	r4, [r8], #-1375	@ 0xfffffaa1
     6e8:	5f353149 	svcpl	0x00353149
     6ec:	495f3031 	ldmdbmi	pc, {r0, r4, r5, ip, sp}^	@ <UNPREDICTABLE>
     6f0:	007d5152 	rsbseq	r5, sp, r2, asr r1
     6f4:	49564e4d 	ldmdbmi	r6, {r0, r2, r3, r6, r9, sl, fp, lr}^
     6f8:	53555f43 	cmppl	r5, #268	@ 0x10c
     6fc:	33545241 	cmpcc	r4, #268435460	@ 0x10000004
     700:	5152495f 	cmppl	r2, pc, asr r9
     704:	00393320 	eorseq	r3, r9, r0, lsr #6
     708:	5f433249 	svcpl	0x00433249
     70c:	5f315253 	svcpl	0x00315253
     710:	5f455854 	svcpl	0x00455854
     714:	206b734d 	rsbcs	r7, fp, sp, asr #6
     718:	31783028 	cmncc	r8, r8, lsr #32
     71c:	3c204c55 	stccc	12, cr4, [r0], #-340	@ 0xfffffeac
     720:	3249203c 	subcc	r2, r9, #60	@ 0x3c
     724:	52535f43 	subspl	r5, r3, #268	@ 0x10c
     728:	58545f31 	ldmdapl	r4, {r0, r4, r5, r8, r9, sl, fp, ip, lr}^
     72c:	6f505f45 	svcvs	0x00505f45
     730:	45002973 	strmi	r2, [r0, #-2419]	@ 0xfffff68d
     734:	31495458 	cmpcc	r9, r8, asr r4
     738:	31425035 	cmpcc	r2, r5, lsr r0
     73c:	4d282035 	stcmi	0, cr2, [r8, #-212]!	@ 0xffffff2c
     740:	49545845 	ldmdbmi	r4, {r0, r2, r6, fp, ip, lr}^
     744:	6464755f 	strbtvs	r7, [r4], #-1375	@ 0xfffffaa1
     748:	69704774 	ldmdbvs	r0!, {r2, r4, r5, r6, r8, r9, sl, lr}^
     74c:	6e69506f 	cdpvs	0, 6, cr5, cr9, cr15, {3}
     750:	7b29745f 	blvc	a5d8d4 <_Min_Stack_Size+0xa5d4d4>
     754:	5458454d 	ldrbpl	r4, [r8], #-1357	@ 0xfffffab3
     758:	494c5f49 	stmdbmi	ip, {r0, r3, r6, r8, r9, sl, fp, ip, lr}^
     75c:	3531454e 	ldrcc	r4, [r1, #-1358]!	@ 0xfffffab2
     760:	5047202c 	subpl	r2, r7, ip, lsr #32
     764:	2c424f49 	mcrrcs	15, 4, r4, r2, cr9
     768:	50474d20 	subpl	r4, r7, r0, lsr #26
     76c:	505f4f49 	subspl	r4, pc, r9, asr #30
     770:	35314e49 	ldrcc	r4, [r1, #-3657]!	@ 0xfffff1b7
     774:	4e4d202c 	cdpmi	0, 4, cr2, cr13, cr12, {1}
     778:	5f434956 	svcpl	0x00434956
     77c:	49545845 	ldmdbmi	r4, {r0, r2, r6, fp, ip, lr}^
     780:	315f3531 	cmpcc	pc, r1, lsr r5	@ <UNPREDICTABLE>
     784:	52495f30 	subpl	r5, r9, #48, 30	@ 0xc0
     788:	49007d51 	stmdbmi	r0, {r0, r4, r6, r8, sl, fp, ip, sp, lr}
     78c:	45505f53 	ldrbmi	r5, [r0, #-3923]	@ 0xfffff0ad
     790:	4e49444e 	cdpmi	4, 4, cr4, cr9, cr14, {2}
     794:	00312047 	eorseq	r2, r1, r7, asr #32
     798:	4e495f5f 	mcrmi	15, 2, r5, cr9, cr15, {2}
     79c:	22203854 	eorcs	r3, r0, #84, 16	@ 0x540000
     7a0:	00226868 	eoreq	r6, r2, r8, ror #16
     7a4:	5f433249 	svcpl	0x00433249
     7a8:	5f315243 	svcpl	0x00315243
     7ac:	55424d53 	strbpl	r4, [r2, #-3411]	@ 0xfffff2ad
     7b0:	734d5f53 	movtvc	r5, #57171	@ 0xdf53
     7b4:	3028206b 	eorcc	r2, r8, fp, rrx
     7b8:	4c553178 	ldfmie	f3, [r5], {120}	@ 0x78
     7bc:	203c3c20 	eorscs	r3, ip, r0, lsr #24
     7c0:	5f433249 	svcpl	0x00433249
     7c4:	5f315243 	svcpl	0x00315243
     7c8:	55424d53 	strbpl	r4, [r2, #-3411]	@ 0xfffff2ad
     7cc:	6f505f53 	svcvs	0x00505f53
     7d0:	5f002973 	svcpl	0x00002973
     7d4:	4343475f 	movtmi	r4, #14175	@ 0x375f
     7d8:	5641485f 			@ <UNDEFINED> instruction: 0x5641485f
     7dc:	59535f45 	ldmdbpl	r3, {r0, r2, r6, r8, r9, sl, fp, ip, lr}^
     7e0:	435f434e 	cmpmi	pc, #939524097	@ 0x38000001
     7e4:	41504d4f 	cmpmi	r0, pc, asr #26
     7e8:	415f4552 	cmpmi	pc, r2, asr r5	@ <UNPREDICTABLE>
     7ec:	535f444e 	cmppl	pc, #1308622848	@ 0x4e000000
     7f0:	5f504157 	svcpl	0x00504157
     7f4:	00312031 	eorseq	r2, r1, r1, lsr r0
     7f8:	5f544e49 	svcpl	0x00544e49
     7fc:	5341454c 	movtpl	r4, #5452	@ 0x154c
     800:	5f363154 	svcpl	0x00363154
     804:	2058414d 	subscs	r4, r8, sp, asr #2
     808:	495f5f28 	ldmdbmi	pc, {r3, r5, r8, r9, sl, fp, ip, lr}^	@ <UNPREDICTABLE>
     80c:	4c5f544e 	cfldrdmi	mvd5, [pc], {78}	@ 0x4e
     810:	54534145 	ldrbpl	r4, [r3], #-325	@ 0xfffffebb
     814:	4d5f3631 	ldclmi	6, cr3, [pc, #-196]	@ 758 <_Min_Stack_Size+0x358>
     818:	5f5f5841 	svcpl	0x005f5841
     81c:	4e490029 	cdpmi	0, 4, cr0, cr9, cr9, {1}
     820:	41465f54 	cmpmi	r6, r4, asr pc
     824:	36315453 			@ <UNDEFINED> instruction: 0x36315453
     828:	58414d5f 	stmdapl	r1, {r0, r1, r2, r3, r4, r6, r8, sl, fp, lr}^
     82c:	5f5f2820 	svcpl	0x005f2820
     830:	5f544e49 	svcpl	0x00544e49
     834:	54534146 	ldrbpl	r4, [r3], #-326	@ 0xfffffeba
     838:	4d5f3631 	ldclmi	6, cr3, [pc, #-196]	@ 77c <_Min_Stack_Size+0x37c>
     83c:	5f5f5841 	svcpl	0x005f5841
     840:	5f5f0029 	svcpl	0x005f0029
     844:	464c4c55 			@ <UNDEFINED> instruction: 0x464c4c55
     848:	54434152 	strbpl	r4, [r3], #-338	@ 0xfffffeae
     84c:	4942465f 	stmdbmi	r2, {r0, r1, r2, r3, r4, r6, r9, sl, lr}^
     850:	205f5f54 	subscs	r5, pc, r4, asr pc	@ <UNPREDICTABLE>
     854:	5f003436 	svcpl	0x00003436
     858:	4749535f 	smlsldmi	r5, r9, pc, r3	@ <UNPREDICTABLE>
     85c:	4f54415f 	svcmi	0x0054415f
     860:	5f43494d 	svcpl	0x0043494d
     864:	45505954 	ldrbmi	r5, [r0, #-2388]	@ 0xfffff6ac
     868:	69205f5f 	stmdbvs	r0!, {r0, r1, r2, r3, r4, r6, r8, r9, sl, fp, ip, lr}
     86c:	4900746e 	stmdbmi	r0, {r1, r2, r3, r5, r6, sl, ip, sp, lr}
     870:	535f4332 	cmppl	pc, #-939524096	@ 0xc8000000
     874:	425f3152 	subsmi	r3, pc, #-2147483628	@ 0x80000014
     878:	505f4654 	subspl	r4, pc, r4, asr r6	@ <UNPREDICTABLE>
     87c:	2820736f 	stmdacs	r0!, {r0, r1, r2, r3, r5, r6, r8, r9, ip, sp, lr}
     880:	00295532 	eoreq	r5, r9, r2, lsr r5
     884:	4e495f5f 	mcrmi	15, 2, r5, cr9, cr15, {2}
     888:	41465f54 	cmpmi	r6, r4, asr pc
     88c:	34365453 	ldrtcc	r5, [r6], #-1107	@ 0xfffffbad
     890:	5059545f 	subspl	r5, r9, pc, asr r4
     894:	205f5f45 	subscs	r5, pc, r5, asr #30
     898:	676e6f6c 	strbvs	r6, [lr, -ip, ror #30]!
     89c:	6e6f6c20 	cdpvs	12, 6, cr6, cr15, cr0, {1}
     8a0:	6e692067 	cdpvs	0, 6, cr2, cr9, cr7, {3}
     8a4:	5f5f0074 	svcpl	0x005f0074
     8a8:	5f4d5241 	svcpl	0x004d5241
     8ac:	54414546 	strbpl	r4, [r1], #-1350	@ 0xfffffaba
     8b0:	5f455255 	svcpl	0x00455255
     8b4:	52504f43 	subspl	r4, r0, #268	@ 0x10c
     8b8:	3120434f 			@ <UNDEFINED> instruction: 0x3120434f
     8bc:	4e490035 	mcrmi	0, 2, r0, cr9, cr5, {1}
     8c0:	4d5f3854 	ldclmi	8, cr3, [pc, #-336]	@ 778 <_Min_Stack_Size+0x378>
     8c4:	28205841 	stmdacs	r0!, {r0, r6, fp, ip, lr}
     8c8:	4e495f5f 	mcrmi	15, 2, r5, cr9, cr15, {2}
     8cc:	4d5f3854 	ldclmi	8, cr3, [pc, #-336]	@ 784 <_Min_Stack_Size+0x384>
     8d0:	5f5f5841 	svcpl	0x005f5841
     8d4:	32490029 	subcc	r0, r9, #41	@ 0x29
     8d8:	52435f43 	subpl	r5, r3, #268	@ 0x10c
     8dc:	414c5f32 	cmpmi	ip, r2, lsr pc
     8e0:	49205453 	stmdbmi	r0!, {r0, r1, r4, r6, sl, ip, lr}
     8e4:	435f4332 	cmpmi	pc, #-939524096	@ 0xc8000000
     8e8:	4c5f3252 	lfmmi	f3, 2, [pc], {82}	@ 0x52
     8ec:	5f545341 	svcpl	0x00545341
     8f0:	006b734d 	rsbeq	r7, fp, sp, asr #6
     8f4:	49564e4d 	ldmdbmi	r6, {r0, r2, r3, r6, r9, sl, fp, lr}^
     8f8:	58455f43 	stmdapl	r5, {r0, r1, r6, r8, r9, sl, fp, ip, lr}^
     8fc:	5f304954 	svcpl	0x00304954
     900:	20515249 	subscs	r5, r1, r9, asr #4
     904:	54500036 	ldrbpl	r0, [r0], #-54	@ 0xffffffca
     908:	46494452 			@ <UNDEFINED> instruction: 0x46494452
     90c:	414d5f46 	cmpmi	sp, r6, asr #30
     910:	5f282058 	svcpl	0x00282058
     914:	5254505f 	subspl	r5, r4, #95	@ 0x5f
     918:	46464944 	strbmi	r4, [r6], -r4, asr #18
     91c:	58414d5f 	stmdapl	r1, {r0, r1, r2, r3, r4, r6, r8, sl, fp, lr}^
     920:	00295f5f 	eoreq	r5, r9, pc, asr pc
     924:	4c465f5f 	mcrrmi	15, 5, r5, r6, cr15
     928:	5f323354 	svcpl	0x00323354
     92c:	5f58414d 	svcpl	0x0058414d
     930:	455f3031 	ldrbmi	r3, [pc, #-49]	@ 907 <_Min_Stack_Size+0x507>
     934:	5f5f5058 	svcpl	0x005f5058
     938:	00383320 	eorseq	r3, r8, r0, lsr #6
     93c:	5f433249 	svcpl	0x00433249
     940:	5f315253 	svcpl	0x00315253
     944:	52524542 	subspl	r4, r2, #276824064	@ 0x10800000
     948:	6b734d5f 	blvs	1cd3ecc <_Min_Stack_Size+0x1cd3acc>
     94c:	78302820 	ldmdavc	r0!, {r5, fp, sp}
     950:	204c5531 	subcs	r5, ip, r1, lsr r5
     954:	49203c3c 	stmdbmi	r0!, {r2, r3, r4, r5, sl, fp, ip, sp}
     958:	535f4332 	cmppl	pc, #-939524096	@ 0xc8000000
     95c:	425f3152 	subsmi	r3, pc, #-2147483628	@ 0x80000014
     960:	5f525245 	svcpl	0x00525245
     964:	29736f50 	ldmdbcs	r3!, {r4, r6, r8, r9, sl, fp, sp, lr}^
     968:	555f5f00 	ldrbpl	r5, [pc, #-3840]	@ fffffa70 <_estack+0xdfffaa70>
     96c:	41524653 	cmpmi	r2, r3, asr r6
     970:	4d5f5443 	cfldrdmi	mvd5, [pc, #-268]	@ 86c <_Min_Stack_Size+0x46c>
     974:	5f5f5841 	svcpl	0x005f5841
     978:	46583020 	ldrbmi	r3, [r8], -r0, lsr #32
     97c:	382d5046 	stmdacc	sp!, {r1, r2, r6, ip, lr}
     980:	00524855 	subseq	r4, r2, r5, asr r8
     984:	49555f5f 	ldmdbmi	r5, {r0, r1, r2, r3, r4, r6, r8, r9, sl, fp, ip, lr}^
     988:	5450544e 	ldrbpl	r5, [r0], #-1102	@ 0xfffffbb2
     98c:	414d5f52 	cmpmi	sp, r2, asr pc
     990:	205f5f58 	subscs	r5, pc, r8, asr pc	@ <UNPREDICTABLE>
     994:	66667830 			@ <UNDEFINED> instruction: 0x66667830
     998:	66666666 	strbtvs	r6, [r6], -r6, ror #12
     99c:	00556666 	subseq	r6, r5, r6, ror #12
     9a0:	4c465f5f 	mcrrmi	15, 5, r5, r6, cr15
     9a4:	5f323354 	svcpl	0x00323354
     9a8:	5f4e494d 	svcpl	0x004e494d
     9ac:	5f505845 	svcpl	0x00505845
     9b0:	2d28205f 	stccs	0, cr2, [r8, #-380]!	@ 0xfffffe84
     9b4:	29353231 	ldmdbcs	r5!, {r0, r4, r5, r9, ip, sp}
     9b8:	43324900 	teqmi	r2, #0, 18
     9bc:	3252535f 	subscc	r5, r2, #2080374785	@ 0x7c000001
     9c0:	424d535f 	submi	r5, sp, #2080374785	@ 0x7c000001
     9c4:	54534f48 	ldrbpl	r4, [r3], #-3912	@ 0xfffff0b8
     9c8:	736f505f 	cmnvc	pc, #95	@ 0x5f
     9cc:	55362820 	ldrpl	r2, [r6, #-2080]!	@ 0xfffff7e0
     9d0:	53550029 	cmppl	r5, #41	@ 0x29
     9d4:	31545241 	cmpcc	r4, r1, asr #4
     9d8:	55282820 	strpl	r2, [r8, #-2080]!	@ 0xfffff7e0
     9dc:	54524153 	ldrbpl	r4, [r2], #-339	@ 0xfffffead
     9e0:	6765725f 			@ <UNDEFINED> instruction: 0x6765725f
     9e4:	65747369 	ldrbvs	r7, [r4, #-873]!	@ 0xfffffc97
     9e8:	70614d72 	rsbvc	r4, r1, r2, ror sp
     9ec:	292a745f 	stmdbcs	sl!, {r0, r1, r2, r3, r4, r6, sl, ip, sp, lr}
     9f0:	52415355 	subpl	r5, r1, #1409286145	@ 0x54000001
     9f4:	425f3154 	subsmi	r3, pc, #84, 2
     9f8:	29455341 	stmdbcs	r5, {r0, r6, r8, r9, ip, lr}^
     9fc:	564e4d00 	strbpl	r4, [lr], -r0, lsl #26
     a00:	495f4349 	ldmdbmi	pc, {r0, r3, r6, r8, r9, lr}^	@ <UNPREDICTABLE>
     a04:	5f314332 	svcpl	0x00314332
     a08:	495f5645 	ldmdbmi	pc, {r0, r2, r6, r9, sl, ip, lr}^	@ <UNPREDICTABLE>
     a0c:	33205152 			@ <UNDEFINED> instruction: 0x33205152
     a10:	4e490031 	mcrmi	0, 2, r0, cr9, cr1, {1}
     a14:	5f363154 	svcpl	0x00363154
     a18:	2058414d 	subscs	r4, r8, sp, asr #2
     a1c:	495f5f28 	ldmdbmi	pc, {r3, r5, r8, r9, sl, fp, ip, lr}^	@ <UNPREDICTABLE>
     a20:	3631544e 	ldrtcc	r5, [r1], -lr, asr #8
     a24:	58414d5f 	stmdapl	r1, {r0, r1, r2, r3, r4, r6, r8, sl, fp, lr}^
     a28:	00295f5f 	eoreq	r5, r9, pc, asr pc
     a2c:	5f433249 	svcpl	0x00433249
     a30:	5f315253 	svcpl	0x00315253
     a34:	52524542 	subspl	r4, r2, #276824064	@ 0x10800000
     a38:	43324920 	teqmi	r2, #32, 18	@ 0x80000
     a3c:	3152535f 	cmpcc	r2, pc, asr r3
     a40:	5245425f 	subpl	r4, r5, #-268435451	@ 0xf0000005
     a44:	734d5f52 	movtvc	r5, #57170	@ 0xdf52
     a48:	5f5f006b 	svcpl	0x005f006b
     a4c:	52464c55 	subpl	r4, r6, #21760	@ 0x5500
     a50:	5f544341 	svcpl	0x00544341
     a54:	54494246 	strbpl	r4, [r9], #-582	@ 0xfffffdba
     a58:	33205f5f 			@ <UNDEFINED> instruction: 0x33205f5f
     a5c:	564e0032 			@ <UNDEFINED> instruction: 0x564e0032
     a60:	28204349 	stmdacs	r0!, {r0, r3, r6, r8, r9, lr}
     a64:	49564e28 	ldmdbmi	r6, {r3, r5, r9, sl, fp, lr}^
     a68:	65725f43 	ldrbvs	r5, [r2, #-3907]!	@ 0xfffff0bd
     a6c:	74736967 	ldrbtvc	r6, [r3], #-2407	@ 0xfffff699
     a70:	614d7265 	cmpvs	sp, r5, ror #4
     a74:	2a745f70 	bcs	1d1883c <_Min_Stack_Size+0x1d1843c>
     a78:	49564e29 	ldmdbmi	r6, {r0, r3, r5, r9, sl, fp, lr}^
     a7c:	41425f43 	cmpmi	r2, r3, asr #30
     a80:	00294553 	eoreq	r4, r9, r3, asr r5
     a84:	4c465f5f 	mcrrmi	15, 5, r5, r6, cr15
     a88:	5f343654 	svcpl	0x00343654
     a8c:	5f4e494d 	svcpl	0x004e494d
     a90:	455f3031 	ldrbmi	r3, [pc, #-49]	@ a67 <_Min_Stack_Size+0x667>
     a94:	5f5f5058 	svcpl	0x005f5058
     a98:	332d2820 			@ <UNDEFINED> instruction: 0x332d2820
     a9c:	00293730 	eoreq	r3, r9, r0, lsr r7
     aa0:	49545845 	ldmdbmi	r4, {r0, r2, r6, fp, ip, lr}^
     aa4:	41503031 	cmpmi	r0, r1, lsr r0
     aa8:	28203031 	stmdacs	r0!, {r0, r4, r5, ip, sp}
     aac:	5458454d 	ldrbpl	r4, [r8], #-1357	@ 0xfffffab3
     ab0:	64755f49 	ldrbtvs	r5, [r5], #-3913	@ 0xfffff0b7
     ab4:	70477464 	subvc	r7, r7, r4, ror #8
     ab8:	69506f69 	ldmdbvs	r0, {r0, r3, r5, r6, r8, r9, sl, fp, sp, lr}^
     abc:	29745f6e 	ldmdbcs	r4!, {r1, r2, r3, r5, r6, r8, r9, sl, fp, ip, lr}^
     ac0:	58454d7b 	stmdapl	r5, {r0, r1, r3, r4, r5, r6, r8, sl, fp, lr}^
     ac4:	4c5f4954 	mrrcmi	9, 5, r4, pc, cr4	@ <UNPREDICTABLE>
     ac8:	31454e49 	cmpcc	r5, r9, asr #28
     acc:	47202c30 			@ <UNDEFINED> instruction: 0x47202c30
     ad0:	414f4950 	cmpmi	pc, r0, asr r9	@ <UNPREDICTABLE>
     ad4:	474d202c 	strbmi	r2, [sp, -ip, lsr #32]
     ad8:	5f4f4950 	svcpl	0x004f4950
     adc:	314e4950 	cmpcc	lr, r0, asr r9
     ae0:	4d202c30 	stcmi	12, cr2, [r0, #-192]!	@ 0xffffff40
     ae4:	4349564e 	movtmi	r5, #38478	@ 0x964e
     ae8:	5458455f 	ldrbpl	r4, [r8], #-1375	@ 0xfffffaa1
     aec:	5f353149 	svcpl	0x00353149
     af0:	495f3031 	ldmdbmi	pc, {r0, r4, r5, ip, sp}^	@ <UNPREDICTABLE>
     af4:	007d5152 	rsbseq	r5, sp, r2, asr r1
     af8:	4e475f5f 	mcrmi	15, 2, r5, cr7, cr15, {2}
     afc:	455f4355 	ldrbmi	r4, [pc, #-853]	@ 7af <_Min_Stack_Size+0x3af>
     b00:	55434558 	strbpl	r4, [r3, #-1368]	@ 0xfffffaa8
     b04:	4e4f4954 			@ <UNDEFINED> instruction: 0x4e4f4954
     b08:	4148435f 	cmpmi	r8, pc, asr r3
     b0c:	54455352 	strbpl	r5, [r5], #-850	@ 0xfffffcae
     b10:	4d414e5f 	stclmi	14, cr4, [r1, #-380]	@ 0xfffffe84
     b14:	55222045 	strpl	r2, [r2, #-69]!	@ 0xffffffbb
     b18:	382d4654 	stmdacc	sp!, {r2, r4, r6, r9, sl, lr}
     b1c:	5f5f0022 	svcpl	0x005f0022
     b20:	5f746e69 	svcpl	0x00746e69
     b24:	74736166 	ldrbtvc	r6, [r3], #-358	@ 0xfffffe9a
     b28:	745f3233 	ldrbvc	r3, [pc], #-563	@ b30 <_Min_Stack_Size+0x730>
     b2c:	6665645f 			@ <UNDEFINED> instruction: 0x6665645f
     b30:	64656e69 	strbtvs	r6, [r5], #-3689	@ 0xfffff197
     b34:	5f003120 	svcpl	0x00003120
     b38:	544e495f 	strbpl	r4, [lr], #-2399	@ 0xfffff6a1
     b3c:	5341465f 	movtpl	r4, #5727	@ 0x165f
     b40:	5f343654 	svcpl	0x00343654
     b44:	54444957 	strbpl	r4, [r4], #-2391	@ 0xfffff6a9
     b48:	205f5f48 	subscs	r5, pc, r8, asr #30
     b4c:	5f003436 	svcpl	0x00003436
     b50:	43414c5f 	movtmi	r4, #7263	@ 0x1c5f
     b54:	5f4d5543 	svcpl	0x004d5543
     b58:	54494246 	strbpl	r4, [r9], #-582	@ 0xfffffdba
     b5c:	33205f5f 			@ <UNDEFINED> instruction: 0x33205f5f
     b60:	4e490031 	mcrmi	0, 2, r0, cr9, cr1, {1}
     b64:	5f363154 	svcpl	0x00363154
     b68:	29782843 	ldmdbcs	r8!, {r0, r1, r6, fp, sp}^
     b6c:	495f5f20 	ldmdbmi	pc, {r5, r8, r9, sl, fp, ip, lr}^	@ <UNPREDICTABLE>
     b70:	3631544e 	ldrtcc	r5, [r1], -lr, asr #8
     b74:	7828435f 	stmdavc	r8!, {r0, r1, r2, r3, r4, r6, r8, r9, lr}
     b78:	5f5f0029 	svcpl	0x005f0029
     b7c:	41524653 	cmpmi	r2, r3, asr r6
     b80:	455f5443 	ldrbmi	r5, [pc, #-1091]	@ 745 <_Min_Stack_Size+0x345>
     b84:	4c495350 	mcrrmi	3, 5, r5, r9, cr0
     b88:	5f5f4e4f 	svcpl	0x005f4e4f
     b8c:	31783020 	cmncc	r8, r0, lsr #32
     b90:	48372d50 	ldmdami	r7!, {r4, r6, r8, sl, fp, sp}
     b94:	32490052 	subcc	r0, r9, #82	@ 0x52
     b98:	52435f43 	subpl	r5, r3, #268	@ 0x10c
     b9c:	43415f31 	movtmi	r5, #7985	@ 0x1f31
     ba0:	6f505f4b 	svcvs	0x00505f4b
     ba4:	31282073 			@ <UNDEFINED> instruction: 0x31282073
     ba8:	00295530 	eoreq	r5, r9, r0, lsr r5
     bac:	42445f5f 	submi	r5, r4, #380	@ 0x17c
     bb0:	494d5f4c 	stmdbmi	sp, {r2, r3, r6, r8, r9, sl, fp, ip, lr}^
     bb4:	30315f4e 	eorscc	r5, r1, lr, asr #30
     bb8:	5058455f 	subspl	r4, r8, pc, asr r5
     bbc:	28205f5f 	stmdacs	r0!, {r0, r1, r2, r3, r4, r6, r8, r9, sl, fp, ip, lr}
     bc0:	3730332d 	ldrcc	r3, [r0, -sp, lsr #6]!
     bc4:	5f5f0029 	svcpl	0x005f0029
     bc8:	5f515355 	svcpl	0x00515355
     bcc:	54494246 	strbpl	r4, [r9], #-582	@ 0xfffffdba
     bd0:	33205f5f 			@ <UNDEFINED> instruction: 0x33205f5f
     bd4:	5f5f0032 	svcpl	0x005f0032
     bd8:	4544524f 	strbmi	r5, [r4, #-591]	@ 0xfffffdb1
     bdc:	49425f52 	stmdbmi	r2, {r1, r4, r6, r8, r9, sl, fp, ip, lr}^
     be0:	4e455f47 	cdpmi	15, 4, cr5, cr5, cr7, {2}
     be4:	4e414944 	vmlsmi.f16	s9, s2, s8	@ <UNPREDICTABLE>
     be8:	34205f5f 	strtcc	r5, [r0], #-3935	@ 0xfffff0a1
     bec:	00313233 	eorseq	r3, r1, r3, lsr r2
     bf0:	49555f5f 	ldmdbmi	r5, {r0, r1, r2, r3, r4, r6, r8, r9, sl, fp, ip, lr}^
     bf4:	465f544e 	ldrbmi	r5, [pc], -lr, asr #8
     bf8:	36545341 	ldrbcc	r5, [r4], -r1, asr #6
     bfc:	59545f34 	ldmdbpl	r4, {r2, r4, r5, r8, r9, sl, fp, ip, lr}^
     c00:	5f5f4550 	svcpl	0x005f4550
     c04:	6e6f6c20 	cdpvs	12, 6, cr6, cr15, cr0, {1}
     c08:	6f6c2067 	svcvs	0x006c2067
     c0c:	7520676e 	strvc	r6, [r0, #-1902]!	@ 0xfffff892
     c10:	6769736e 	strbvs	r7, [r9, -lr, ror #6]!
     c14:	2064656e 	rsbcs	r6, r4, lr, ror #10
     c18:	00746e69 	rsbseq	r6, r4, r9, ror #28
     c1c:	51535f5f 	cmppl	r3, pc, asr pc
     c20:	4942465f 	stmdbmi	r2, {r0, r1, r2, r3, r4, r6, r9, sl, lr}^
     c24:	205f5f54 	subscs	r5, pc, r4, asr pc	@ <UNPREDICTABLE>
     c28:	45003133 	strmi	r3, [r0, #-307]	@ 0xfffffecd
     c2c:	36495458 			@ <UNDEFINED> instruction: 0x36495458
     c30:	20364350 	eorscs	r4, r6, r0, asr r3
     c34:	58454d28 	stmdapl	r5, {r3, r5, r8, sl, fp, lr}^
     c38:	755f4954 	ldrbvc	r4, [pc, #-2388]	@ 2ec <_Min_Heap_Size+0xec>
     c3c:	47746464 	ldrbmi	r6, [r4, -r4, ror #8]!
     c40:	506f6970 	rsbpl	r6, pc, r0, ror r9	@ <UNPREDICTABLE>
     c44:	745f6e69 	ldrbvc	r6, [pc], #-3689	@ c4c <_Min_Stack_Size+0x84c>
     c48:	454d7b29 	strbmi	r7, [sp, #-2857]	@ 0xfffff4d7
     c4c:	5f495458 	svcpl	0x00495458
     c50:	454e494c 	strbmi	r4, [lr, #-2380]	@ 0xfffff6b4
     c54:	47202c36 			@ <UNDEFINED> instruction: 0x47202c36
     c58:	434f4950 	movtmi	r4, #63824	@ 0xf950
     c5c:	474d202c 	strbmi	r2, [sp, -ip, lsr #32]
     c60:	5f4f4950 	svcpl	0x004f4950
     c64:	364e4950 			@ <UNDEFINED> instruction: 0x364e4950
     c68:	4e4d202c 	cdpmi	0, 4, cr2, cr13, cr12, {1}
     c6c:	5f434956 	svcpl	0x00434956
     c70:	49545845 	ldmdbmi	r4, {r0, r2, r6, fp, ip, lr}^
     c74:	5f355f39 	svcpl	0x00355f39
     c78:	7d515249 	lfmvc	f5, 2, [r1, #-292]	@ 0xfffffedc
     c7c:	544e4900 	strbpl	r4, [lr], #-2304	@ 0xfffff700
     c80:	494d5f38 	stmdbmi	sp, {r3, r4, r5, r8, r9, sl, fp, ip, lr}^
     c84:	2d28204e 	stccs	0, cr2, [r8, #-312]!	@ 0xfffffec8
     c88:	4e495f5f 	mcrmi	15, 2, r5, cr9, cr15, {2}
     c8c:	4d5f3854 	ldclmi	8, cr3, [pc, #-336]	@ b44 <_Min_Stack_Size+0x744>
     c90:	5f5f5841 	svcpl	0x005f5841
     c94:	31202d20 			@ <UNDEFINED> instruction: 0x31202d20
     c98:	32490029 	subcc	r0, r9, #41	@ 0x29
     c9c:	52435f43 	subpl	r5, r3, #268	@ 0x10c
     ca0:	45505f31 	ldrbmi	r5, [r0, #-3889]	@ 0xfffff0cf
     ca4:	32492043 	subcc	r2, r9, #67	@ 0x43
     ca8:	52435f43 	subpl	r5, r3, #268	@ 0x10c
     cac:	45505f31 	ldrbmi	r5, [r0, #-3889]	@ 0xfffff0cf
     cb0:	734d5f43 	movtvc	r5, #57155	@ 0xdf43
     cb4:	5845006b 	stmdapl	r5, {r0, r1, r3, r5, r6}^
     cb8:	50324954 	eorspl	r4, r2, r4, asr r9
     cbc:	28203241 	stmdacs	r0!, {r0, r6, r9, ip, sp}
     cc0:	5458454d 	ldrbpl	r4, [r8], #-1357	@ 0xfffffab3
     cc4:	64755f49 	ldrbtvs	r5, [r5], #-3913	@ 0xfffff0b7
     cc8:	70477464 	subvc	r7, r7, r4, ror #8
     ccc:	69506f69 	ldmdbvs	r0, {r0, r3, r5, r6, r8, r9, sl, fp, sp, lr}^
     cd0:	29745f6e 	ldmdbcs	r4!, {r1, r2, r3, r5, r6, r8, r9, sl, fp, ip, lr}^
     cd4:	58454d7b 	stmdapl	r5, {r0, r1, r3, r4, r5, r6, r8, sl, fp, lr}^
     cd8:	4c5f4954 	mrrcmi	9, 5, r4, pc, cr4	@ <UNPREDICTABLE>
     cdc:	32454e49 	subcc	r4, r5, #1168	@ 0x490
     ce0:	5047202c 	subpl	r2, r7, ip, lsr #32
     ce4:	2c414f49 	mcrrcs	15, 4, r4, r1, cr9
     ce8:	50474d20 	subpl	r4, r7, r0, lsr #26
     cec:	505f4f49 	subspl	r4, pc, r9, asr #30
     cf0:	2c324e49 	ldccs	14, cr4, [r2], #-292	@ 0xfffffedc
     cf4:	564e4d20 	strbpl	r4, [lr], -r0, lsr #26
     cf8:	455f4349 	ldrbmi	r4, [pc, #-841]	@ 9b7 <_Min_Stack_Size+0x5b7>
     cfc:	32495458 	subcc	r5, r9, #88, 8	@ 0x58000000
     d00:	5152495f 	cmppl	r2, pc, asr r9
     d04:	555f007d 	ldrbpl	r0, [pc, #-125]	@ c8f <_Min_Stack_Size+0x88f>
     d08:	31544e49 	cmpcc	r4, r9, asr #28
     d0c:	5f545f36 	svcpl	0x00545f36
     d10:	4c434544 	cfstr64mi	mvdx4, [r3], {68}	@ 0x44
     d14:	44455241 	strbmi	r5, [r5], #-577	@ 0xfffffdbf
     d18:	45530020 	ldrbmi	r0, [r3, #-32]	@ 0xffffffe0
     d1c:	49425f54 	stmdbmi	r2, {r2, r4, r6, r8, r9, sl, fp, ip, lr}^
     d20:	52285354 	eorpl	r5, r8, #84, 6	@ 0x50000001
     d24:	4d2c4745 	stcmi	7, cr4, [ip, #-276]!	@ 0xfffffeec
     d28:	20294b53 	eorcs	r4, r9, r3, asr fp
     d2c:	47455228 	strbmi	r5, [r5, -r8, lsr #4]
     d30:	3d7c2029 	ldclcc	0, cr2, [ip, #-164]!	@ 0xffffff5c
     d34:	534d2820 	movtpl	r2, #55328	@ 0xd820
     d38:	4d00294b 	vstrmi.16	s4, [r0, #-150]	@ 0xffffff6a	@ <UNPREDICTABLE>
     d3c:	4349564e 	movtmi	r5, #38478	@ 0x964e
     d40:	5241555f 	subpl	r5, r1, #398458880	@ 0x17c00000
     d44:	495f3454 	ldmdbmi	pc, {r2, r4, r6, sl, ip, sp}^	@ <UNPREDICTABLE>
     d48:	35205152 	strcc	r5, [r0, #-338]!	@ 0xfffffeae
     d4c:	32490032 	subcc	r0, r9, #50	@ 0x32
     d50:	52435f43 	subpl	r5, r3, #268	@ 0x10c
     d54:	54495f32 	strbpl	r5, [r9], #-3890	@ 0xfffff0ce
     d58:	45525245 	ldrbmi	r5, [r2, #-581]	@ 0xfffffdbb
     d5c:	6f505f4e 	svcvs	0x00505f4e
     d60:	38282073 	stmdacc	r8!, {r0, r1, r4, r5, r6, sp}
     d64:	4d002955 	vstrmi.16	s4, [r0, #-170]	@ 0xffffff56	@ <UNPREDICTABLE>
     d68:	4349564e 	movtmi	r5, #38478	@ 0x964e
     d6c:	4457575f 	ldrbmi	r5, [r7], #-1887	@ 0xfffff8a1
     d70:	52495f47 	subpl	r5, r9, #284	@ 0x11c
     d74:	00302051 	eorseq	r2, r0, r1, asr r0
     d78:	5359535f 	cmppl	r9, #2080374785	@ 0x7c000001
     d7c:	54535f5f 	ldrbpl	r5, [r3], #-3935	@ 0xfffff0a1
     d80:	544e4944 	strbpl	r4, [lr], #-2372	@ 0xfffff6bc
     d84:	0020485f 	eoreq	r4, r0, pc, asr r8
     d88:	5f544e49 	svcpl	0x00544e49
     d8c:	5341454c 	movtpl	r4, #5452	@ 0x154c
     d90:	5f343654 	svcpl	0x00343654
     d94:	2058414d 	subscs	r4, r8, sp, asr #2
     d98:	495f5f28 	ldmdbmi	pc, {r3, r5, r8, r9, sl, fp, ip, lr}^	@ <UNPREDICTABLE>
     d9c:	4c5f544e 	cfldrdmi	mvd5, [pc], {78}	@ 0x4e
     da0:	54534145 	ldrbpl	r4, [r3], #-325	@ 0xfffffebb
     da4:	4d5f3436 	cfldrdmi	mvd3, [pc, #-216]	@ cd4 <_Min_Stack_Size+0x8d4>
     da8:	5f5f5841 	svcpl	0x005f5841
     dac:	5f5f0029 	svcpl	0x005f0029
     db0:	36544c46 	ldrbcc	r4, [r4], -r6, asr #24
     db4:	494d5f34 	stmdbmi	sp, {r2, r4, r5, r8, r9, sl, fp, ip, lr}^
     db8:	58455f4e 	stmdapl	r5, {r1, r2, r3, r6, r8, r9, sl, fp, ip, lr}^
     dbc:	205f5f50 	subscs	r5, pc, r0, asr pc	@ <UNPREDICTABLE>
     dc0:	30312d28 	eorscc	r2, r1, r8, lsr #26
     dc4:	00293132 	eoreq	r3, r9, r2, lsr r1
     dc8:	54505f5f 	ldrbpl	r5, [r0], #-3935	@ 0xfffff0a1
     dcc:	46494452 			@ <UNDEFINED> instruction: 0x46494452
     dd0:	49575f46 	ldmdbmi	r7, {r1, r2, r6, r8, r9, sl, fp, ip, lr}^
     dd4:	5f485444 	svcpl	0x00485444
     dd8:	3233205f 	eorscc	r2, r3, #95	@ 0x5f
     ddc:	58454d00 	stmdapl	r5, {r8, sl, fp, lr}^
     de0:	755f4954 	ldrbvc	r4, [pc, #-2388]	@ 494 <_Min_Stack_Size+0x94>
     de4:	55746464 	ldrbpl	r6, [r4, #-1124]!	@ 0xfffffb9c
     de8:	74616470 	strbtvc	r6, [r1], #-1136	@ 0xfffffb90
     dec:	5f5f0065 	svcpl	0x005f0065
     df0:	544e4955 	strbpl	r4, [lr], #-2389	@ 0xfffff6ab
     df4:	5341465f 	movtpl	r4, #5727	@ 0x165f
     df8:	4d5f3854 	ldclmi	8, cr3, [pc, #-336]	@ cb0 <_Min_Stack_Size+0x8b0>
     dfc:	5f5f5841 	svcpl	0x005f5841
     e00:	66783020 	ldrbtvs	r3, [r8], -r0, lsr #32
     e04:	66666666 	strbtvs	r6, [r6], -r6, ror #12
     e08:	55666666 	strbpl	r6, [r6, #-1638]!	@ 0xfffff99a
     e0c:	54584500 	ldrbpl	r4, [r8], #-1280	@ 0xfffffb00
     e10:	41503449 	cmpmi	r0, r9, asr #8
     e14:	4d282034 	stcmi	0, cr2, [r8, #-208]!	@ 0xffffff30
     e18:	49545845 	ldmdbmi	r4, {r0, r2, r6, fp, ip, lr}^
     e1c:	6464755f 	strbtvs	r7, [r4], #-1375	@ 0xfffffaa1
     e20:	69704774 	ldmdbvs	r0!, {r2, r4, r5, r6, r8, r9, sl, lr}^
     e24:	6e69506f 	cdpvs	0, 6, cr5, cr9, cr15, {3}
     e28:	7b29745f 	blvc	a5dfac <_Min_Stack_Size+0xa5dbac>
     e2c:	5458454d 	ldrbpl	r4, [r8], #-1357	@ 0xfffffab3
     e30:	494c5f49 	stmdbmi	ip, {r0, r3, r6, r8, r9, sl, fp, ip, lr}^
     e34:	2c34454e 	cfldr32cs	mvfx4, [r4], #-312	@ 0xfffffec8
     e38:	49504720 	ldmdbmi	r0, {r5, r8, r9, sl, lr}^
     e3c:	202c414f 	eorcs	r4, ip, pc, asr #2
     e40:	4950474d 	ldmdbmi	r0, {r0, r2, r3, r6, r8, r9, sl, lr}^
     e44:	49505f4f 	ldmdbmi	r0, {r0, r1, r2, r3, r6, r8, r9, sl, fp, ip, lr}^
     e48:	202c344e 	eorcs	r3, ip, lr, asr #8
     e4c:	49564e4d 	ldmdbmi	r6, {r0, r2, r3, r6, r9, sl, fp, lr}^
     e50:	58455f43 	stmdapl	r5, {r0, r1, r6, r8, r9, sl, fp, ip, lr}^
     e54:	5f344954 	svcpl	0x00344954
     e58:	7d515249 	lfmvc	f5, 2, [r1, #-292]	@ 0xfffffedc
     e5c:	48435700 	stmdami	r3, {r8, r9, sl, ip, lr}^
     e60:	4d5f5241 	lfmmi	f5, 2, [pc, #-260]	@ d64 <_Min_Stack_Size+0x964>
     e64:	28205841 	stmdacs	r0!, {r0, r6, fp, ip, lr}
     e68:	43575f5f 	cmpmi	r7, #380	@ 0x17c
     e6c:	5f524148 	svcpl	0x00524148
     e70:	5f58414d 	svcpl	0x0058414d
     e74:	5f00295f 	svcpl	0x0000295f
     e78:	43414c5f 	movtmi	r4, #7263	@ 0x1c5f
     e7c:	5f4d5543 	svcpl	0x004d5543
     e80:	54494249 	strbpl	r4, [r9], #-585	@ 0xfffffdb7
     e84:	33205f5f 			@ <UNDEFINED> instruction: 0x33205f5f
     e88:	4e490032 	mcrmi	0, 2, r0, cr9, cr2, {1}
     e8c:	454c5f54 	strbmi	r5, [ip, #-3924]	@ 0xfffff0ac
     e90:	38545341 	ldmdacc	r4, {r0, r6, r8, r9, ip, lr}^
     e94:	58414d5f 	stmdapl	r1, {r0, r1, r2, r3, r4, r6, r8, sl, fp, lr}^
     e98:	5f5f2820 	svcpl	0x005f2820
     e9c:	5f544e49 	svcpl	0x00544e49
     ea0:	5341454c 	movtpl	r4, #5452	@ 0x154c
     ea4:	4d5f3854 	ldclmi	8, cr3, [pc, #-336]	@ d5c <_Min_Stack_Size+0x95c>
     ea8:	5f5f5841 	svcpl	0x005f5841
     eac:	58450029 	stmdapl	r5, {r0, r3, r5}^
     eb0:	425f4954 	subsmi	r4, pc, #84, 18	@ 0x150000
     eb4:	20455341 	subcs	r5, r5, r1, asr #6
     eb8:	30347830 	eorscc	r7, r4, r0, lsr r8
     ebc:	34303130 	ldrtcc	r3, [r0], #-304	@ 0xfffffed0
     ec0:	4c553030 	mrrcmi	0, 3, r3, r5, cr0
     ec4:	755f5f00 	ldrbvc	r5, [pc, #-3840]	@ ffffffcc <_estack+0xdfffafcc>
     ec8:	38746e69 	ldmdacc	r4!, {r0, r3, r5, r6, r9, sl, fp, sp, lr}^
     ecc:	5f00745f 	svcpl	0x0000745f
     ed0:	4843535f 	stmdami	r3, {r0, r1, r2, r3, r4, r6, r8, r9, ip, lr}^
     ed4:	575f5241 	ldrbpl	r5, [pc, -r1, asr #4]
     ed8:	48544449 	ldmdami	r4, {r0, r3, r6, sl, lr}^
     edc:	38205f5f 	stmdacc	r0!, {r0, r1, r2, r3, r4, r6, r8, r9, sl, fp, ip, lr}
     ee0:	495f5f00 	ldmdbmi	pc, {r8, r9, sl, fp, ip, lr}^	@ <UNPREDICTABLE>
     ee4:	465f544e 	ldrbmi	r5, [pc], -lr, asr #8
     ee8:	31545341 	cmpcc	r4, r1, asr #6
     eec:	49575f36 	ldmdbmi	r7, {r1, r2, r4, r5, r8, r9, sl, fp, ip, lr}^
     ef0:	5f485444 	svcpl	0x00485444
     ef4:	3233205f 	eorscc	r2, r3, #95	@ 0x5f
     ef8:	50474d00 	subpl	r4, r7, r0, lsl #26
     efc:	495f4f49 	ldmdbmi	pc, {r0, r3, r6, r8, r9, sl, fp, lr}^	@ <UNPREDICTABLE>
     f00:	5455504e 	ldrbpl	r5, [r5], #-78	@ 0xffffffb2
     f04:	5f44505f 	svcpl	0x0044505f
     f08:	45444f4d 	strbmi	r4, [r4, #-3917]	@ 0xfffff0b3
     f0c:	49504700 	ldmdbmi	r0, {r8, r9, sl, lr}^
     f10:	2820424f 	stmdacs	r0!, {r0, r1, r2, r3, r6, r9, lr}
     f14:	49504728 	ldmdbmi	r0, {r3, r5, r8, r9, sl, lr}^
     f18:	65725f4f 	ldrbvs	r5, [r2, #-3919]!	@ 0xfffff0b1
     f1c:	74736967 	ldrbtvc	r6, [r3], #-2407	@ 0xfffff699
     f20:	614d7265 	cmpvs	sp, r5, ror #4
     f24:	2a745f70 	bcs	1d18cec <_Min_Stack_Size+0x1d188ec>
     f28:	49504729 	ldmdbmi	r0, {r0, r3, r5, r8, r9, sl, lr}^
     f2c:	425f424f 	subsmi	r4, pc, #-268435452	@ 0xf0000004
     f30:	29455341 	stmdbcs	r5, {r0, r6, r8, r9, ip, lr}^
     f34:	565f5f00 	ldrbpl	r5, [pc], -r0, lsl #30
     f38:	465f5046 	ldrbmi	r5, [pc], -r6, asr #32
     f3c:	205f5f50 	subscs	r5, pc, r0, asr pc	@ <UNPREDICTABLE>
     f40:	5f5f0031 	svcpl	0x005f0031
     f44:	5341454c 	movtpl	r4, #5452	@ 0x154c
     f48:	20323354 	eorscs	r3, r2, r4, asr r3
     f4c:	00226c22 	eoreq	r6, r2, r2, lsr #24
     f50:	4e495f5f 	mcrmi	15, 2, r5, cr9, cr15, {2}
     f54:	20343654 	eorscs	r3, r4, r4, asr r6
     f58:	226c6c22 	rsbcs	r6, ip, #8704	@ 0x2200
     f5c:	495f5f00 	ldmdbmi	pc, {r8, r9, sl, fp, ip, lr}^	@ <UNPREDICTABLE>
     f60:	5450544e 	ldrbpl	r5, [r0], #-1102	@ 0xfffffbb2
     f64:	414d5f52 	cmpmi	sp, r2, asr pc
     f68:	205f5f58 	subscs	r5, pc, r8, asr pc	@ <UNPREDICTABLE>
     f6c:	66377830 			@ <UNDEFINED> instruction: 0x66377830
     f70:	66666666 	strbtvs	r6, [r6], -r6, ror #12
     f74:	4d006666 	stcmi	6, cr6, [r0, #-408]	@ 0xfffffe68
     f78:	49545845 	ldmdbmi	r4, {r0, r2, r6, fp, ip, lr}^
     f7c:	4e494c5f 	mcrmi	12, 2, r4, cr9, cr15, {2}
     f80:	4d003045 	stcmi	0, cr3, [r0, #-276]	@ 0xfffffeec
     f84:	49545845 	ldmdbmi	r4, {r0, r2, r6, fp, ip, lr}^
     f88:	4e494c5f 	mcrmi	12, 2, r4, cr9, cr15, {2}
     f8c:	49003145 	stmdbmi	r0, {r0, r2, r6, r8, ip, sp}
     f90:	4c5f544e 	cfldrdmi	mvd5, [pc], {78}	@ 0x4e
     f94:	54534145 	ldrbpl	r4, [r3], #-325	@ 0xfffffebb
     f98:	4d5f3436 	cfldrdmi	mvd3, [pc, #-216]	@ ec8 <_Min_Stack_Size+0xac8>
     f9c:	28204e49 	stmdacs	r0!, {r0, r3, r6, r9, sl, fp, lr}
     fa0:	495f5f2d 	ldmdbmi	pc, {r0, r2, r3, r5, r8, r9, sl, fp, ip, lr}^	@ <UNPREDICTABLE>
     fa4:	4c5f544e 	cfldrdmi	mvd5, [pc], {78}	@ 0x4e
     fa8:	54534145 	ldrbpl	r4, [r3], #-325	@ 0xfffffebb
     fac:	4d5f3436 	cfldrdmi	mvd3, [pc, #-216]	@ edc <_Min_Stack_Size+0xadc>
     fb0:	5f5f5841 	svcpl	0x005f5841
     fb4:	31202d20 			@ <UNDEFINED> instruction: 0x31202d20
     fb8:	454d0029 	strbmi	r0, [sp, #-41]	@ 0xffffffd7
     fbc:	5f495458 	svcpl	0x00495458
     fc0:	454e494c 	strbmi	r4, [lr, #-2380]	@ 0xfffff6b4
     fc4:	454d0033 	strbmi	r0, [sp, #-51]	@ 0xffffffcd
     fc8:	5f495458 	svcpl	0x00495458
     fcc:	454e494c 	strbmi	r4, [lr, #-2380]	@ 0xfffff6b4
     fd0:	454d0034 	strbmi	r0, [sp, #-52]	@ 0xffffffcc
     fd4:	5f495458 	svcpl	0x00495458
     fd8:	454e494c 	strbmi	r4, [lr, #-2380]	@ 0xfffff6b4
     fdc:	454d0035 	strbmi	r0, [sp, #-53]	@ 0xffffffcb
     fe0:	5f495458 	svcpl	0x00495458
     fe4:	454e494c 	strbmi	r4, [lr, #-2380]	@ 0xfffff6b4
     fe8:	454d0036 	strbmi	r0, [sp, #-54]	@ 0xffffffca
     fec:	5f495458 	svcpl	0x00495458
     ff0:	454e494c 	strbmi	r4, [lr, #-2380]	@ 0xfffff6b4
     ff4:	454d0037 	strbmi	r0, [sp, #-55]	@ 0xffffffc9
     ff8:	5f495458 	svcpl	0x00495458
     ffc:	454e494c 	strbmi	r4, [lr, #-2380]	@ 0xfffff6b4
    1000:	454d0038 	strbmi	r0, [sp, #-56]	@ 0xffffffc8
    1004:	5f495458 	svcpl	0x00495458
    1008:	454e494c 	strbmi	r4, [lr, #-2380]	@ 0xfffff6b4
    100c:	5f5f0039 	svcpl	0x005f0039
    1010:	43554e47 	cmpmi	r5, #1136	@ 0x470
    1014:	4552505f 	ldrbmi	r5, [r2, #-95]	@ 0xffffffa1
    1018:	28514552 	ldmdacs	r1, {r1, r4, r6, r8, sl, lr}^
    101c:	2c6a616d 	stfcse	f6, [sl], #-436	@ 0xfffffe4c
    1020:	296e696d 	stmdbcs	lr!, {r0, r2, r3, r5, r6, r8, fp, sp, lr}^
    1024:	5f282820 	svcpl	0x00282820
    1028:	554e475f 	strbpl	r4, [lr, #-1887]	@ 0xfffff8a1
    102c:	205f5f43 	subscs	r5, pc, r3, asr #30
    1030:	31203c3c 			@ <UNDEFINED> instruction: 0x31203c3c
    1034:	2b202936 	blcs	80b514 <_Min_Stack_Size+0x80b114>
    1038:	475f5f20 	ldrbmi	r5, [pc, -r0, lsr #30]
    103c:	5f43554e 	svcpl	0x0043554e
    1040:	4f4e494d 	svcmi	0x004e494d
    1044:	205f5f52 	subscs	r5, pc, r2, asr pc	@ <UNPREDICTABLE>
    1048:	28203d3e 	stmdacs	r0!, {r1, r2, r3, r4, r5, r8, sl, fp, ip, sp}
    104c:	6a616d28 	bvs	185c4f4 <_Min_Stack_Size+0x185c0f4>
    1050:	3c3c2029 	ldccc	0, cr2, [ip], #-164	@ 0xffffff5c
    1054:	29363120 	ldmdbcs	r6!, {r5, r8, ip, sp}
    1058:	28202b20 	stmdacs	r0!, {r5, r8, r9, fp, sp}
    105c:	296e696d 	stmdbcs	lr!, {r0, r2, r3, r5, r6, r8, fp, sp, lr}^
    1060:	5f5f0029 	svcpl	0x005f0029
    1064:	41524655 	cmpmi	r2, r5, asr r6
    1068:	4d5f5443 	cfldrdmi	mvd5, [pc, #-268]	@ f64 <_Min_Stack_Size+0xb64>
    106c:	5f5f4e49 	svcpl	0x005f4e49
    1070:	302e3020 	eorcc	r3, lr, r0, lsr #32
    1074:	5f005255 	svcpl	0x00005255
    1078:	50544e49 	subspl	r4, r4, r9, asr #28
    107c:	545f5254 	ldrbpl	r5, [pc], #-596	@ 1084 <_Min_Stack_Size+0xc84>
    1080:	4345445f 	movtmi	r4, #21599	@ 0x545f
    1084:	4552414c 	ldrbmi	r4, [r2, #-332]	@ 0xfffffeb4
    1088:	5f002044 	svcpl	0x00002044
    108c:	544c465f 	strbpl	r4, [ip], #-1631	@ 0xfffff9a1
    1090:	5f583233 	svcpl	0x00583233
    1094:	5f534148 	svcpl	0x00534148
    1098:	49464e49 	stmdbmi	r6, {r0, r3, r6, r9, sl, fp, lr}^
    109c:	5954494e 	ldmdbpl	r4, {r1, r2, r3, r6, r8, fp, lr}^
    10a0:	31205f5f 			@ <UNDEFINED> instruction: 0x31205f5f
    10a4:	544e4900 	strbpl	r4, [lr], #-2304	@ 0xfffff700
    10a8:	5341465f 	movtpl	r4, #5727	@ 0x165f
    10ac:	5f323354 	svcpl	0x00323354
    10b0:	204e494d 	subcs	r4, lr, sp, asr #18
    10b4:	5f5f2d28 	svcpl	0x005f2d28
    10b8:	5f544e49 	svcpl	0x00544e49
    10bc:	54534146 	ldrbpl	r4, [r3], #-326	@ 0xfffffeba
    10c0:	4d5f3233 	lfmmi	f3, 2, [pc, #-204]	@ ffc <_Min_Stack_Size+0xbfc>
    10c4:	5f5f5841 	svcpl	0x005f5841
    10c8:	31202d20 			@ <UNDEFINED> instruction: 0x31202d20
    10cc:	32490029 	subcc	r0, r9, #41	@ 0x29
    10d0:	52435f43 	subpl	r5, r3, #268	@ 0x10c
    10d4:	4e455f31 	mcrmi	15, 2, r5, cr5, cr1, {1}
    10d8:	49204347 	stmdbmi	r0!, {r0, r1, r2, r6, r8, r9, lr}
    10dc:	435f4332 	cmpmi	pc, #-939524096	@ 0xc8000000
    10e0:	455f3152 	ldrbmi	r3, [pc, #-338]	@ f96 <_Min_Stack_Size+0xb96>
    10e4:	5f43474e 	svcpl	0x0043474e
    10e8:	006b734d 	rsbeq	r7, fp, sp, asr #6
    10ec:	5f433249 	svcpl	0x00433249
    10f0:	5f315243 	svcpl	0x00315243
    10f4:	53525753 	cmppl	r2, #21757952	@ 0x14c0000
    10f8:	32492054 	subcc	r2, r9, #84	@ 0x54
    10fc:	52435f43 	subpl	r5, r3, #268	@ 0x10c
    1100:	57535f31 	smmlarpl	r3, r1, pc, r5	@ <UNPREDICTABLE>
    1104:	5f545352 	svcpl	0x00545352
    1108:	006b734d 	rsbeq	r7, fp, sp, asr #6
    110c:	55424544 	strbpl	r4, [r2, #-1348]	@ 0xfffffabc
    1110:	00312047 	eorseq	r2, r1, r7, asr #32
    1114:	5f433249 	svcpl	0x00433249
    1118:	5f325243 	svcpl	0x00325243
    111c:	55425449 	strbpl	r5, [r2, #-1097]	@ 0xfffffbb7
    1120:	204e4546 	subcs	r4, lr, r6, asr #10
    1124:	5f433249 	svcpl	0x00433249
    1128:	5f325243 	svcpl	0x00325243
    112c:	55425449 	strbpl	r5, [r2, #-1097]	@ 0xfffffbb7
    1130:	5f4e4546 	svcpl	0x004e4546
    1134:	006b734d 	rsbeq	r7, fp, sp, asr #6
    1138:	4f494641 	svcmi	0x00494641
    113c:	6765725f 			@ <UNDEFINED> instruction: 0x6765725f
    1140:	65747369 	ldrbvs	r7, [r4, #-873]!	@ 0xfffffc97
    1144:	70614d72 	rsbvc	r4, r1, r2, ror sp
    1148:	4500745f 	strmi	r7, [r0, #-1119]	@ 0xfffffba1
    114c:	38495458 	stmdacc	r9, {r3, r4, r6, sl, ip, lr}^
    1150:	20384150 	eorscs	r4, r8, r0, asr r1
    1154:	58454d28 	stmdapl	r5, {r3, r5, r8, sl, fp, lr}^
    1158:	755f4954 	ldrbvc	r4, [pc, #-2388]	@ 80c <_Min_Stack_Size+0x40c>
    115c:	47746464 	ldrbmi	r6, [r4, -r4, ror #8]!
    1160:	506f6970 	rsbpl	r6, pc, r0, ror r9	@ <UNPREDICTABLE>
    1164:	745f6e69 	ldrbvc	r6, [pc], #-3689	@ 116c <_Min_Stack_Size+0xd6c>
    1168:	454d7b29 	strbmi	r7, [sp, #-2857]	@ 0xfffff4d7
    116c:	5f495458 	svcpl	0x00495458
    1170:	454e494c 	strbmi	r4, [lr, #-2380]	@ 0xfffff6b4
    1174:	47202c38 			@ <UNDEFINED> instruction: 0x47202c38
    1178:	414f4950 	cmpmi	pc, r0, asr r9	@ <UNPREDICTABLE>
    117c:	474d202c 	strbmi	r2, [sp, -ip, lsr #32]
    1180:	5f4f4950 	svcpl	0x004f4950
    1184:	384e4950 	stmdacc	lr, {r4, r6, r8, fp, lr}^
    1188:	4e4d202c 	cdpmi	0, 4, cr2, cr13, cr12, {1}
    118c:	5f434956 	svcpl	0x00434956
    1190:	49545845 	ldmdbmi	r4, {r0, r2, r6, fp, ip, lr}^
    1194:	5f355f39 	svcpl	0x00355f39
    1198:	7d515249 	lfmvc	f5, 2, [r1, #-292]	@ 0xfffffedc
    119c:	415f5f00 	cmpmi	pc, r0, lsl #30
    11a0:	4d554343 	ldclmi	3, cr4, [r5, #-268]	@ 0xfffffef4
    11a4:	4942465f 	stmdbmi	r2, {r0, r1, r2, r3, r4, r6, r9, sl, lr}^
    11a8:	205f5f54 	subscs	r5, pc, r4, asr pc	@ <UNPREDICTABLE>
    11ac:	5f003531 	svcpl	0x00003531
    11b0:	4341555f 	movtmi	r5, #5471	@ 0x155f
    11b4:	5f4d5543 	svcpl	0x004d5543
    11b8:	54494249 	strbpl	r4, [r9], #-585	@ 0xfffffdb7
    11bc:	31205f5f 			@ <UNDEFINED> instruction: 0x31205f5f
    11c0:	4e4d0036 	mcrmi	0, 2, r0, cr13, cr6, {1}
    11c4:	5f434956 	svcpl	0x00434956
    11c8:	504d4154 	subpl	r4, sp, r4, asr r1
    11cc:	495f5245 	ldmdbmi	pc, {r0, r2, r6, r9, ip, lr}^	@ <UNPREDICTABLE>
    11d0:	32205152 	eorcc	r5, r0, #-2147483628	@ 0x80000014
    11d4:	43324900 	teqmi	r2, #0, 18
    11d8:	3152535f 	cmpcc	r2, pc, asr r3
    11dc:	5f46415f 	svcpl	0x0046415f
    11e0:	206b734d 	rsbcs	r7, fp, sp, asr #6
    11e4:	31783028 	cmncc	r8, r8, lsr #32
    11e8:	3c204c55 	stccc	12, cr4, [r0], #-340	@ 0xfffffeac
    11ec:	3249203c 	subcc	r2, r9, #60	@ 0x3c
    11f0:	52535f43 	subspl	r5, r3, #268	@ 0x10c
    11f4:	46415f31 			@ <UNDEFINED> instruction: 0x46415f31
    11f8:	736f505f 	cmnvc	pc, #95	@ 0x5f
    11fc:	5f5f0029 	svcpl	0x005f0029
    1200:	5f544e49 	svcpl	0x00544e49
    1204:	54534146 	ldrbpl	r4, [r3], #-326	@ 0xfffffeba
    1208:	4d5f3436 	cfldrdmi	mvd3, [pc, #-216]	@ 1138 <_Min_Stack_Size+0xd38>
    120c:	5f5f5841 	svcpl	0x005f5841
    1210:	37783020 	ldrbcc	r3, [r8, -r0, lsr #32]!
    1214:	66666666 	strbtvs	r6, [r6], -r6, ror #12
    1218:	66666666 	strbtvs	r6, [r6], -r6, ror #12
    121c:	66666666 	strbtvs	r6, [r6], -r6, ror #12
    1220:	4c666666 	stclmi	6, cr6, [r6], #-408	@ 0xfffffe68
    1224:	5f5f004c 	svcpl	0x005f004c
    1228:	33544c46 	cmpcc	r4, #17920	@ 0x4600
    122c:	445f5832 	ldrbmi	r5, [pc], #-2098	@ 1234 <_Min_Stack_Size+0xe34>
    1230:	4d494345 	stclmi	3, cr4, [r9, #-276]	@ 0xfffffeec
    1234:	445f4c41 	ldrbmi	r4, [pc], #-3137	@ 123c <_Min_Stack_Size+0xe3c>
    1238:	5f5f4749 	svcpl	0x005f4749
    123c:	00373120 	eorseq	r3, r7, r0, lsr #2
    1240:	42445f5f 	submi	r5, r4, #380	@ 0x17c
    1244:	494d5f4c 	stmdbmi	sp, {r2, r3, r6, r8, r9, sl, fp, ip, lr}^
    1248:	205f5f4e 	subscs	r5, pc, lr, asr #30
    124c:	6f642828 	svcvs	0x00642828
    1250:	656c6275 	strbvs	r6, [ip, #-629]!	@ 0xfffffd8b
    1254:	322e3229 	eorcc	r3, lr, #-1879048190	@ 0x90000002
    1258:	37303532 			@ <UNDEFINED> instruction: 0x37303532
    125c:	38353833 	ldmdacc	r5!, {r0, r1, r4, r5, fp, ip, sp}
    1260:	32373035 	eorscc	r3, r7, #53	@ 0x35
    1264:	65343130 	ldrvs	r3, [r4, #-304]!	@ 0xfffffed0
    1268:	3830332d 	ldmdacc	r0!, {r0, r2, r3, r5, r8, r9, ip, sp}
    126c:	5f00294c 	svcpl	0x0000294c
    1270:	544c465f 	strbpl	r4, [ip], #-1631	@ 0xfffff9a1
    1274:	5f583233 	svcpl	0x00583233
    1278:	5f534148 	svcpl	0x00534148
    127c:	45495551 	strbmi	r5, [r9, #-1361]	@ 0xfffffaaf
    1280:	414e5f54 	cmpmi	lr, r4, asr pc
    1284:	205f5f4e 	subscs	r5, pc, lr, asr #30
    1288:	5f5f0031 	svcpl	0x005f0031
    128c:	33544c46 	cmpcc	r4, #17920	@ 0x4600
    1290:	455f5832 	ldrbmi	r5, [pc, #-2098]	@ a66 <_Min_Stack_Size+0x666>
    1294:	4c495350 	mcrrmi	3, 5, r5, r9, cr0
    1298:	5f5f4e4f 	svcpl	0x005f4e4f
    129c:	322e3220 	eorcc	r3, lr, #32, 4
    12a0:	34343032 	ldrtcc	r3, [r4], #-50	@ 0xffffffce
    12a4:	39343036 	ldmdbcc	r4!, {r1, r2, r4, r5, ip, sp}
    12a8:	33303532 	teqcc	r0, #209715200	@ 0xc800000
    12ac:	65313331 	ldrvs	r3, [r1, #-817]!	@ 0xfffffccf
    12b0:	4636312d 	ldrtmi	r3, [r6], -sp, lsr #2
    12b4:	00783233 	rsbseq	r3, r8, r3, lsr r2
    12b8:	695f5f5f 	ldmdbvs	pc, {r0, r1, r2, r3, r4, r6, r8, r9, sl, fp, ip, lr}^	@ <UNPREDICTABLE>
    12bc:	6c5f746e 	cfldrdvs	mvd7, [pc], {110}	@ 0x6e
    12c0:	74736165 	ldrbtvc	r6, [r3], #-357	@ 0xfffffe9b
    12c4:	745f3631 	ldrbvc	r3, [pc], #-1585	@ 12cc <_Min_Stack_Size+0xecc>
    12c8:	6665645f 			@ <UNDEFINED> instruction: 0x6665645f
    12cc:	64656e69 	strbtvs	r6, [r5], #-3689	@ 0xfffff197
    12d0:	4d003120 	stfmis	f3, [r0, #-128]	@ 0xffffff80
    12d4:	4f495047 	svcmi	0x00495047
    12d8:	6464755f 	strbtvs	r7, [r4], #-1375	@ 0xfffffaa1
    12dc:	696e4974 	stmdbvs	lr!, {r2, r4, r5, r6, r8, fp, lr}^
    12e0:	6e695074 	mcrvs	0, 3, r5, cr9, cr4, {3}
    12e4:	564e4d00 	strbpl	r4, [lr], -r0, lsl #26
    12e8:	445f4349 	ldrbmi	r4, [pc], #-841	@ 12f0 <_Min_Stack_Size+0xef0>
    12ec:	5f31414d 	svcpl	0x0031414d
    12f0:	6e616843 	cdpvs	8, 6, cr6, cr1, cr3, {2}
    12f4:	346c656e 	strbtcc	r6, [ip], #-1390	@ 0xfffffa92
    12f8:	5152495f 	cmppl	r2, pc, asr r9
    12fc:	00343120 	eorseq	r3, r4, r0, lsr #2
    1300:	4e495f5f 	mcrmi	15, 2, r5, cr9, cr15, {2}
    1304:	41465f54 	cmpmi	r6, r4, asr pc
    1308:	5f385453 	svcpl	0x00385453
    130c:	45505954 	ldrbmi	r5, [r0, #-2388]	@ 0xfffff6ac
    1310:	69205f5f 	stmdbvs	r0!, {r0, r1, r2, r3, r4, r6, r8, r9, sl, fp, ip, lr}
    1314:	4500746e 	strmi	r7, [r0, #-1134]	@ 0xfffffb92
    1318:	34495458 	strbcc	r5, [r9], #-1112	@ 0xfffffba8
    131c:	20344250 	eorscs	r4, r4, r0, asr r2
    1320:	58454d28 	stmdapl	r5, {r3, r5, r8, sl, fp, lr}^
    1324:	755f4954 	ldrbvc	r4, [pc, #-2388]	@ 9d8 <_Min_Stack_Size+0x5d8>
    1328:	47746464 	ldrbmi	r6, [r4, -r4, ror #8]!
    132c:	506f6970 	rsbpl	r6, pc, r0, ror r9	@ <UNPREDICTABLE>
    1330:	745f6e69 	ldrbvc	r6, [pc], #-3689	@ 1338 <_Min_Stack_Size+0xf38>
    1334:	454d7b29 	strbmi	r7, [sp, #-2857]	@ 0xfffff4d7
    1338:	5f495458 	svcpl	0x00495458
    133c:	454e494c 	strbmi	r4, [lr, #-2380]	@ 0xfffff6b4
    1340:	47202c34 			@ <UNDEFINED> instruction: 0x47202c34
    1344:	424f4950 	submi	r4, pc, #80, 18	@ 0x140000
    1348:	474d202c 	strbmi	r2, [sp, -ip, lsr #32]
    134c:	5f4f4950 	svcpl	0x004f4950
    1350:	344e4950 	strbcc	r4, [lr], #-2384	@ 0xfffff6b0
    1354:	4e4d202c 	cdpmi	0, 4, cr2, cr13, cr12, {1}
    1358:	5f434956 	svcpl	0x00434956
    135c:	49545845 	ldmdbmi	r4, {r0, r2, r6, fp, ip, lr}^
    1360:	52495f34 	subpl	r5, r9, #52, 30	@ 0xd0
    1364:	5f007d51 	svcpl	0x00007d51
    1368:	4144555f 	cmpmi	r4, pc, asr r5
    136c:	4942465f 	stmdbmi	r2, {r0, r1, r2, r3, r4, r6, r9, sl, lr}^
    1370:	205f5f54 	subscs	r5, pc, r4, asr pc	@ <UNPREDICTABLE>
    1374:	45003233 	strmi	r3, [r0, #-563]	@ 0xfffffdcd
    1378:	31495458 	cmpcc	r9, r8, asr r4
    137c:	31435033 	cmpcc	r3, r3, lsr r0
    1380:	4d282033 	stcmi	0, cr2, [r8, #-204]!	@ 0xffffff34
    1384:	49545845 	ldmdbmi	r4, {r0, r2, r6, fp, ip, lr}^
    1388:	6464755f 	strbtvs	r7, [r4], #-1375	@ 0xfffffaa1
    138c:	69704774 	ldmdbvs	r0!, {r2, r4, r5, r6, r8, r9, sl, lr}^
    1390:	6e69506f 	cdpvs	0, 6, cr5, cr9, cr15, {3}
    1394:	7b29745f 	blvc	a5e518 <_Min_Stack_Size+0xa5e118>
    1398:	5458454d 	ldrbpl	r4, [r8], #-1357	@ 0xfffffab3
    139c:	494c5f49 	stmdbmi	ip, {r0, r3, r6, r8, r9, sl, fp, ip, lr}^
    13a0:	3331454e 	teqcc	r1, #327155712	@ 0x13800000
    13a4:	5047202c 	subpl	r2, r7, ip, lsr #32
    13a8:	2c434f49 	mcrrcs	15, 4, r4, r3, cr9
    13ac:	50474d20 	subpl	r4, r7, r0, lsr #26
    13b0:	505f4f49 	subspl	r4, pc, r9, asr #30
    13b4:	33314e49 	teqcc	r1, #1168	@ 0x490
    13b8:	4e4d202c 	cdpmi	0, 4, cr2, cr13, cr12, {1}
    13bc:	5f434956 	svcpl	0x00434956
    13c0:	49545845 	ldmdbmi	r4, {r0, r2, r6, fp, ip, lr}^
    13c4:	315f3531 	cmpcc	pc, r1, lsr r5	@ <UNPREDICTABLE>
    13c8:	52495f30 	subpl	r5, r9, #48, 30	@ 0xc0
    13cc:	5f007d51 	svcpl	0x00007d51
    13d0:	4e49555f 	mcrmi	5, 2, r5, cr9, cr15, {2}
    13d4:	58414d54 	stmdapl	r1, {r2, r4, r6, r8, sl, fp, lr}^
    13d8:	6328435f 			@ <UNDEFINED> instruction: 0x6328435f
    13dc:	20632029 	rsbcs	r2, r3, r9, lsr #32
    13e0:	55202323 	strpl	r2, [r0, #-803]!	@ 0xfffffcdd
    13e4:	49004c4c 	stmdbmi	r0, {r2, r3, r6, sl, fp, lr}
    13e8:	535f4332 	cmppl	pc, #-939524096	@ 0xc8000000
    13ec:	4d5f3252 	lfmmi	f3, 2, [pc, #-328]	@ 12ac <_Min_Stack_Size+0xeac>
    13f0:	505f4c53 	subspl	r4, pc, r3, asr ip	@ <UNPREDICTABLE>
    13f4:	2820736f 	stmdacs	r0!, {r0, r1, r2, r3, r5, r6, r8, r9, ip, sp, lr}
    13f8:	00295530 	eoreq	r5, r9, r0, lsr r5
    13fc:	49535f5f 	ldmdbmi	r3, {r0, r1, r2, r3, r4, r6, r8, r9, sl, fp, ip, lr}^
    1400:	464f455a 			@ <UNDEFINED> instruction: 0x464f455a
    1404:	494f505f 	stmdbmi	pc, {r0, r1, r2, r3, r4, r6, ip, lr}^	@ <UNPREDICTABLE>
    1408:	5245544e 	subpl	r5, r5, #1308622848	@ 0x4e000000
    140c:	34205f5f 	strtcc	r5, [r0], #-3935	@ 0xfffff0a1
    1410:	495f5f00 	ldmdbmi	pc, {r8, r9, sl, fp, ip, lr}^	@ <UNPREDICTABLE>
    1414:	4c5f544e 	cfldrdmi	mvd5, [pc], {78}	@ 0x4e
    1418:	54534145 	ldrbpl	r4, [r3], #-325	@ 0xfffffebb
    141c:	59545f38 	ldmdbpl	r4, {r3, r4, r5, r8, r9, sl, fp, ip, lr}^
    1420:	5f5f4550 	svcpl	0x005f4550
    1424:	67697320 	strbvs	r7, [r9, -r0, lsr #6]!
    1428:	2064656e 	rsbcs	r6, r4, lr, ror #10
    142c:	72616863 	rsbvc	r6, r1, #6488064	@ 0x630000
    1430:	524c4300 	subpl	r4, ip, #0, 6
    1434:	5449425f 	strbpl	r4, [r9], #-607	@ 0xfffffda1
    1438:	45522853 	ldrbmi	r2, [r2, #-2131]	@ 0xfffff7ad
    143c:	534d2c47 	movtpl	r2, #56391	@ 0xdc47
    1440:	2820294b 	stmdacs	r0!, {r0, r1, r3, r6, r8, fp, sp}
    1444:	29474552 	stmdbcs	r7, {r1, r4, r6, r8, sl, lr}^
    1448:	203d2620 	eorscs	r2, sp, r0, lsr #12
    144c:	534d287e 	movtpl	r2, #55422	@ 0xd87e
    1450:	4500294b 	strmi	r2, [r0, #-2379]	@ 0xfffff6b5
    1454:	39495458 	stmdbcc	r9, {r3, r4, r6, sl, ip, lr}^
    1458:	20394350 	eorscs	r4, r9, r0, asr r3
    145c:	58454d28 	stmdapl	r5, {r3, r5, r8, sl, fp, lr}^
    1460:	755f4954 	ldrbvc	r4, [pc, #-2388]	@ b14 <_Min_Stack_Size+0x714>
    1464:	47746464 	ldrbmi	r6, [r4, -r4, ror #8]!
    1468:	506f6970 	rsbpl	r6, pc, r0, ror r9	@ <UNPREDICTABLE>
    146c:	745f6e69 	ldrbvc	r6, [pc], #-3689	@ 1474 <_Min_Stack_Size+0x1074>
    1470:	454d7b29 	strbmi	r7, [sp, #-2857]	@ 0xfffff4d7
    1474:	5f495458 	svcpl	0x00495458
    1478:	454e494c 	strbmi	r4, [lr, #-2380]	@ 0xfffff6b4
    147c:	47202c39 			@ <UNDEFINED> instruction: 0x47202c39
    1480:	434f4950 	movtmi	r4, #63824	@ 0xf950
    1484:	474d202c 	strbmi	r2, [sp, -ip, lsr #32]
    1488:	5f4f4950 	svcpl	0x004f4950
    148c:	394e4950 	stmdbcc	lr, {r4, r6, r8, fp, lr}^
    1490:	4e4d202c 	cdpmi	0, 4, cr2, cr13, cr12, {1}
    1494:	5f434956 	svcpl	0x00434956
    1498:	49545845 	ldmdbmi	r4, {r0, r2, r6, fp, ip, lr}^
    149c:	5f355f39 	svcpl	0x00355f39
    14a0:	7d515249 	lfmvc	f5, 2, [r1, #-292]	@ 0xfffffedc
    14a4:	475f5f00 	ldrbmi	r5, [pc, -r0, lsl #30]
    14a8:	415f4343 	cmpmi	pc, r3, asr #6
    14ac:	494d4f54 	stmdbmi	sp, {r2, r4, r6, r8, r9, sl, fp, lr}^
    14b0:	4f425f43 	svcmi	0x00425f43
    14b4:	4c5f4c4f 	mrrcmi	12, 4, r4, pc, cr15	@ <UNPREDICTABLE>
    14b8:	5f4b434f 	svcpl	0x004b434f
    14bc:	45455246 	strbmi	r5, [r5, #-582]	@ 0xfffffdba
    14c0:	5f003220 	svcpl	0x00003220
    14c4:	6e695f5f 	mcrvs	15, 3, r5, cr9, cr15, {2}
    14c8:	5f343674 	svcpl	0x00343674
    14cc:	65645f74 	strbvs	r5, [r4, #-3956]!	@ 0xfffff08c
    14d0:	656e6966 	strbvs	r6, [lr, #-2406]!	@ 0xfffff69a
    14d4:	00312064 	eorseq	r2, r1, r4, rrx
    14d8:	4950474d 	ldmdbmi	r0, {r0, r2, r3, r6, r8, r9, sl, lr}^
    14dc:	30315f4f 	eorscc	r5, r1, pc, asr #30
    14e0:	5f5a484d 	svcpl	0x005a484d
    14e4:	45455053 	strbmi	r5, [r5, #-83]	@ 0xffffffad
    14e8:	5f5f0044 	svcpl	0x005f0044
    14ec:	5f4d5241 	svcpl	0x004d5241
    14f0:	4e4f454e 	cdpmi	5, 4, cr4, cr15, cr14, {2}
    14f4:	55005f5f 	strpl	r5, [r0, #-3935]	@ 0xfffff0a1
    14f8:	50544e49 	subspl	r4, r4, r9, asr #28
    14fc:	4d5f5254 	lfmmi	f5, 2, [pc, #-336]	@ 13b4 <_Min_Stack_Size+0xfb4>
    1500:	28205841 	stmdacs	r0!, {r0, r6, fp, ip, lr}
    1504:	49555f5f 	ldmdbmi	r5, {r0, r1, r2, r3, r4, r6, r8, r9, sl, fp, ip, lr}^
    1508:	5450544e 	ldrbpl	r5, [r0], #-1102	@ 0xfffffbb2
    150c:	414d5f52 	cmpmi	sp, r2, asr pc
    1510:	295f5f58 	ldmdbcs	pc, {r3, r4, r6, r8, r9, sl, fp, ip, lr}^	@ <UNPREDICTABLE>
    1514:	465f5f00 	ldrbmi	r5, [pc], -r0, lsl #30
    1518:	3233544c 	eorscc	r5, r3, #76, 8	@ 0x4c000000
    151c:	58414d5f 	stmdapl	r1, {r0, r1, r2, r3, r4, r6, r8, sl, fp, lr}^
    1520:	5058455f 	subspl	r4, r8, pc, asr r5
    1524:	31205f5f 			@ <UNDEFINED> instruction: 0x31205f5f
    1528:	5f003832 	svcpl	0x00003832
    152c:	5548545f 	strbpl	r5, [r8, #-1119]	@ 0xfffffba1
    1530:	495f424d 	ldmdbmi	pc, {r0, r2, r3, r6, r9, lr}^	@ <UNPREDICTABLE>
    1534:	5245544e 	subpl	r5, r5, #1308622848	@ 0x4e000000
    1538:	4b524f57 	blmi	149529c <_Min_Stack_Size+0x1494e9c>
    153c:	31205f5f 			@ <UNDEFINED> instruction: 0x31205f5f
    1540:	555f5f00 	ldrbpl	r5, [pc, #-3840]	@ 648 <_Min_Stack_Size+0x248>
    1544:	52464c4c 	subpl	r4, r6, #76, 24	@ 0x4c00
    1548:	5f544341 	svcpl	0x00544341
    154c:	5f58414d 	svcpl	0x0058414d
    1550:	5830205f 	ldmdapl	r0!, {r0, r1, r2, r3, r4, r6, sp}
    1554:	46464646 	strbmi	r4, [r6], -r6, asr #12
    1558:	46464646 	strbmi	r4, [r6], -r6, asr #12
    155c:	46464646 	strbmi	r4, [r6], -r6, asr #12
    1560:	46464646 	strbmi	r4, [r6], -r6, asr #12
    1564:	34362d50 	ldrtcc	r2, [r6], #-3408	@ 0xfffff2b0
    1568:	524c4c55 	subpl	r4, ip, #21760	@ 0x5500
    156c:	53545200 	cmppl	r4, #0, 4
    1570:	5f5f0052 	svcpl	0x005f0052
    1574:	43554e47 	cmpmi	r5, #1136	@ 0x470
    1578:	4449575f 	strbmi	r5, [r9], #-1887	@ 0xfffff8a1
    157c:	58455f45 	stmdapl	r5, {r0, r2, r6, r8, r9, sl, fp, ip, lr}^
    1580:	54554345 	ldrbpl	r4, [r5], #-837	@ 0xfffffcbb
    1584:	5f4e4f49 	svcpl	0x004e4f49
    1588:	52414843 	subpl	r4, r1, #4390912	@ 0x430000
    158c:	5f544553 	svcpl	0x00544553
    1590:	454d414e 	strbmi	r4, [sp, #-334]	@ 0xfffffeb2
    1594:	54552220 	ldrbpl	r2, [r5], #-544	@ 0xfffffde0
    1598:	32332d46 	eorscc	r2, r3, #4480	@ 0x1180
    159c:	0022454c 	eoreq	r4, r2, ip, asr #10
    15a0:	4e49555f 	mcrmi	5, 2, r5, cr9, cr15, {2}
    15a4:	5f343654 	svcpl	0x00343654
    15a8:	45445f54 	strbmi	r5, [r4, #-3924]	@ 0xfffff0ac
    15ac:	52414c43 	subpl	r4, r1, #17152	@ 0x4300
    15b0:	00204445 	eoreq	r4, r0, r5, asr #8
    15b4:	49545845 	ldmdbmi	r4, {r0, r2, r6, fp, ip, lr}^
    15b8:	30415030 	subcc	r5, r1, r0, lsr r0
    15bc:	454d2820 	strbmi	r2, [sp, #-2080]	@ 0xfffff7e0
    15c0:	5f495458 	svcpl	0x00495458
    15c4:	74646475 	strbtvc	r6, [r4], #-1141	@ 0xfffffb8b
    15c8:	6f697047 	svcvs	0x00697047
    15cc:	5f6e6950 	svcpl	0x006e6950
    15d0:	4d7b2974 			@ <UNDEFINED> instruction: 0x4d7b2974
    15d4:	49545845 	ldmdbmi	r4, {r0, r2, r6, fp, ip, lr}^
    15d8:	4e494c5f 	mcrmi	12, 2, r4, cr9, cr15, {2}
    15dc:	202c3045 	eorcs	r3, ip, r5, asr #32
    15e0:	4f495047 	svcmi	0x00495047
    15e4:	4d202c41 	stcmi	12, cr2, [r0, #-260]!	@ 0xfffffefc
    15e8:	4f495047 	svcmi	0x00495047
    15ec:	4e49505f 	mcrmi	0, 2, r5, cr9, cr15, {2}
    15f0:	4d202c30 	stcmi	12, cr2, [r0, #-192]!	@ 0xffffff40
    15f4:	4349564e 	movtmi	r5, #38478	@ 0x964e
    15f8:	5458455f 	ldrbpl	r4, [r8], #-1375	@ 0xfffffaa1
    15fc:	495f3049 	ldmdbmi	pc, {r0, r3, r6, ip, sp}^	@ <UNPREDICTABLE>
    1600:	007d5152 	rsbseq	r5, sp, r2, asr r1
    1604:	48435f5f 	stmdami	r3, {r0, r1, r2, r3, r4, r6, r8, r9, sl, fp, ip, lr}^
    1608:	32335241 	eorscc	r5, r3, #268435460	@ 0x10000004
    160c:	5059545f 	subspl	r5, r9, pc, asr r4
    1610:	205f5f45 	subscs	r5, pc, r5, asr #30
    1614:	676e6f6c 	strbvs	r6, [lr, -ip, ror #30]!
    1618:	736e7520 	cmnvc	lr, #32, 10	@ 0x8000000
    161c:	656e6769 	strbvs	r6, [lr, #-1897]!	@ 0xfffff897
    1620:	6e692064 	cdpvs	0, 6, cr2, cr9, cr4, {3}
    1624:	38750074 	ldmdacc	r5!, {r2, r4, r5, r6}^
    1628:	49747649 	ldmdbmi	r4!, {r0, r3, r6, r9, sl, ip, sp, lr}^
    162c:	754e5152 	strbvc	r5, [lr, #-338]	@ 0xfffffeae
    1630:	7265626d 	rsbvc	r6, r5, #-805306362	@ 0xd0000006
    1634:	415f5f00 	cmpmi	pc, r0, lsl #30
    1638:	465f4d52 			@ <UNDEFINED> instruction: 0x465f4d52
    163c:	55544145 	ldrbpl	r4, [r4, #-325]	@ 0xfffffebb
    1640:	465f4552 			@ <UNDEFINED> instruction: 0x465f4552
    1644:	5f363150 	svcpl	0x00363150
    1648:	54434556 	strbpl	r4, [r3], #-1366	@ 0xfffffaaa
    164c:	415f524f 	cmpmi	pc, pc, asr #4
    1650:	48544952 	ldmdami	r4, {r1, r4, r6, r8, fp, lr}^
    1654:	4954454d 	ldmdbmi	r4, {r0, r2, r3, r6, r8, sl, lr}^
    1658:	32490043 	subcc	r0, r9, #67	@ 0x43
    165c:	52435f43 	subpl	r5, r3, #268	@ 0x10c
    1660:	54535f31 	ldrbpl	r5, [r3], #-3889	@ 0xfffff0cf
    1664:	4d5f504f 	ldclmi	0, cr5, [pc, #-316]	@ 1530 <_Min_Stack_Size+0x1130>
    1668:	28206b73 	stmdacs	r0!, {r0, r1, r4, r5, r6, r8, r9, fp, sp, lr}
    166c:	55317830 	ldrpl	r7, [r1, #-2096]!	@ 0xfffff7d0
    1670:	3c3c204c 	ldccc	0, cr2, [ip], #-304	@ 0xfffffed0
    1674:	43324920 	teqmi	r2, #32, 18	@ 0x80000
    1678:	3152435f 	cmpcc	r2, pc, asr r3
    167c:	4f54535f 	svcmi	0x0054535f
    1680:	6f505f50 	svcvs	0x00505f50
    1684:	5f002973 	svcpl	0x00002973
    1688:	49534f50 	ldmdbmi	r3, {r4, r6, r8, r9, sl, fp, lr}^
    168c:	5f435f58 	svcpl	0x00435f58
    1690:	52554f53 	subspl	r4, r5, #332	@ 0x14c
    1694:	32204543 	eorcc	r4, r0, #281018368	@ 0x10c00000
    1698:	30383030 	eorscc	r3, r8, r0, lsr r0
    169c:	5f004c39 	svcpl	0x00004c39
    16a0:	4c42445f 	cfstrdmi	mvd4, [r2], {95}	@ 0x5f
    16a4:	5f53495f 	svcpl	0x0053495f
    16a8:	5f434549 	svcpl	0x00434549
    16ac:	35353036 	ldrcc	r3, [r5, #-54]!	@ 0xffffffca
    16b0:	205f5f39 	subscs	r5, pc, r9, lsr pc	@ <UNPREDICTABLE>
    16b4:	5f5f0032 	svcpl	0x005f0032
    16b8:	544e4955 	strbpl	r4, [lr], #-2389	@ 0xfffff6ab
    16bc:	5341465f 	movtpl	r4, #5727	@ 0x165f
    16c0:	5f323354 	svcpl	0x00323354
    16c4:	5f58414d 	svcpl	0x0058414d
    16c8:	7830205f 	ldmdavc	r0!, {r0, r1, r2, r3, r4, r6, sp}
    16cc:	66666666 	strbtvs	r6, [r6], -r6, ror #12
    16d0:	66666666 	strbtvs	r6, [r6], -r6, ror #12
    16d4:	4f430055 	svcmi	0x00430055
    16d8:	58455452 	stmdapl	r5, {r1, r4, r6, sl, ip, lr}^
    16dc:	5f334d5f 	svcpl	0x00334d5f
    16e0:	45544e49 	ldrbmi	r4, [r4, #-3657]	@ 0xfffff1b7
    16e4:	4c414e52 	mcrrmi	14, 5, r4, r1, cr2
    16e8:	5245505f 	subpl	r5, r5, #95	@ 0x5f
    16ec:	45485049 	strbmi	r5, [r8, #-73]	@ 0xffffffb7
    16f0:	534c4152 	movtpl	r4, #49490	@ 0xc152
    16f4:	5341425f 	movtpl	r4, #4703	@ 0x125f
    16f8:	78302045 	ldmdavc	r0!, {r0, r2, r6, sp}
    16fc:	30303045 	eorscc	r3, r0, r5, asr #32
    1700:	30303030 	eorscc	r3, r0, r0, lsr r0
    1704:	5f004c55 	svcpl	0x00004c55
    1708:	544c465f 	strbpl	r4, [ip], #-1631	@ 0xfffff9a1
    170c:	58414d5f 	stmdapl	r1, {r0, r1, r2, r3, r4, r6, r8, sl, fp, lr}^
    1710:	5058455f 	subspl	r4, r8, pc, asr r5
    1714:	31205f5f 			@ <UNDEFINED> instruction: 0x31205f5f
    1718:	43003832 	movwmi	r3, #2098	@ 0x832
    171c:	425f524c 	subsmi	r5, pc, #76, 4	@ 0xc0000004
    1720:	52285449 	eorpl	r5, r8, #1224736768	@ 0x49000000
    1724:	422c4745 	eormi	r4, ip, #18087936	@ 0x1140000
    1728:	4e5f5449 	cdpmi	4, 5, cr5, cr15, cr9, {2}
    172c:	45424d55 	strbmi	r4, [r2, #-3413]	@ 0xfffff2ab
    1730:	28202952 	stmdacs	r0!, {r1, r4, r6, r8, fp, sp}
    1734:	20474552 	subcs	r4, r7, r2, asr r5
    1738:	28203d26 	stmdacs	r0!, {r1, r2, r5, r8, sl, fp, ip, sp}
    173c:	2031287e 	eorscs	r2, r1, lr, ror r8
    1740:	42203c3c 	eormi	r3, r0, #60, 24	@ 0x3c00
    1744:	4e5f5449 	cdpmi	4, 5, cr5, cr15, cr9, {2}
    1748:	45424d55 	strbmi	r4, [r2, #-3413]	@ 0xfffff2ab
    174c:	29292952 	stmdbcs	r9!, {r1, r4, r6, r8, fp, sp}
    1750:	54584500 	ldrbpl	r4, [r8], #-1280	@ 0xfffffb00
    1754:	50353149 	eorspl	r3, r5, r9, asr #2
    1758:	20353141 	eorscs	r3, r5, r1, asr #2
    175c:	58454d28 	stmdapl	r5, {r3, r5, r8, sl, fp, lr}^
    1760:	755f4954 	ldrbvc	r4, [pc, #-2388]	@ e14 <_Min_Stack_Size+0xa14>
    1764:	47746464 	ldrbmi	r6, [r4, -r4, ror #8]!
    1768:	506f6970 	rsbpl	r6, pc, r0, ror r9	@ <UNPREDICTABLE>
    176c:	745f6e69 	ldrbvc	r6, [pc], #-3689	@ 1774 <_Min_Stack_Size+0x1374>
    1770:	454d7b29 	strbmi	r7, [sp, #-2857]	@ 0xfffff4d7
    1774:	5f495458 	svcpl	0x00495458
    1778:	454e494c 	strbmi	r4, [lr, #-2380]	@ 0xfffff6b4
    177c:	202c3531 	eorcs	r3, ip, r1, lsr r5
    1780:	4f495047 	svcmi	0x00495047
    1784:	4d202c41 	stcmi	12, cr2, [r0, #-260]!	@ 0xfffffefc
    1788:	4f495047 	svcmi	0x00495047
    178c:	4e49505f 	mcrmi	0, 2, r5, cr9, cr15, {2}
    1790:	202c3531 	eorcs	r3, ip, r1, lsr r5
    1794:	49564e4d 	ldmdbmi	r6, {r0, r2, r3, r6, r9, sl, fp, lr}^
    1798:	58455f43 	stmdapl	r5, {r0, r1, r6, r8, r9, sl, fp, ip, lr}^
    179c:	35314954 	ldrcc	r4, [r1, #-2388]!	@ 0xfffff6ac
    17a0:	5f30315f 	svcpl	0x0030315f
    17a4:	7d515249 	lfmvc	f5, 2, [r1, #-292]	@ 0xfffffedc
    17a8:	564e4d00 	strbpl	r4, [lr], -r0, lsl #26
    17ac:	545f4349 	ldrbpl	r4, [pc], #-841	@ 17b4 <_Min_Stack_Size+0x13b4>
    17b0:	5f374d49 	svcpl	0x00374d49
    17b4:	20515249 	subscs	r5, r1, r9, asr #4
    17b8:	49003535 	stmdbmi	r0, {r0, r2, r4, r5, r8, sl, ip, sp}
    17bc:	535f4332 	cmppl	pc, #-939524096	@ 0xc8000000
    17c0:	445f3252 	ldrbmi	r3, [pc], #-594	@ 17c8 <_Min_Stack_Size+0x13c8>
    17c4:	464c4155 			@ <UNDEFINED> instruction: 0x464c4155
    17c8:	6b734d5f 	blvs	1cd4d4c <_Min_Stack_Size+0x1cd494c>
    17cc:	78302820 	ldmdavc	r0!, {r5, fp, sp}
    17d0:	204c5531 	subcs	r5, ip, r1, lsr r5
    17d4:	49203c3c 	stmdbmi	r0!, {r2, r3, r4, r5, sl, fp, ip, sp}
    17d8:	535f4332 	cmppl	pc, #-939524096	@ 0xc8000000
    17dc:	445f3252 	ldrbmi	r3, [pc], #-594	@ 17e4 <_Min_Stack_Size+0x13e4>
    17e0:	464c4155 			@ <UNDEFINED> instruction: 0x464c4155
    17e4:	736f505f 	cmnvc	pc, #95	@ 0x5f
    17e8:	32490029 	subcc	r0, r9, #41	@ 0x29
    17ec:	52535f43 	subspl	r5, r3, #268	@ 0x10c
    17f0:	45475f32 	strbmi	r5, [r7, #-3890]	@ 0xfffff0ce
    17f4:	4c41434e 	mcrrmi	3, 4, r4, r1, cr14
    17f8:	734d5f4c 	movtvc	r5, #57164	@ 0xdf4c
    17fc:	3028206b 	eorcc	r2, r8, fp, rrx
    1800:	4c553178 	ldfmie	f3, [r5], {120}	@ 0x78
    1804:	203c3c20 	eorscs	r3, ip, r0, lsr #24
    1808:	5f433249 	svcpl	0x00433249
    180c:	5f325253 	svcpl	0x00325253
    1810:	434e4547 	movtmi	r4, #58695	@ 0xe547
    1814:	5f4c4c41 	svcpl	0x004c4c41
    1818:	29736f50 	ldmdbcs	r3!, {r4, r6, r8, r9, sl, fp, sp, lr}^
    181c:	564e4d00 	strbpl	r4, [lr], -r0, lsl #26
    1820:	535f4349 	cmppl	pc, #603979777	@ 0x24000001
    1824:	5f334950 	svcpl	0x00334950
    1828:	20515249 	subscs	r5, r1, r9, asr #4
    182c:	5f003135 	svcpl	0x00003135
    1830:	5a49535f 	bpl	12565b4 <_Min_Stack_Size+0x12561b4>
    1834:	5f464f45 	svcpl	0x00464f45
    1838:	42554f44 	subsmi	r4, r5, #68, 30	@ 0x110
    183c:	5f5f454c 	svcpl	0x005f454c
    1840:	5f003820 	svcpl	0x00003820
    1844:	544e495f 	strbpl	r4, [lr], #-2399	@ 0xfffff6a1
    1848:	41454c5f 	cmpmi	r5, pc, asr ip
    184c:	32335453 	eorscc	r5, r3, #1392508928	@ 0x53000000
    1850:	4449575f 	strbmi	r5, [r9], #-1887	@ 0xfffff8a1
    1854:	5f5f4854 	svcpl	0x005f4854
    1858:	00323320 	eorseq	r3, r2, r0, lsr #6
    185c:	49564e4d 	ldmdbmi	r6, {r0, r2, r3, r6, r9, sl, fp, lr}^
    1860:	53555f43 	cmppl	r5, #268	@ 0x10c
    1864:	504c5f42 	subpl	r5, ip, r2, asr #30
    1868:	4e41435f 	mcrmi	3, 2, r4, cr1, cr15, {2}
    186c:	3058525f 	subscc	r5, r8, pc, asr r2
    1870:	5152495f 	cmppl	r2, pc, asr r9
    1874:	00303220 	eorseq	r3, r0, r0, lsr #4
    1878:	4950474d 	ldmdbmi	r0, {r0, r2, r3, r6, r8, r9, sl, lr}^
    187c:	4e495f4f 	cdpmi	15, 4, cr5, cr9, cr15, {2}
    1880:	5f545550 	svcpl	0x00545550
    1884:	4d5f4c46 	ldclmi	12, cr4, [pc, #-280]	@ 1774 <_Min_Stack_Size+0x1374>
    1888:	0045444f 	subeq	r4, r5, pc, asr #8
    188c:	41465f5f 	cmpmi	r6, pc, asr pc
    1890:	36315453 			@ <UNDEFINED> instruction: 0x36315453
    1894:	454d0020 	strbmi	r0, [sp, #-32]	@ 0xffffffe0
    1898:	5f495458 	svcpl	0x00495458
    189c:	47495254 	smlsldmi	r5, r9, r4, r2
    18a0:	5f524547 	svcpl	0x00524547
    18a4:	49534952 	ldmdbmi	r3, {r1, r4, r6, r8, fp, lr}^
    18a8:	5f00474e 	svcpl	0x0000474e
    18ac:	52414c5f 	subpl	r4, r1, #24320	@ 0x5f00
    18b0:	49464547 	stmdbmi	r6, {r0, r1, r2, r6, r8, sl, lr}^
    18b4:	565f454c 	ldrbpl	r4, [pc], -ip, asr #10
    18b8:	42495349 	submi	r5, r9, #603979777	@ 0x24000001
    18bc:	3020454c 	eorcc	r4, r0, ip, asr #10
    18c0:	43324900 	teqmi	r2, #0, 18
    18c4:	3252435f 	subscc	r4, r2, #2080374785	@ 0x7c000001
    18c8:	4254495f 	subsmi	r4, r4, #1556480	@ 0x17c000
    18cc:	4e454655 	mcrmi	6, 2, r4, cr5, cr5, {2}
    18d0:	736f505f 	cmnvc	pc, #95	@ 0x5f
    18d4:	30312820 	eorscc	r2, r1, r0, lsr #16
    18d8:	5f002955 	svcpl	0x00002955
    18dc:	57454e5f 	smlsldpl	r4, r5, pc, lr	@ <UNPREDICTABLE>
    18e0:	5f42494c 	svcpl	0x0042494c
    18e4:	0034205f 	eorseq	r2, r4, pc, asr r0
    18e8:	5f433249 	svcpl	0x00433249
    18ec:	5f315253 	svcpl	0x00315253
    18f0:	454d4954 	strbmi	r4, [sp, #-2388]	@ 0xfffff6ac
    18f4:	2054554f 	subscs	r5, r4, pc, asr #10
    18f8:	5f433249 	svcpl	0x00433249
    18fc:	5f315253 	svcpl	0x00315253
    1900:	454d4954 	strbmi	r4, [sp, #-2388]	@ 0xfffff6ac
    1904:	5f54554f 	svcpl	0x0054554f
    1908:	006b734d 	rsbeq	r7, fp, sp, asr #6
    190c:	54555f5f 	ldrbpl	r5, [r5], #-3935	@ 0xfffff0a1
    1910:	42465f41 	submi	r5, r6, #260	@ 0x104
    1914:	5f5f5449 	svcpl	0x005f5449
    1918:	00343620 	eorseq	r3, r4, r0, lsr #12
    191c:	4c465f5f 	mcrrmi	15, 5, r5, r6, cr15
    1920:	45445f54 	strbmi	r5, [r4, #-3924]	@ 0xfffff0ac
    1924:	414d4943 	cmpmi	sp, r3, asr #18
    1928:	49445f4c 	stmdbmi	r4, {r2, r3, r6, r8, r9, sl, fp, ip, lr}^
    192c:	205f5f47 	subscs	r5, pc, r7, asr #30
    1930:	555f0039 	ldrbpl	r0, [pc, #-57]	@ 18ff <_Min_Stack_Size+0x14ff>
    1934:	38544e49 	ldmdacc	r4, {r0, r3, r6, r9, sl, fp, lr}^
    1938:	445f545f 	ldrbmi	r5, [pc], #-1119	@ 1940 <_Min_Stack_Size+0x1540>
    193c:	414c4345 	cmpmi	ip, r5, asr #6
    1940:	20444552 	subcs	r4, r4, r2, asr r5
    1944:	54584500 	ldrbpl	r4, [r8], #-1280	@ 0xfffffb00
    1948:	42503649 	subsmi	r3, r0, #76546048	@ 0x4900000
    194c:	4d282036 	stcmi	0, cr2, [r8, #-216]!	@ 0xffffff28
    1950:	49545845 	ldmdbmi	r4, {r0, r2, r6, fp, ip, lr}^
    1954:	6464755f 	strbtvs	r7, [r4], #-1375	@ 0xfffffaa1
    1958:	69704774 	ldmdbvs	r0!, {r2, r4, r5, r6, r8, r9, sl, lr}^
    195c:	6e69506f 	cdpvs	0, 6, cr5, cr9, cr15, {3}
    1960:	7b29745f 	blvc	a5eae4 <_Min_Stack_Size+0xa5e6e4>
    1964:	5458454d 	ldrbpl	r4, [r8], #-1357	@ 0xfffffab3
    1968:	494c5f49 	stmdbmi	ip, {r0, r3, r6, r8, r9, sl, fp, ip, lr}^
    196c:	2c36454e 	cfldr32cs	mvfx4, [r6], #-312	@ 0xfffffec8
    1970:	49504720 	ldmdbmi	r0, {r5, r8, r9, sl, lr}^
    1974:	202c424f 	eorcs	r4, ip, pc, asr #4
    1978:	4950474d 	ldmdbmi	r0, {r0, r2, r3, r6, r8, r9, sl, lr}^
    197c:	49505f4f 	ldmdbmi	r0, {r0, r1, r2, r3, r6, r8, r9, sl, fp, ip, lr}^
    1980:	202c364e 	eorcs	r3, ip, lr, asr #12
    1984:	49564e4d 	ldmdbmi	r6, {r0, r2, r3, r6, r9, sl, fp, lr}^
    1988:	58455f43 	stmdapl	r5, {r0, r1, r6, r8, r9, sl, fp, ip, lr}^
    198c:	5f394954 	svcpl	0x00394954
    1990:	52495f35 	subpl	r5, r9, #53, 30	@ 0xd4
    1994:	49007d51 	stmdbmi	r0, {r0, r4, r6, r8, sl, fp, ip, sp, lr}
    1998:	535f4332 	cmppl	pc, #-939524096	@ 0xc8000000
    199c:	545f3152 	ldrbpl	r3, [pc], #-338	@ 19a4 <_Min_Stack_Size+0x15a4>
    19a0:	4f454d49 	svcmi	0x00454d49
    19a4:	4d5f5455 	cfldrdmi	mvd5, [pc, #-340]	@ 1858 <_Min_Stack_Size+0x1458>
    19a8:	28206b73 	stmdacs	r0!, {r0, r1, r4, r5, r6, r8, r9, fp, sp, lr}
    19ac:	55317830 	ldrpl	r7, [r1, #-2096]!	@ 0xfffff7d0
    19b0:	3c3c204c 	ldccc	0, cr2, [ip], #-304	@ 0xfffffed0
    19b4:	43324920 	teqmi	r2, #32, 18	@ 0x80000
    19b8:	3152535f 	cmpcc	r2, pc, asr r3
    19bc:	4d49545f 	cfstrdmi	mvd5, [r9, #-380]	@ 0xfffffe84
    19c0:	54554f45 	ldrbpl	r4, [r5], #-3909	@ 0xfffff0bb
    19c4:	736f505f 	cmnvc	pc, #95	@ 0x5f
    19c8:	4e490029 	cdpmi	0, 4, cr0, cr9, cr9, {1}
    19cc:	58414d54 	stmdapl	r1, {r2, r4, r6, r8, sl, fp, lr}^
    19d0:	4e494d5f 	mcrmi	13, 2, r4, cr9, cr15, {2}
    19d4:	492d2820 	pushmi	{r5, fp, sp}
    19d8:	414d544e 	cmpmi	sp, lr, asr #8
    19dc:	414d5f58 	cmpmi	sp, r8, asr pc
    19e0:	202d2058 	eorcs	r2, sp, r8, asr r0
    19e4:	4d002931 	vstrmi.16	s4, [r0, #-98]	@ 0xffffff9e	@ <UNPREDICTABLE>
    19e8:	4349564e 	movtmi	r5, #38478	@ 0x964e
    19ec:	4d49545f 	cfstrdmi	mvd5, [r9, #-380]	@ 0xfffffe84
    19f0:	52495f34 	subpl	r5, r9, #52, 30	@ 0xd0
    19f4:	30332051 	eorscc	r2, r3, r1, asr r0
    19f8:	475f5f00 	ldrbmi	r5, [pc, -r0, lsl #30]
    19fc:	5f43554e 	svcpl	0x0043554e
    1a00:	43445453 	movtmi	r5, #17491	@ 0x4453
    1a04:	4c4e495f 	mcrrmi	9, 5, r4, lr, cr15	@ <UNPREDICTABLE>
    1a08:	5f454e49 	svcpl	0x00454e49
    1a0c:	0031205f 	eorseq	r2, r1, pc, asr r0
    1a10:	41484357 	cmpmi	r8, r7, asr r3
    1a14:	494d5f52 	stmdbmi	sp, {r1, r4, r6, r8, r9, sl, fp, ip, lr}^
    1a18:	5f28204e 	svcpl	0x0028204e
    1a1c:	4843575f 	stmdami	r3, {r0, r1, r2, r3, r4, r6, r8, r9, sl, ip, lr}^
    1a20:	4d5f5241 	lfmmi	f5, 2, [pc, #-260]	@ 1924 <_Min_Stack_Size+0x1524>
    1a24:	5f5f4e49 	svcpl	0x005f4e49
    1a28:	4e4d0029 	cdpmi	0, 4, cr0, cr13, cr9, {1}
    1a2c:	5f434956 	svcpl	0x00434956
    1a30:	31414d44 	cmpcc	r1, r4, asr #26
    1a34:	6168435f 	cmnvs	r8, pc, asr r3
    1a38:	6c656e6e 	stclvs	14, cr6, [r5], #-440	@ 0xfffffe48
    1a3c:	52495f31 	subpl	r5, r9, #49, 30	@ 0xc4
    1a40:	31312051 	teqcc	r1, r1, asr r0
    1a44:	465f5f00 	ldrbmi	r5, [pc], -r0, lsl #30
    1a48:	54434152 	strbpl	r4, [r3], #-338	@ 0xfffffeae
    1a4c:	4942465f 	stmdbmi	r2, {r0, r1, r2, r3, r4, r6, r9, sl, lr}^
    1a50:	205f5f54 	subscs	r5, pc, r4, asr pc	@ <UNPREDICTABLE>
    1a54:	4d003531 	cfstr32mi	mvfx3, [r0, #-196]	@ 0xffffff3c
    1a58:	4f495047 	svcmi	0x00495047
    1a5c:	504e495f 	subpl	r4, lr, pc, asr r9
    1a60:	505f5455 	subspl	r5, pc, r5, asr r4	@ <UNPREDICTABLE>
    1a64:	4f4d5f55 	svcmi	0x004d5f55
    1a68:	5f004544 	svcpl	0x00004544
    1a6c:	414c4c5f 	cmpmi	ip, pc, asr ip
    1a70:	4d554343 	ldclmi	3, cr4, [r5, #-268]	@ 0xfffffef4
    1a74:	5350455f 	cmppl	r0, #398458880	@ 0x17c00000
    1a78:	4e4f4c49 	cdpmi	12, 4, cr4, cr15, cr9, {2}
    1a7c:	30205f5f 	eorcc	r5, r0, pc, asr pc
    1a80:	2d503178 	ldfcse	f3, [r0, #-480]	@ 0xfffffe20
    1a84:	4c4c3133 	stfmie	f3, [ip], {51}	@ 0x33
    1a88:	5f5f004b 	svcpl	0x005f004b
    1a8c:	43554e47 	cmpmi	r5, #1136	@ 0x470
    1a90:	5441505f 	strbpl	r5, [r1], #-95	@ 0xffffffa1
    1a94:	454c4843 	strbmi	r4, [ip, #-2115]	@ 0xfffff7bd
    1a98:	5f4c4556 	svcpl	0x004c4556
    1a9c:	0031205f 	eorseq	r2, r1, pc, asr r0
    1aa0:	43475f5f 	movtmi	r5, #32607	@ 0x7f5f
    1aa4:	54415f43 	strbpl	r5, [r1], #-3907	@ 0xfffff0bd
    1aa8:	43494d4f 	movtmi	r4, #40271	@ 0x9d4f
    1aac:	4148435f 	cmpmi	r8, pc, asr r3
    1ab0:	5f323352 	svcpl	0x00323352
    1ab4:	4f4c5f54 	svcmi	0x004c5f54
    1ab8:	465f4b43 	ldrbmi	r4, [pc], -r3, asr #22
    1abc:	20454552 	subcs	r4, r5, r2, asr r5
    1ac0:	5f5f0032 	svcpl	0x005f0032
    1ac4:	544e4955 	strbpl	r4, [lr], #-2389	@ 0xfffff6ab
    1ac8:	41454c5f 	cmpmi	r5, pc, asr ip
    1acc:	36315453 			@ <UNDEFINED> instruction: 0x36315453
    1ad0:	58414d5f 	stmdapl	r1, {r0, r1, r2, r3, r4, r6, r8, sl, fp, lr}^
    1ad4:	30205f5f 	eorcc	r5, r0, pc, asr pc
    1ad8:	66666678 			@ <UNDEFINED> instruction: 0x66666678
    1adc:	32490066 	subcc	r0, r9, #102	@ 0x66
    1ae0:	52435f43 	subpl	r5, r3, #268	@ 0x10c
    1ae4:	4c415f31 	mcrrmi	15, 3, r5, r1, cr1
    1ae8:	5f545245 	svcpl	0x00545245
    1aec:	20736f50 	rsbscs	r6, r3, r0, asr pc
    1af0:	55333128 	ldrpl	r3, [r3, #-296]!	@ 0xfffffed8
    1af4:	58450029 	stmdapl	r5, {r0, r3, r5}^
    1af8:	32314954 	eorscc	r4, r1, #84, 18	@ 0x150000
    1afc:	32314350 	eorscc	r4, r1, #80, 6	@ 0x40000001
    1b00:	454d2820 	strbmi	r2, [sp, #-2080]	@ 0xfffff7e0
    1b04:	5f495458 	svcpl	0x00495458
    1b08:	74646475 	strbtvc	r6, [r4], #-1141	@ 0xfffffb8b
    1b0c:	6f697047 	svcvs	0x00697047
    1b10:	5f6e6950 	svcpl	0x006e6950
    1b14:	4d7b2974 			@ <UNDEFINED> instruction: 0x4d7b2974
    1b18:	49545845 	ldmdbmi	r4, {r0, r2, r6, fp, ip, lr}^
    1b1c:	4e494c5f 	mcrmi	12, 2, r4, cr9, cr15, {2}
    1b20:	2c323145 	ldfcss	f3, [r2], #-276	@ 0xfffffeec
    1b24:	49504720 	ldmdbmi	r0, {r5, r8, r9, sl, lr}^
    1b28:	202c434f 	eorcs	r4, ip, pc, asr #6
    1b2c:	4950474d 	ldmdbmi	r0, {r0, r2, r3, r6, r8, r9, sl, lr}^
    1b30:	49505f4f 	ldmdbmi	r0, {r0, r1, r2, r3, r6, r8, r9, sl, fp, ip, lr}^
    1b34:	2c32314e 	ldfcss	f3, [r2], #-312	@ 0xfffffec8
    1b38:	564e4d20 	strbpl	r4, [lr], -r0, lsr #26
    1b3c:	455f4349 	ldrbmi	r4, [pc, #-841]	@ 17fb <_Min_Stack_Size+0x13fb>
    1b40:	31495458 	cmpcc	r9, r8, asr r4
    1b44:	30315f35 	eorscc	r5, r1, r5, lsr pc
    1b48:	5152495f 	cmppl	r2, pc, asr r9
    1b4c:	5f5f007d 	svcpl	0x005f007d
    1b50:	5f515155 	svcpl	0x00515155
    1b54:	54494249 	strbpl	r4, [r9], #-585	@ 0xfffffdb7
    1b58:	30205f5f 	eorcc	r5, r0, pc, asr pc
    1b5c:	52455000 	subpl	r5, r5, #0
    1b60:	45485049 	strbmi	r5, [r8, #-73]	@ 0xffffffb7
    1b64:	534c4152 	movtpl	r4, #49490	@ 0xc152
    1b68:	5341425f 	movtpl	r4, #4703	@ 0x125f
    1b6c:	78302045 	ldmdavc	r0!, {r0, r2, r6, sp}
    1b70:	30303034 	eorscc	r3, r0, r4, lsr r0
    1b74:	30303030 	eorscc	r3, r0, r0, lsr r0
    1b78:	5f004c55 	svcpl	0x00004c55
    1b7c:	544c465f 	strbpl	r4, [ip], #-1631	@ 0xfffff9a1
    1b80:	4d5f3436 	cfldrdmi	mvd3, [pc, #-216]	@ 1ab0 <_Min_Stack_Size+0x16b0>
    1b84:	315f5841 	cmpcc	pc, r1, asr #16
    1b88:	58455f30 	stmdapl	r5, {r4, r5, r8, r9, sl, fp, ip, lr}^
    1b8c:	205f5f50 	subscs	r5, pc, r0, asr pc	@ <UNPREDICTABLE>
    1b90:	00383033 	eorseq	r3, r8, r3, lsr r0
    1b94:	49535f5f 	ldmdbmi	r3, {r0, r1, r2, r3, r4, r6, r8, r9, sl, fp, ip, lr}^
    1b98:	464f455a 			@ <UNDEFINED> instruction: 0x464f455a
    1b9c:	4e4f4c5f 	mcrmi	12, 2, r4, cr15, cr15, {2}
    1ba0:	205f5f47 	subscs	r5, pc, r7, asr #30
    1ba4:	5f5f0034 	svcpl	0x005f0034
    1ba8:	5f544e49 	svcpl	0x00544e49
    1bac:	54534146 	ldrbpl	r4, [r3], #-326	@ 0xfffffeba
    1bb0:	575f3233 	smmlarpl	pc, r3, r2, r3	@ <UNPREDICTABLE>
    1bb4:	48544449 	ldmdami	r4, {r0, r3, r6, sl, lr}^
    1bb8:	33205f5f 			@ <UNDEFINED> instruction: 0x33205f5f
    1bbc:	45520032 	ldrbmi	r0, [r2, #-50]	@ 0xffffffce
    1bc0:	56524553 			@ <UNDEFINED> instruction: 0x56524553
    1bc4:	00304445 	eorseq	r4, r0, r5, asr #8
    1bc8:	49555f5f 	ldmdbmi	r5, {r0, r1, r2, r3, r4, r6, r8, r9, sl, fp, ip, lr}^
    1bcc:	465f544e 	ldrbmi	r5, [pc], -lr, asr #8
    1bd0:	33545341 	cmpcc	r4, #67108865	@ 0x4000001
    1bd4:	59545f32 	ldmdbpl	r4, {r1, r4, r5, r8, r9, sl, fp, ip, lr}^
    1bd8:	5f5f4550 	svcpl	0x005f4550
    1bdc:	736e7520 	cmnvc	lr, #32, 10	@ 0x8000000
    1be0:	656e6769 	strbvs	r6, [lr, #-1897]!	@ 0xfffff897
    1be4:	6e692064 	cdpvs	0, 6, cr2, cr9, cr4, {3}
    1be8:	5f5f0074 	svcpl	0x005f0074
    1bec:	43445453 	movtmi	r5, #17491	@ 0x4453
    1bf0:	4654555f 			@ <UNDEFINED> instruction: 0x4654555f
    1bf4:	5f32335f 	svcpl	0x0032335f
    1bf8:	0031205f 	eorseq	r2, r1, pc, asr r0
    1bfc:	49535f5f 	ldmdbmi	r3, {r0, r1, r2, r3, r4, r6, r8, r9, sl, fp, ip, lr}^
    1c00:	464f455a 			@ <UNDEFINED> instruction: 0x464f455a
    1c04:	4f4c465f 	svcmi	0x004c465f
    1c08:	5f5f5441 	svcpl	0x005f5441
    1c0c:	5f003420 	svcpl	0x00003420
    1c10:	544c465f 	strbpl	r4, [ip], #-1631	@ 0xfffff9a1
    1c14:	5f583233 	svcpl	0x00583233
    1c18:	4f4e4544 	svcmi	0x004e4544
    1c1c:	4d5f4d52 	ldclmi	13, cr4, [pc, #-328]	@ 1adc <_Min_Stack_Size+0x16dc>
    1c20:	5f5f4e49 	svcpl	0x005f4e49
    1c24:	392e3420 	stmdbcc	lr!, {r5, sl, ip, sp}
    1c28:	35363034 	ldrcc	r3, [r6, #-52]!	@ 0xffffffcc
    1c2c:	38353436 	ldmdacc	r5!, {r1, r2, r4, r5, sl, ip, sp}
    1c30:	34323134 	ldrtcc	r3, [r2], #-308	@ 0xfffffecc
    1c34:	65343536 	ldrvs	r3, [r4, #-1334]!	@ 0xfffffaca
    1c38:	3432332d 	ldrtcc	r3, [r2], #-813	@ 0xfffffcd3
    1c3c:	78323346 	ldmdavc	r2!, {r1, r2, r6, r8, r9, ip, sp}
    1c40:	465f5f00 	ldrbmi	r5, [pc], -r0, lsl #30
    1c44:	4d5f544c 	cfldrdmi	mvd5, [pc, #-304]	@ 1b1c <_Min_Stack_Size+0x171c>
    1c48:	315f5841 	cmpcc	pc, r1, asr #16
    1c4c:	58455f30 	stmdapl	r5, {r4, r5, r8, r9, sl, fp, ip, lr}^
    1c50:	205f5f50 	subscs	r5, pc, r0, asr pc	@ <UNPREDICTABLE>
    1c54:	5f003833 	svcpl	0x00003833
    1c58:	4152465f 	cmpmi	r2, pc, asr r6
    1c5c:	4d5f5443 	cfldrdmi	mvd5, [pc, #-268]	@ 1b58 <_Min_Stack_Size+0x1758>
    1c60:	5f5f5841 	svcpl	0x005f5841
    1c64:	37583020 	ldrbcc	r3, [r8, -r0, lsr #32]
    1c68:	50464646 	subpl	r4, r6, r6, asr #12
    1c6c:	5235312d 	eorspl	r3, r5, #1073741835	@ 0x4000000b
    1c70:	495f5f00 	ldmdbmi	pc, {r8, r9, sl, fp, ip, lr}^	@ <UNPREDICTABLE>
    1c74:	465f544e 	ldrbmi	r5, [pc], -lr, asr #8
    1c78:	33545341 	cmpcc	r4, #67108865	@ 0x4000001
    1c7c:	414d5f32 	cmpmi	sp, r2, lsr pc
    1c80:	205f5f58 	subscs	r5, pc, r8, asr pc	@ <UNPREDICTABLE>
    1c84:	66377830 			@ <UNDEFINED> instruction: 0x66377830
    1c88:	66666666 	strbtvs	r6, [r6], -r6, ror #12
    1c8c:	5f006666 	svcpl	0x00006666
    1c90:	4f54415f 	svcmi	0x0054415f
    1c94:	5f43494d 	svcpl	0x0043494d
    1c98:	5f514553 	svcpl	0x00514553
    1c9c:	20545343 	subscs	r5, r4, r3, asr #6
    1ca0:	4e4d0035 	mcrmi	0, 2, r0, cr13, cr5, {1}
    1ca4:	5f434956 	svcpl	0x00434956
    1ca8:	57425355 	smlsldpl	r5, r2, r5, r3
    1cac:	55656b61 	strbpl	r6, [r5, #-2913]!	@ 0xfffff49f
    1cb0:	52495f70 	subpl	r5, r9, #112, 30	@ 0x1c0
    1cb4:	32342051 	eorscc	r2, r4, #81	@ 0x51
    1cb8:	43324900 	teqmi	r2, #0, 18
    1cbc:	3152435f 	cmpcc	r2, pc, asr r3
    1cc0:	534f505f 	movtpl	r5, #61535	@ 0xf05f
    1cc4:	736f505f 	cmnvc	pc, #95	@ 0x5f
    1cc8:	31312820 	teqcc	r1, r0, lsr #16
    1ccc:	49002955 	stmdbmi	r0, {r0, r2, r4, r6, r8, fp, sp}
    1cd0:	465f544e 	ldrbmi	r5, [pc], -lr, asr #8
    1cd4:	38545341 	ldmdacc	r4, {r0, r6, r8, r9, ip, lr}^
    1cd8:	58414d5f 	stmdapl	r1, {r0, r1, r2, r3, r4, r6, r8, sl, fp, lr}^
    1cdc:	5f5f2820 	svcpl	0x005f2820
    1ce0:	5f544e49 	svcpl	0x00544e49
    1ce4:	54534146 	ldrbpl	r4, [r3], #-326	@ 0xfffffeba
    1ce8:	414d5f38 	cmpmi	sp, r8, lsr pc
    1cec:	295f5f58 	ldmdbcs	pc, {r3, r4, r6, r8, r9, sl, fp, ip, lr}^	@ <UNPREDICTABLE>
    1cf0:	4e495500 	cdpmi	5, 4, cr5, cr9, cr0, {0}
    1cf4:	58414d54 	stmdapl	r1, {r2, r4, r6, r8, sl, fp, lr}^
    1cf8:	58414d5f 	stmdapl	r1, {r0, r1, r2, r3, r4, r6, r8, sl, fp, lr}^
    1cfc:	5f5f2820 	svcpl	0x005f2820
    1d00:	544e4955 	strbpl	r4, [lr], #-2389	@ 0xfffff6ab
    1d04:	5f58414d 	svcpl	0x0058414d
    1d08:	5f58414d 	svcpl	0x0058414d
    1d0c:	5f00295f 	svcpl	0x0000295f
    1d10:	5f51545f 	svcpl	0x0051545f
    1d14:	54494246 	strbpl	r4, [r9], #-582	@ 0xfffffdba
    1d18:	31205f5f 			@ <UNDEFINED> instruction: 0x31205f5f
    1d1c:	49003732 	stmdbmi	r0, {r1, r4, r5, r8, r9, sl, ip, sp}
    1d20:	435f4332 	cmpmi	pc, #-939524096	@ 0xc8000000
    1d24:	535f3152 	cmppl	pc, #-2147483628	@ 0x80000014
    1d28:	20504f54 	subscs	r4, r0, r4, asr pc
    1d2c:	5f433249 	svcpl	0x00433249
    1d30:	5f315243 	svcpl	0x00315243
    1d34:	504f5453 	subpl	r5, pc, r3, asr r4	@ <UNPREDICTABLE>
    1d38:	6b734d5f 	blvs	1cd52bc <_Min_Stack_Size+0x1cd4ebc>
    1d3c:	43324900 	teqmi	r2, #0, 18
    1d40:	3152535f 	cmpcc	r2, pc, asr r3
    1d44:	4345505f 	movtmi	r5, #20575	@ 0x505f
    1d48:	5f525245 	svcpl	0x00525245
    1d4c:	20736f50 	rsbscs	r6, r3, r0, asr pc
    1d50:	55323128 	ldrpl	r3, [r2, #-296]!	@ 0xfffffed8
    1d54:	54530029 	ldrbpl	r0, [r3], #-41	@ 0xffffffd7
    1d58:	4632334d 	ldrtmi	r3, [r2], -sp, asr #6
    1d5c:	43333031 	teqmi	r3, #49	@ 0x31
    1d60:	20785438 	rsbscs	r5, r8, r8, lsr r4
    1d64:	32490031 	subcc	r0, r9, #49	@ 0x31
    1d68:	52535f43 	subspl	r5, r3, #268	@ 0x10c
    1d6c:	58545f31 	ldmdapl	r4, {r0, r4, r5, r8, r9, sl, fp, ip, lr}^
    1d70:	32492045 	subcc	r2, r9, #69	@ 0x45
    1d74:	52535f43 	subspl	r5, r3, #268	@ 0x10c
    1d78:	58545f31 	ldmdapl	r4, {r0, r4, r5, r8, r9, sl, fp, ip, lr}^
    1d7c:	734d5f45 	movtvc	r5, #57157	@ 0xdf45
    1d80:	5047006b 	subpl	r0, r7, fp, rrx
    1d84:	5f444f49 	svcpl	0x00444f49
    1d88:	45534142 	ldrbmi	r4, [r3, #-322]	@ 0xfffffebe
    1d8c:	34783020 	ldrbtcc	r3, [r8], #-32	@ 0xffffffe0
    1d90:	31313030 	teqcc	r1, r0, lsr r0
    1d94:	55303034 	ldrpl	r3, [r0, #-52]!	@ 0xffffffcc
    1d98:	5f5f004c 	svcpl	0x005f004c
    1d9c:	5f746e69 	svcpl	0x00746e69
    1da0:	74736166 	ldrbtvc	r6, [r3], #-358	@ 0xfffffe9a
    1da4:	745f3436 	ldrbvc	r3, [pc], #-1078	@ 1dac <_Min_Stack_Size+0x19ac>
    1da8:	6665645f 			@ <UNDEFINED> instruction: 0x6665645f
    1dac:	64656e69 	strbtvs	r6, [r5], #-3689	@ 0xfffff197
    1db0:	5f003120 	svcpl	0x00003120
    1db4:	4553555f 	ldrbmi	r5, [r3, #-1375]	@ 0xfffffaa1
    1db8:	4e495f53 	mcrmi	15, 2, r5, cr9, cr3, {2}
    1dbc:	49465449 	stmdbmi	r6, {r0, r3, r6, sl, ip, lr}^
    1dc0:	5f5f494e 	svcpl	0x005f494e
    1dc4:	45003120 	strmi	r3, [r0, #-288]	@ 0xfffffee0
    1dc8:	31495458 	cmpcc	r9, r8, asr r4
    1dcc:	31425030 	cmpcc	r2, r0, lsr r0
    1dd0:	4d282030 	stcmi	0, cr2, [r8, #-192]!	@ 0xffffff40
    1dd4:	49545845 	ldmdbmi	r4, {r0, r2, r6, fp, ip, lr}^
    1dd8:	6464755f 	strbtvs	r7, [r4], #-1375	@ 0xfffffaa1
    1ddc:	69704774 	ldmdbvs	r0!, {r2, r4, r5, r6, r8, r9, sl, lr}^
    1de0:	6e69506f 	cdpvs	0, 6, cr5, cr9, cr15, {3}
    1de4:	7b29745f 	blvc	a5ef68 <_Min_Stack_Size+0xa5eb68>
    1de8:	5458454d 	ldrbpl	r4, [r8], #-1357	@ 0xfffffab3
    1dec:	494c5f49 	stmdbmi	ip, {r0, r3, r6, r8, r9, sl, fp, ip, lr}^
    1df0:	3031454e 	eorscc	r4, r1, lr, asr #10
    1df4:	5047202c 	subpl	r2, r7, ip, lsr #32
    1df8:	2c424f49 	mcrrcs	15, 4, r4, r2, cr9
    1dfc:	50474d20 	subpl	r4, r7, r0, lsr #26
    1e00:	505f4f49 	subspl	r4, pc, r9, asr #30
    1e04:	30314e49 	eorscc	r4, r1, r9, asr #28
    1e08:	4e4d202c 	cdpmi	0, 4, cr2, cr13, cr12, {1}
    1e0c:	5f434956 	svcpl	0x00434956
    1e10:	49545845 	ldmdbmi	r4, {r0, r2, r6, fp, ip, lr}^
    1e14:	315f3531 	cmpcc	pc, r1, lsr r5	@ <UNPREDICTABLE>
    1e18:	52495f30 	subpl	r5, r9, #48, 30	@ 0xc0
    1e1c:	4d007d51 	stcmi	13, cr7, [r0, #-324]	@ 0xfffffebc
    1e20:	49545845 	ldmdbmi	r4, {r0, r2, r6, fp, ip, lr}^
    1e24:	6464755f 	strbtvs	r7, [r4], #-1375	@ 0xfffffaa1
    1e28:	69725474 	ldmdbvs	r2!, {r2, r4, r5, r6, sl, ip, lr}^
    1e2c:	72656767 	rsbvc	r6, r5, #27000832	@ 0x19c0000
    1e30:	5f00745f 	svcpl	0x0000745f
    1e34:	5a49535f 	bpl	1256bb8 <_Min_Stack_Size+0x12567b8>
    1e38:	5f464f45 	svcpl	0x00464f45
    1e3c:	524f4853 	subpl	r4, pc, #5439488	@ 0x530000
    1e40:	205f5f54 	subscs	r5, pc, r4, asr pc	@ <UNPREDICTABLE>
    1e44:	5f5f0032 	svcpl	0x005f0032
    1e48:	414c4c55 	cmpmi	ip, r5, asr ip
    1e4c:	4d554343 	ldclmi	3, cr4, [r5, #-268]	@ 0xfffffef4
    1e50:	4942465f 	stmdbmi	r2, {r0, r1, r2, r3, r4, r6, r9, sl, lr}^
    1e54:	205f5f54 	subscs	r5, pc, r4, asr pc	@ <UNPREDICTABLE>
    1e58:	53003233 	movwpl	r3, #563	@ 0x233
    1e5c:	425f4243 	subsmi	r4, pc, #805306372	@ 0x30000004
    1e60:	20455341 	subcs	r5, r5, r1, asr #6
    1e64:	30457830 	subcc	r7, r5, r0, lsr r8
    1e68:	44453030 	strbmi	r3, [r5], #-48	@ 0xffffffd0
    1e6c:	4c553030 	mrrcmi	0, 3, r3, r5, cr0
    1e70:	43324900 	teqmi	r2, #0, 18
    1e74:	3152535f 	cmpcc	r2, pc, asr r3
    1e78:	4f54535f 	svcmi	0x0054535f
    1e7c:	505f4650 	subspl	r4, pc, r0, asr r6	@ <UNPREDICTABLE>
    1e80:	2820736f 	stmdacs	r0!, {r0, r1, r2, r3, r5, r6, r8, r9, ip, sp, lr}
    1e84:	00295534 	eoreq	r5, r9, r4, lsr r5
    1e88:	5359535f 	cmppl	r9, #2080374785	@ 0x7c000001
    1e8c:	4145465f 	cmpmi	r5, pc, asr r6
    1e90:	45525554 	ldrbmi	r5, [r2, #-1364]	@ 0xfffffaac
    1e94:	20485f53 	subcs	r5, r8, r3, asr pc
    1e98:	4c554e00 	mrrcmi	14, 0, r4, r5, cr0
    1e9c:	54505f4c 	ldrbpl	r5, [r0], #-3916	@ 0xfffff0b4
    1ea0:	76282052 			@ <UNDEFINED> instruction: 0x76282052
    1ea4:	2a64696f 	bcs	191c468 <_Min_Stack_Size+0x191c068>
    1ea8:	5f003029 	svcpl	0x00003029
    1eac:	5a49535f 	bpl	1256c30 <_Min_Stack_Size+0x1256830>
    1eb0:	5f464f45 	svcpl	0x00464f45
    1eb4:	474e4f4c 	strbmi	r4, [lr, -ip, asr #30]
    1eb8:	554f445f 	strbpl	r4, [pc, #-1119]	@ 1a61 <_Min_Stack_Size+0x1661>
    1ebc:	5f454c42 	svcpl	0x00454c42
    1ec0:	0038205f 	eorseq	r2, r8, pc, asr r0
    1ec4:	52505f5f 	subspl	r5, r0, #380	@ 0x17c
    1ec8:	414d4741 	cmpmi	sp, r1, asr #14
    1ecc:	4445525f 	strbmi	r5, [r5], #-607	@ 0xfffffda1
    1ed0:	4e494645 	cdpmi	6, 4, cr4, cr9, cr5, {2}
    1ed4:	58455f45 	stmdapl	r5, {r0, r2, r6, r8, r9, sl, fp, ip, lr}^
    1ed8:	4d414e54 	stclmi	14, cr4, [r1, #-336]	@ 0xfffffeb0
    1edc:	00312045 	eorseq	r2, r1, r5, asr #32
    1ee0:	43575f5f 	cmpmi	r7, #380	@ 0x17c
    1ee4:	5f524148 	svcpl	0x00524148
    1ee8:	45505954 	ldrbmi	r5, [r0, #-2388]	@ 0xfffff6ac
    1eec:	75205f5f 	strvc	r5, [r0, #-3935]!	@ 0xfffff0a1
    1ef0:	6769736e 	strbvs	r7, [r9, -lr, ror #6]!
    1ef4:	2064656e 	rsbcs	r6, r4, lr, ror #10
    1ef8:	00746e69 	rsbseq	r6, r4, r9, ror #28
    1efc:	49545845 	ldmdbmi	r4, {r0, r2, r6, fp, ip, lr}^
    1f00:	52495f34 	subpl	r5, r9, #52, 30	@ 0xd0
    1f04:	6e614851 	mcrvs	8, 3, r4, cr1, cr1, {2}
    1f08:	72656c64 	rsbvc	r6, r5, #100, 24	@ 0x6400
    1f0c:	535f5f00 	cmppl	pc, #0, 30
    1f10:	52414843 	subpl	r4, r1, #4390912	@ 0x430000
    1f14:	58414d5f 	stmdapl	r1, {r0, r1, r2, r3, r4, r6, r8, sl, fp, lr}^
    1f18:	30205f5f 	eorcc	r5, r0, pc, asr pc
    1f1c:	00663778 	rsbeq	r3, r6, r8, ror r7
    1f20:	53555f5f 	cmppl	r5, #380	@ 0x17c
    1f24:	42495f41 	submi	r5, r9, #260	@ 0x104
    1f28:	5f5f5449 	svcpl	0x005f5449
    1f2c:	00363120 	eorseq	r3, r6, r0, lsr #2
    1f30:	43475f5f 	movtmi	r5, #32607	@ 0x7f5f
    1f34:	41485f43 	cmpmi	r8, r3, asr #30
    1f38:	535f4556 	cmppl	pc, #360710144	@ 0x15800000
    1f3c:	5f434e59 	svcpl	0x00434e59
    1f40:	504d4f43 	subpl	r4, sp, r3, asr #30
    1f44:	5f455241 	svcpl	0x00455241
    1f48:	5f444e41 	svcpl	0x00444e41
    1f4c:	50415753 	subpl	r5, r1, r3, asr r7
    1f50:	3120325f 			@ <UNDEFINED> instruction: 0x3120325f
    1f54:	58454d00 	stmdapl	r5, {r8, sl, fp, lr}^
    1f58:	755f4954 	ldrbvc	r4, [pc, #-2388]	@ 160c <_Min_Stack_Size+0x120c>
    1f5c:	53746464 	cmnpl	r4, #100, 8	@ 0x64000000
    1f60:	746e4977 	strbtvc	r4, [lr], #-2423	@ 0xfffff689
    1f64:	75727265 	ldrbvc	r7, [r2, #-613]!	@ 0xfffffd9b
    1f68:	50007470 	andpl	r7, r0, r0, ror r4
    1f6c:	49445254 	stmdbmi	r4, {r2, r4, r6, r9, ip, lr}^
    1f70:	4d5f4646 	ldclmi	6, cr4, [pc, #-280]	@ 1e60 <_Min_Stack_Size+0x1a60>
    1f74:	28204e49 	stmdacs	r0!, {r0, r3, r6, r9, sl, fp, lr}
    1f78:	5254502d 	subspl	r5, r4, #45	@ 0x2d
    1f7c:	46464944 	strbmi	r4, [r6], -r4, asr #18
    1f80:	58414d5f 	stmdapl	r1, {r0, r1, r2, r3, r4, r6, r8, sl, fp, lr}^
    1f84:	31202d20 			@ <UNDEFINED> instruction: 0x31202d20
    1f88:	46410029 	strbmi	r0, [r1], -r9, lsr #32
    1f8c:	425f4f49 	subsmi	r4, pc, #292	@ 0x124
    1f90:	20455341 	subcs	r5, r5, r1, asr #6
    1f94:	30347830 	eorscc	r7, r4, r0, lsr r8
    1f98:	30303130 	eorscc	r3, r0, r0, lsr r1
    1f9c:	4c553030 	mrrcmi	0, 3, r3, r5, cr0
    1fa0:	535f5f00 	cmppl	pc, #0, 30
    1fa4:	43415246 	movtmi	r5, #4678	@ 0x1246
    1fa8:	414d5f54 	cmpmi	sp, r4, asr pc
    1fac:	205f5f58 	subscs	r5, pc, r8, asr pc	@ <UNPREDICTABLE>
    1fb0:	46375830 			@ <UNDEFINED> instruction: 0x46375830
    1fb4:	48372d50 	ldmdami	r7!, {r4, r6, r8, sl, fp, sp}
    1fb8:	58450052 	stmdapl	r5, {r1, r4, r6}^
    1fbc:	50314954 	eorspl	r4, r1, r4, asr r9
    1fc0:	28203142 	stmdacs	r0!, {r1, r6, r8, ip, sp}
    1fc4:	5458454d 	ldrbpl	r4, [r8], #-1357	@ 0xfffffab3
    1fc8:	64755f49 	ldrbtvs	r5, [r5], #-3913	@ 0xfffff0b7
    1fcc:	70477464 	subvc	r7, r7, r4, ror #8
    1fd0:	69506f69 	ldmdbvs	r0, {r0, r3, r5, r6, r8, r9, sl, fp, sp, lr}^
    1fd4:	29745f6e 	ldmdbcs	r4!, {r1, r2, r3, r5, r6, r8, r9, sl, fp, ip, lr}^
    1fd8:	58454d7b 	stmdapl	r5, {r0, r1, r3, r4, r5, r6, r8, sl, fp, lr}^
    1fdc:	4c5f4954 	mrrcmi	9, 5, r4, pc, cr4	@ <UNPREDICTABLE>
    1fe0:	31454e49 	cmpcc	r5, r9, asr #28
    1fe4:	5047202c 	subpl	r2, r7, ip, lsr #32
    1fe8:	2c424f49 	mcrrcs	15, 4, r4, r2, cr9
    1fec:	50474d20 	subpl	r4, r7, r0, lsr #26
    1ff0:	505f4f49 	subspl	r4, pc, r9, asr #30
    1ff4:	2c314e49 	ldccs	14, cr4, [r1], #-292	@ 0xfffffedc
    1ff8:	564e4d20 	strbpl	r4, [lr], -r0, lsr #26
    1ffc:	455f4349 	ldrbmi	r4, [pc, #-841]	@ 1cbb <_Min_Stack_Size+0x18bb>
    2000:	31495458 	cmpcc	r9, r8, asr r4
    2004:	5152495f 	cmppl	r2, pc, asr r9
    2008:	474d007d 	smlsldxmi	r0, sp, sp, r0
    200c:	5f4f4950 	svcpl	0x004f4950
    2010:	4c414e41 	mcrrmi	14, 4, r4, r1, cr1
    2014:	4d5f474f 	ldclmi	7, cr4, [pc, #-316]	@ 1ee0 <_Min_Stack_Size+0x1ae0>
    2018:	0045444f 	subeq	r4, r5, pc, asr #8
    201c:	4c465f5f 	mcrrmi	15, 5, r5, r6, cr15
    2020:	494d5f54 	stmdbmi	sp, {r2, r4, r6, r8, r9, sl, fp, ip, lr}^
    2024:	205f5f4e 	subscs	r5, pc, lr, asr #30
    2028:	37312e31 			@ <UNDEFINED> instruction: 0x37312e31
    202c:	34393435 	ldrtcc	r3, [r9], #-1077	@ 0xfffffbcb
    2030:	38303533 	ldmdacc	r0!, {r0, r1, r4, r5, r8, sl, ip, sp}
    2034:	38323232 	ldmdacc	r2!, {r1, r4, r5, r9, ip, sp}
    2038:	2d653537 	cfstr64cs	mvdx3, [r5, #-220]!	@ 0xffffff24
    203c:	00463833 	subeq	r3, r6, r3, lsr r8
    2040:	41485f5f 	cmpmi	r8, pc, asr pc
    2044:	4942465f 	stmdbmi	r2, {r0, r1, r2, r3, r4, r6, r9, sl, lr}^
    2048:	205f5f54 	subscs	r5, pc, r4, asr pc	@ <UNPREDICTABLE>
    204c:	5f5f0037 	svcpl	0x005f0037
    2050:	49504446 	ldmdbmi	r0, {r1, r2, r6, sl, lr}^
    2054:	005f5f43 	subseq	r5, pc, r3, asr #30
    2058:	5f433249 	svcpl	0x00433249
    205c:	3252414f 	subscc	r4, r2, #-1073741805	@ 0xc0000013
    2060:	4444415f 	strbmi	r4, [r4], #-351	@ 0xfffffea1
    2064:	6f505f32 	svcvs	0x00505f32
    2068:	31282073 			@ <UNDEFINED> instruction: 0x31282073
    206c:	4d002955 	vstrmi.16	s4, [r0, #-170]	@ 0xffffff56	@ <UNPREDICTABLE>
    2070:	4349564e 	movtmi	r5, #38478	@ 0x964e
    2074:	4950535f 	ldmdbmi	r0, {r0, r1, r2, r3, r4, r6, r8, r9, ip, lr}^
    2078:	52495f31 	subpl	r5, r9, #49, 30	@ 0xc4
    207c:	35332051 	ldrcc	r2, [r3, #-81]!	@ 0xffffffaf
    2080:	43324900 	teqmi	r2, #0, 18
    2084:	3152435f 	cmpcc	r2, pc, asr r3
    2088:	424d535f 	submi	r5, sp, #2080374785	@ 0x7c000001
    208c:	49205355 	stmdbmi	r0!, {r0, r2, r4, r6, r8, r9, ip, lr}
    2090:	435f4332 	cmpmi	pc, #-939524096	@ 0xc8000000
    2094:	535f3152 	cmppl	pc, #-2147483628	@ 0x80000014
    2098:	5355424d 	cmppl	r5, #-805306364	@ 0xd0000004
    209c:	6b734d5f 	blvs	1cd5620 <_Min_Stack_Size+0x1cd5220>
    20a0:	465f5f00 	ldrbmi	r5, [pc], -r0, lsl #30
    20a4:	3233544c 	eorscc	r5, r3, #76, 8	@ 0x4c000000
    20a8:	5f53495f 	svcpl	0x0053495f
    20ac:	5f434549 	svcpl	0x00434549
    20b0:	35353036 	ldrcc	r3, [r5, #-54]!	@ 0xffffffca
    20b4:	205f5f39 	subscs	r5, pc, r9, lsr pc	@ <UNPREDICTABLE>
    20b8:	49530032 	ldmdbmi	r3, {r1, r4, r5}^
    20bc:	54415f47 	strbpl	r5, [r1], #-3911	@ 0xfffff0b9
    20c0:	43494d4f 	movtmi	r4, #40271	@ 0x9d4f
    20c4:	58414d5f 	stmdapl	r1, {r0, r1, r2, r3, r4, r6, r8, sl, fp, lr}^
    20c8:	5f5f2820 	svcpl	0x005f2820
    20cc:	49445453 	stmdbmi	r4, {r0, r1, r4, r6, sl, ip, lr}^
    20d0:	455f544e 	ldrbmi	r5, [pc, #-1102]	@ 1c8a <_Min_Stack_Size+0x188a>
    20d4:	49285058 	stmdbmi	r8!, {r3, r4, r6, ip, lr}
    20d8:	4d5f544e 	cfldrdmi	mvd5, [pc, #-312]	@ 1fa8 <_Min_Stack_Size+0x1ba8>
    20dc:	29295841 	stmdbcs	r9!, {r0, r6, fp, ip, lr}
    20e0:	43324900 	teqmi	r2, #0, 18
    20e4:	3252435f 	subscc	r4, r2, #2080374785	@ 0x7c000001
    20e8:	4554495f 	ldrbmi	r4, [r4, #-2399]	@ 0xfffff6a1
    20ec:	4e455252 	mcrmi	2, 2, r5, cr5, cr2, {2}
    20f0:	6b734d5f 	blvs	1cd5674 <_Min_Stack_Size+0x1cd5274>
    20f4:	78302820 	ldmdavc	r0!, {r5, fp, sp}
    20f8:	204c5531 	subcs	r5, ip, r1, lsr r5
    20fc:	49203c3c 	stmdbmi	r0!, {r2, r3, r4, r5, sl, fp, ip, sp}
    2100:	435f4332 	cmpmi	pc, #-939524096	@ 0xc8000000
    2104:	495f3252 	ldmdbmi	pc, {r1, r4, r6, r9, ip, sp}^	@ <UNPREDICTABLE>
    2108:	52524554 	subspl	r4, r2, #84, 10	@ 0x15000000
    210c:	505f4e45 	subspl	r4, pc, r5, asr #28
    2110:	0029736f 	eoreq	r7, r9, pc, ror #6
    2114:	5f433249 	svcpl	0x00433249
    2118:	5f325253 	svcpl	0x00325253
    211c:	59535542 	ldmdbpl	r3, {r1, r6, r8, sl, ip, lr}^
    2120:	43324920 	teqmi	r2, #32, 18	@ 0x80000
    2124:	3252535f 	subscc	r5, r2, #2080374785	@ 0x7c000001
    2128:	5355425f 	cmppl	r5, #-268435451	@ 0xf0000005
    212c:	734d5f59 	movtvc	r5, #57177	@ 0xdf59
    2130:	3249006b 	subcc	r0, r9, #107	@ 0x6b
    2134:	52535f43 	subspl	r5, r3, #268	@ 0x10c
    2138:	44415f31 	strbmi	r5, [r1], #-3889	@ 0xfffff0cf
    213c:	5f303144 	svcpl	0x00303144
    2140:	206b734d 	rsbcs	r7, fp, sp, asr #6
    2144:	31783028 	cmncc	r8, r8, lsr #32
    2148:	3c204c55 	stccc	12, cr4, [r0], #-340	@ 0xfffffeac
    214c:	3249203c 	subcc	r2, r9, #60	@ 0x3c
    2150:	52535f43 	subspl	r5, r3, #268	@ 0x10c
    2154:	44415f31 	strbmi	r5, [r1], #-3889	@ 0xfffff0cf
    2158:	5f303144 	svcpl	0x00303144
    215c:	29736f50 	ldmdbcs	r3!, {r4, r6, r8, r9, sl, fp, sp, lr}^
    2160:	43475f00 	movtmi	r5, #32512	@ 0x7f00
    2164:	52575f43 	subspl	r5, r7, #268	@ 0x10c
    2168:	535f5041 	cmppl	pc, #65	@ 0x41
    216c:	4e494454 	mcrmi	4, 2, r4, cr9, cr4, {2}
    2170:	20485f54 	subcs	r5, r8, r4, asr pc
    2174:	495f5f00 	ldmdbmi	pc, {r8, r9, sl, fp, ip, lr}^	@ <UNPREDICTABLE>
    2178:	3233544e 	eorscc	r5, r3, #1308622848	@ 0x4e000000
    217c:	6328435f 			@ <UNDEFINED> instruction: 0x6328435f
    2180:	20632029 	rsbcs	r2, r3, r9, lsr #32
    2184:	4c202323 	stcmi	3, cr2, [r0], #-140	@ 0xffffff74
    2188:	43324900 	teqmi	r2, #0, 18
    218c:	3252435f 	subscc	r4, r2, #2080374785	@ 0x7c000001
    2190:	414d445f 	cmpmi	sp, pc, asr r4
    2194:	49204e45 	stmdbmi	r0!, {r0, r2, r6, r9, sl, fp, lr}
    2198:	435f4332 	cmpmi	pc, #-939524096	@ 0xc8000000
    219c:	445f3252 	ldrbmi	r3, [pc], #-594	@ 21a4 <_Min_Stack_Size+0x1da4>
    21a0:	4e45414d 	dvfmism	f4, f5, #5.0
    21a4:	6b734d5f 	blvs	1cd5728 <_Min_Stack_Size+0x1cd5328>
    21a8:	43324900 	teqmi	r2, #0, 18
    21ac:	3252535f 	subscc	r5, r2, #2080374785	@ 0x7c000001
    21b0:	5355425f 	cmppl	r5, #-268435451	@ 0xf0000005
    21b4:	734d5f59 	movtvc	r5, #57177	@ 0xdf59
    21b8:	3028206b 	eorcc	r2, r8, fp, rrx
    21bc:	4c553178 	ldfmie	f3, [r5], {120}	@ 0x78
    21c0:	203c3c20 	eorscs	r3, ip, r0, lsr #24
    21c4:	5f433249 	svcpl	0x00433249
    21c8:	5f325253 	svcpl	0x00325253
    21cc:	59535542 	ldmdbpl	r3, {r1, r6, r8, sl, ip, lr}^
    21d0:	736f505f 	cmnvc	pc, #95	@ 0x5f
    21d4:	5f5f0029 	svcpl	0x005f0029
    21d8:	52465355 	subpl	r5, r6, #1409286145	@ 0x54000001
    21dc:	5f544341 	svcpl	0x00544341
    21e0:	5f4e494d 	svcpl	0x004e494d
    21e4:	2e30205f 	mrccs	0, 1, r2, cr0, cr15, {2}
    21e8:	52485530 	subpl	r5, r8, #48, 10	@ 0xc000000
    21ec:	415f5f00 	cmpmi	pc, r0, lsl #30
    21f0:	4e5f4d52 	mrcmi	13, 2, r4, cr15, cr2, {2}
    21f4:	004e4f45 	subeq	r4, lr, r5, asr #30
    21f8:	49555f5f 	ldmdbmi	r5, {r0, r1, r2, r3, r4, r6, r8, r9, sl, fp, ip, lr}^
    21fc:	5f38544e 	svcpl	0x0038544e
    2200:	5f58414d 	svcpl	0x0058414d
    2204:	7830205f 	ldmdavc	r0!, {r0, r1, r2, r3, r4, r6, sp}
    2208:	5f006666 	svcpl	0x00006666
    220c:	544e4955 	strbpl	r4, [lr], #-2389	@ 0xfffff6ab
    2210:	5f58414d 	svcpl	0x0058414d
    2214:	45445f54 	strbmi	r5, [r4, #-3924]	@ 0xfffff0ac
    2218:	52414c43 	subpl	r4, r1, #17152	@ 0x4300
    221c:	00204445 	eoreq	r4, r0, r5, asr #8
    2220:	5f433249 	svcpl	0x00433249
    2224:	5f315253 	svcpl	0x00315253
    2228:	52524542 	subspl	r4, r2, #276824064	@ 0x10800000
    222c:	736f505f 	cmnvc	pc, #95	@ 0x5f
    2230:	55382820 	ldrpl	r2, [r8, #-2080]!	@ 0xfffff7e0
    2234:	5f5f0029 	svcpl	0x005f0029
    2238:	4c42444c 	cfstrdmi	mvd4, [r2], {76}	@ 0x4c
    223c:	58414d5f 	stmdapl	r1, {r0, r1, r2, r3, r4, r6, r8, sl, fp, lr}^
    2240:	5058455f 	subspl	r4, r8, pc, asr r5
    2244:	31205f5f 			@ <UNDEFINED> instruction: 0x31205f5f
    2248:	00343230 	eorseq	r3, r4, r0, lsr r2
    224c:	4950474d 	ldmdbmi	r0, {r0, r2, r3, r6, r8, r9, sl, lr}^
    2250:	49505f4f 	ldmdbmi	r0, {r0, r1, r2, r3, r6, r8, r9, sl, fp, ip, lr}^
    2254:	4d00304e 	stcmi	0, cr3, [r0, #-312]	@ 0xfffffec8
    2258:	4f495047 	svcmi	0x00495047
    225c:	4e49505f 	mcrmi	0, 2, r5, cr9, cr15, {2}
    2260:	474d0031 	smlaldxmi	r0, sp, r1, r0
    2264:	5f4f4950 	svcpl	0x004f4950
    2268:	324e4950 	subcc	r4, lr, #80, 18	@ 0x140000
    226c:	50474d00 	subpl	r4, r7, r0, lsl #26
    2270:	505f4f49 	subspl	r4, pc, r9, asr #30
    2274:	00334e49 	eorseq	r4, r3, r9, asr #28
    2278:	4950474d 	ldmdbmi	r0, {r0, r2, r3, r6, r8, r9, sl, lr}^
    227c:	49505f4f 	ldmdbmi	r0, {r0, r1, r2, r3, r6, r8, r9, sl, fp, ip, lr}^
    2280:	7600344e 	strvc	r3, [r0], -lr, asr #8
    2284:	746e6975 	strbtvc	r6, [lr], #-2421	@ 0xfffff68b
    2288:	4d003233 	sfmmi	f3, 4, [r0, #-204]	@ 0xffffff34
    228c:	4f495047 	svcmi	0x00495047
    2290:	4e49505f 	mcrmi	0, 2, r5, cr9, cr15, {2}
    2294:	474d0037 	smlaldxmi	r0, sp, r7, r0
    2298:	5f4f4950 	svcpl	0x004f4950
    229c:	384e4950 	stmdacc	lr, {r4, r6, r8, fp, lr}^
    22a0:	50474d00 	subpl	r4, r7, r0, lsl #26
    22a4:	505f4f49 	subspl	r4, pc, r9, asr #30
    22a8:	00394e49 	eorseq	r4, r9, r9, asr #28
    22ac:	50435f46 	subpl	r5, r3, r6, asr #30
    22b0:	30312055 	eorscc	r2, r1, r5, asr r0
    22b4:	30303030 	eorscc	r3, r0, r0, lsr r0
    22b8:	004c5530 	subeq	r5, ip, r0, lsr r5
    22bc:	4d544e49 	ldclmi	14, cr4, [r4, #-292]	@ 0xfffffedc
    22c0:	4d5f5841 	ldclmi	8, cr5, [pc, #-260]	@ 21c4 <_Min_Stack_Size+0x1dc4>
    22c4:	28205841 	stmdacs	r0!, {r0, r6, fp, ip, lr}
    22c8:	4e495f5f 	mcrmi	15, 2, r5, cr9, cr15, {2}
    22cc:	58414d54 	stmdapl	r1, {r2, r4, r6, r8, sl, fp, lr}^
    22d0:	58414d5f 	stmdapl	r1, {r0, r1, r2, r3, r4, r6, r8, sl, fp, lr}^
    22d4:	00295f5f 	eoreq	r5, r9, pc, asr pc
    22d8:	33544e49 	cmpcc	r4, #1168	@ 0x490
    22dc:	414d5f32 	cmpmi	sp, r2, lsr pc
    22e0:	5f282058 	svcpl	0x00282058
    22e4:	544e495f 	strbpl	r4, [lr], #-2399	@ 0xfffff6a1
    22e8:	4d5f3233 	lfmmi	f3, 2, [pc, #-204]	@ 2224 <_Min_Stack_Size+0x1e24>
    22ec:	5f5f5841 	svcpl	0x005f5841
    22f0:	5f5f0029 	svcpl	0x005f0029
    22f4:	465f4144 	ldrbmi	r4, [pc], -r4, asr #2
    22f8:	5f544942 	svcpl	0x00544942
    22fc:	3133205f 	teqcc	r3, pc, asr r0
    2300:	43324900 	teqmi	r2, #0, 18
    2304:	3152435f 	cmpcc	r2, pc, asr r3
    2308:	2045505f 	subcs	r5, r5, pc, asr r0
    230c:	5f433249 	svcpl	0x00433249
    2310:	5f315243 	svcpl	0x00315243
    2314:	4d5f4550 	cfldr64mi	mvdx4, [pc, #-320]	@ 21dc <_Min_Stack_Size+0x1ddc>
    2318:	5f006b73 	svcpl	0x00006b73
    231c:	5858475f 	ldmdapl	r8, {r0, r1, r2, r3, r4, r6, r8, r9, sl, lr}^
    2320:	4942415f 	stmdbmi	r2, {r0, r1, r2, r3, r4, r6, r8, lr}^
    2324:	5245565f 	subpl	r5, r5, #99614720	@ 0x5f00000
    2328:	4e4f4953 			@ <UNDEFINED> instruction: 0x4e4f4953
    232c:	31303120 	teqcc	r0, r0, lsr #2
    2330:	5f5f0037 	svcpl	0x005f0037
    2334:	5f544e49 	svcpl	0x00544e49
    2338:	5341454c 	movtpl	r4, #5452	@ 0x154c
    233c:	5f363154 	svcpl	0x00363154
    2340:	5f58414d 	svcpl	0x0058414d
    2344:	7830205f 	ldmdavc	r0!, {r0, r1, r2, r3, r4, r6, sp}
    2348:	66666637 			@ <UNDEFINED> instruction: 0x66666637
    234c:	43324900 	teqmi	r2, #0, 18
    2350:	3152535f 	cmpcc	r2, pc, asr r3
    2354:	4558545f 	ldrbmi	r5, [r8, #-1119]	@ 0xfffffba1
    2358:	736f505f 	cmnvc	pc, #95	@ 0x5f
    235c:	55372820 	ldrpl	r2, [r7, #-2080]!	@ 0xfffff7e0
    2360:	5f5f0029 	svcpl	0x005f0029
    2364:	5f544c46 	svcpl	0x00544c46
    2368:	4f4e4544 	svcmi	0x004e4544
    236c:	4d5f4d52 	ldclmi	13, cr4, [pc, #-328]	@ 222c <_Min_Stack_Size+0x1e2c>
    2370:	5f5f4e49 	svcpl	0x005f4e49
    2374:	342e3120 	strtcc	r3, [lr], #-288	@ 0xfffffee0
    2378:	39323130 	ldmdbcc	r2!, {r4, r5, r8, ip, sp}
    237c:	34363438 	ldrtcc	r3, [r6], #-1080	@ 0xfffffbc8
    2380:	38343233 	ldmdacc	r4!, {r0, r1, r4, r5, r9, ip, sp}
    2384:	65313731 	ldrvs	r3, [r1, #-1841]!	@ 0xfffff8cf
    2388:	4635342d 	ldrtmi	r3, [r5], -sp, lsr #8
    238c:	4c5f5f00 	mrrcmi	15, 0, r5, pc, cr0	@ <UNPREDICTABLE>
    2390:	5f4c4244 	svcpl	0x004c4244
    2394:	5f58414d 	svcpl	0x0058414d
    2398:	2e31205f 	mrccs	0, 1, r2, cr1, cr15, {2}
    239c:	36373937 			@ <UNDEFINED> instruction: 0x36373937
    23a0:	33313339 	teqcc	r1, #-469762048	@ 0xe4000000
    23a4:	32363834 	eorscc	r3, r6, #52, 16	@ 0x340000
    23a8:	37353133 			@ <UNDEFINED> instruction: 0x37353133
    23ac:	30332b65 	eorscc	r2, r3, r5, ror #22
    23b0:	45004c38 	strmi	r4, [r0, #-3128]	@ 0xfffff3c8
    23b4:	32495458 	subcc	r5, r9, #88, 8	@ 0x58000000
    23b8:	20324250 	eorscs	r4, r2, r0, asr r2
    23bc:	58454d28 	stmdapl	r5, {r3, r5, r8, sl, fp, lr}^
    23c0:	755f4954 	ldrbvc	r4, [pc, #-2388]	@ 1a74 <_Min_Stack_Size+0x1674>
    23c4:	47746464 	ldrbmi	r6, [r4, -r4, ror #8]!
    23c8:	506f6970 	rsbpl	r6, pc, r0, ror r9	@ <UNPREDICTABLE>
    23cc:	745f6e69 	ldrbvc	r6, [pc], #-3689	@ 23d4 <_Min_Stack_Size+0x1fd4>
    23d0:	454d7b29 	strbmi	r7, [sp, #-2857]	@ 0xfffff4d7
    23d4:	5f495458 	svcpl	0x00495458
    23d8:	454e494c 	strbmi	r4, [lr, #-2380]	@ 0xfffff6b4
    23dc:	47202c32 			@ <UNDEFINED> instruction: 0x47202c32
    23e0:	424f4950 	submi	r4, pc, #80, 18	@ 0x140000
    23e4:	474d202c 	strbmi	r2, [sp, -ip, lsr #32]
    23e8:	5f4f4950 	svcpl	0x004f4950
    23ec:	324e4950 	subcc	r4, lr, #80, 18	@ 0x140000
    23f0:	4e4d202c 	cdpmi	0, 4, cr2, cr13, cr12, {1}
    23f4:	5f434956 	svcpl	0x00434956
    23f8:	49545845 	ldmdbmi	r4, {r0, r2, r6, fp, ip, lr}^
    23fc:	52495f32 	subpl	r5, r9, #50, 30	@ 0xc8
    2400:	49007d51 	stmdbmi	r0, {r0, r4, r6, r8, sl, fp, ip, sp, lr}
    2404:	535f4332 	cmppl	pc, #-939524096	@ 0xc8000000
    2408:	535f3152 	cmppl	pc, #-2147483628	@ 0x80000014
    240c:	46504f54 	usaxmi	r4, r0, r4
    2410:	6b734d5f 	blvs	1cd5994 <_Min_Stack_Size+0x1cd5594>
    2414:	78302820 	ldmdavc	r0!, {r5, fp, sp}
    2418:	204c5531 	subcs	r5, ip, r1, lsr r5
    241c:	49203c3c 	stmdbmi	r0!, {r2, r3, r4, r5, sl, fp, ip, sp}
    2420:	535f4332 	cmppl	pc, #-939524096	@ 0xc8000000
    2424:	535f3152 	cmppl	pc, #-2147483628	@ 0x80000014
    2428:	46504f54 	usaxmi	r4, r0, r4
    242c:	736f505f 	cmnvc	pc, #95	@ 0x5f
    2430:	32490029 	subcc	r0, r9, #41	@ 0x29
    2434:	52435f43 	subpl	r5, r3, #268	@ 0x10c
    2438:	43415f31 	movtmi	r5, #7985	@ 0x1f31
    243c:	3249204b 	subcc	r2, r9, #75	@ 0x4b
    2440:	52435f43 	subpl	r5, r3, #268	@ 0x10c
    2444:	43415f31 	movtmi	r5, #7985	@ 0x1f31
    2448:	734d5f4b 	movtvc	r5, #57163	@ 0xdf4b
    244c:	5f5f006b 	svcpl	0x005f006b
    2450:	544e4955 	strbpl	r4, [lr], #-2389	@ 0xfffff6ab
    2454:	435f3233 	cmpmi	pc, #805306371	@ 0x30000003
    2458:	20296328 	eorcs	r6, r9, r8, lsr #6
    245c:	23232063 			@ <UNDEFINED> instruction: 0x23232063
    2460:	004c5520 	subeq	r5, ip, r0, lsr #10
    2464:	49564e4d 	ldmdbmi	r6, {r0, r2, r3, r6, r9, sl, fp, lr}^
    2468:	32495f43 	subcc	r5, r9, #268	@ 0x10c
    246c:	455f3243 	ldrbmi	r3, [pc, #-579]	@ 2231 <_Min_Stack_Size+0x1e31>
    2470:	52495f52 	subpl	r5, r9, #328	@ 0x148
    2474:	34332051 	ldrtcc	r2, [r3], #-81	@ 0xffffffaf
    2478:	49505300 	ldmdbmi	r0, {r8, r9, ip, lr}^
    247c:	28282032 	stmdacs	r8!, {r1, r4, r5, sp}
    2480:	5f495053 	svcpl	0x00495053
    2484:	69676572 	stmdbvs	r7!, {r1, r4, r5, r6, r8, sl, sp, lr}^
    2488:	72657473 	rsbvc	r7, r5, #1929379840	@ 0x73000000
    248c:	5f70614d 	svcpl	0x0070614d
    2490:	53292a74 			@ <UNDEFINED> instruction: 0x53292a74
    2494:	5f324950 	svcpl	0x00324950
    2498:	45534142 	ldrbmi	r4, [r3, #-322]	@ 0xfffffebe
    249c:	5f5f0029 	svcpl	0x005f0029
    24a0:	43434155 	movtmi	r4, #12629	@ 0x3155
    24a4:	4d5f4d55 	ldclmi	13, cr4, [pc, #-340]	@ 2358 <_Min_Stack_Size+0x1f58>
    24a8:	5f5f4e49 	svcpl	0x005f4e49
    24ac:	302e3020 	eorcc	r3, lr, r0, lsr #32
    24b0:	5f004b55 	svcpl	0x00004b55
    24b4:	544c465f 	strbpl	r4, [ip], #-1631	@ 0xfffff9a1
    24b8:	5350455f 	cmppl	r0, #398458880	@ 0x17c00000
    24bc:	4e4f4c49 	cdpmi	12, 4, cr4, cr15, cr9, {2}
    24c0:	31205f5f 			@ <UNDEFINED> instruction: 0x31205f5f
    24c4:	3239312e 	eorscc	r3, r9, #-2147483637	@ 0x8000000b
    24c8:	38323930 	ldmdacc	r2!, {r4, r5, r8, fp, ip, sp}
    24cc:	30353539 	eorscc	r3, r5, r9, lsr r5
    24d0:	32313837 	eorscc	r3, r1, #3604480	@ 0x370000
    24d4:	372d6535 			@ <UNDEFINED> instruction: 0x372d6535
    24d8:	53550046 	cmppl	r5, #70	@ 0x46
    24dc:	33545241 	cmpcc	r4, #268435460	@ 0x10000004
    24e0:	5341425f 	movtpl	r4, #4703	@ 0x125f
    24e4:	78302045 	ldmdavc	r0!, {r0, r2, r6, sp}
    24e8:	30303034 	eorscc	r3, r0, r4, lsr r0
    24ec:	30303834 	eorscc	r3, r0, r4, lsr r8
    24f0:	5f004c55 	svcpl	0x00004c55
    24f4:	4d544e49 	ldclmi	14, cr4, [r4, #-292]	@ 0xfffffedc
    24f8:	545f5841 	ldrbpl	r5, [pc], #-2113	@ 2500 <_Min_Stack_Size+0x2100>
    24fc:	4345445f 	movtmi	r4, #21599	@ 0x545f
    2500:	4552414c 	ldrbmi	r4, [r2, #-332]	@ 0xfffffeb4
    2504:	5f002044 	svcpl	0x00002044
    2508:	4343475f 	movtmi	r4, #14175	@ 0x375f
    250c:	4f54415f 	svcmi	0x0054415f
    2510:	5f43494d 	svcpl	0x0043494d
    2514:	524f4853 	subpl	r4, pc, #5439488	@ 0x530000
    2518:	4f4c5f54 	svcmi	0x004c5f54
    251c:	465f4b43 	ldrbmi	r4, [pc], -r3, asr #22
    2520:	20454552 	subcs	r4, r5, r2, asr r5
    2524:	58450032 	stmdapl	r5, {r1, r4, r5}^
    2528:	34314954 	ldrtcc	r4, [r1], #-2388	@ 0xfffff6ac
    252c:	34314350 	ldrtcc	r4, [r1], #-848	@ 0xfffffcb0
    2530:	454d2820 	strbmi	r2, [sp, #-2080]	@ 0xfffff7e0
    2534:	5f495458 	svcpl	0x00495458
    2538:	74646475 	strbtvc	r6, [r4], #-1141	@ 0xfffffb8b
    253c:	6f697047 	svcvs	0x00697047
    2540:	5f6e6950 	svcpl	0x006e6950
    2544:	4d7b2974 			@ <UNDEFINED> instruction: 0x4d7b2974
    2548:	49545845 	ldmdbmi	r4, {r0, r2, r6, fp, ip, lr}^
    254c:	4e494c5f 	mcrmi	12, 2, r4, cr9, cr15, {2}
    2550:	2c343145 	ldfcss	f3, [r4], #-276	@ 0xfffffeec
    2554:	49504720 	ldmdbmi	r0, {r5, r8, r9, sl, lr}^
    2558:	202c434f 	eorcs	r4, ip, pc, asr #6
    255c:	4950474d 	ldmdbmi	r0, {r0, r2, r3, r6, r8, r9, sl, lr}^
    2560:	49505f4f 	ldmdbmi	r0, {r0, r1, r2, r3, r6, r8, r9, sl, fp, ip, lr}^
    2564:	2c34314e 	ldfcss	f3, [r4], #-312	@ 0xfffffec8
    2568:	564e4d20 	strbpl	r4, [lr], -r0, lsr #26
    256c:	455f4349 	ldrbmi	r4, [pc, #-841]	@ 222b <_Min_Stack_Size+0x1e2b>
    2570:	31495458 	cmpcc	r9, r8, asr r4
    2574:	30315f35 	eorscc	r5, r1, r5, lsr pc
    2578:	5152495f 	cmppl	r2, pc, asr r9
    257c:	3249007d 	subcc	r0, r9, #125	@ 0x7d
    2580:	52435f43 	subpl	r5, r3, #268	@ 0x10c
    2584:	57535f31 	smmlarpl	r3, r1, pc, r5	@ <UNPREDICTABLE>
    2588:	5f545352 	svcpl	0x00545352
    258c:	206b734d 	rsbcs	r7, fp, sp, asr #6
    2590:	31783028 	cmncc	r8, r8, lsr #32
    2594:	3c204c55 	stccc	12, cr4, [r0], #-340	@ 0xfffffeac
    2598:	3249203c 	subcc	r2, r9, #60	@ 0x3c
    259c:	52435f43 	subpl	r5, r3, #268	@ 0x10c
    25a0:	57535f31 	smmlarpl	r3, r1, pc, r5	@ <UNPREDICTABLE>
    25a4:	5f545352 	svcpl	0x00545352
    25a8:	29736f50 	ldmdbcs	r3!, {r4, r6, r8, r9, sl, fp, sp, lr}^
    25ac:	505f5f00 	subspl	r5, pc, r0, lsl #30
    25b0:	49445254 	stmdbmi	r4, {r2, r4, r6, r9, ip, lr}^
    25b4:	545f4646 	ldrbpl	r4, [pc], #-1606	@ 25bc <_Min_Stack_Size+0x21bc>
    25b8:	5f455059 	svcpl	0x00455059
    25bc:	6e69205f 	mcrvs	0, 3, r2, cr9, cr15, {2}
    25c0:	5f5f0074 	svcpl	0x005f0074
    25c4:	5f4d5241 	svcpl	0x004d5241
    25c8:	48435241 	stmdami	r3, {r0, r6, r9, ip, lr}^
    25cc:	4153495f 	cmpmi	r3, pc, asr r9
    25d0:	5548545f 	strbpl	r5, [r8, #-1119]	@ 0xfffffba1
    25d4:	4900424d 	stmdbmi	r0, {r0, r2, r3, r6, r9, lr}
    25d8:	535f4332 	cmppl	pc, #-939524096	@ 0xc8000000
    25dc:	535f3152 	cmppl	pc, #-2147483628	@ 0x80000014
    25e0:	734d5f42 	movtvc	r5, #57154	@ 0xdf42
    25e4:	3028206b 	eorcc	r2, r8, fp, rrx
    25e8:	4c553178 	ldfmie	f3, [r5], {120}	@ 0x78
    25ec:	203c3c20 	eorscs	r3, ip, r0, lsr #24
    25f0:	5f433249 	svcpl	0x00433249
    25f4:	5f315253 	svcpl	0x00315253
    25f8:	505f4253 	subspl	r4, pc, r3, asr r2	@ <UNPREDICTABLE>
    25fc:	0029736f 	eoreq	r7, r9, pc, ror #6
    2600:	54535953 	ldrbpl	r5, [r3], #-2387	@ 0xfffff6ad
    2604:	4d5f4d45 	ldclmi	13, cr4, [pc, #-276]	@ 24f8 <_Min_Stack_Size+0x20f8>
    2608:	524f4d45 	subpl	r4, pc, #4416	@ 0x1140
    260c:	55425f59 	strbpl	r5, [r2, #-3929]	@ 0xfffff0a7
    2610:	78302053 	ldmdavc	r0!, {r0, r1, r4, r6, sp}
    2614:	46464631 			@ <UNDEFINED> instruction: 0x46464631
    2618:	30303046 	eorscc	r3, r0, r6, asr #32
    261c:	4d004c55 	stcmi	12, cr4, [r0, #-340]	@ 0xfffffeac
    2620:	4349564e 	movtmi	r5, #38478	@ 0x964e
    2624:	4d49545f 	cfstrdmi	mvd5, [r9, #-380]	@ 0xfffffe84
    2628:	50555f31 	subspl	r5, r5, r1, lsr pc
    262c:	5152495f 	cmppl	r2, pc, asr r9
    2630:	00353220 	eorseq	r3, r5, r0, lsr #4
    2634:	20554e47 	subscs	r4, r5, r7, asr #28
    2638:	20313143 	eorscs	r3, r1, r3, asr #2
    263c:	332e3231 			@ <UNDEFINED> instruction: 0x332e3231
    2640:	3220312e 	eorcc	r3, r0, #-2147483637	@ 0x8000000b
    2644:	30333230 	eorscc	r3, r3, r0, lsr r2
    2648:	20363236 	eorscs	r3, r6, r6, lsr r2
    264c:	70636d2d 	rsbvc	r6, r3, sp, lsr #26
    2650:	6f633d75 	svcvs	0x00633d75
    2654:	78657472 	stmdavc	r5!, {r1, r4, r5, r6, sl, ip, sp, lr}^
    2658:	20336d2d 	eorscs	r6, r3, sp, lsr #26
    265c:	6c666d2d 	stclvs	13, cr6, [r6], #-180	@ 0xffffff4c
    2660:	2d74616f 	ldfcse	f6, [r4, #-444]!	@ 0xfffffe44
    2664:	3d696261 	sfmcc	f6, 2, [r9, #-388]!	@ 0xfffffe7c
    2668:	74666f73 	strbtvc	r6, [r6], #-3955	@ 0xfffff08d
    266c:	746d2d20 	strbtvc	r2, [sp], #-3360	@ 0xfffff2e0
    2670:	626d7568 	rsbvs	r7, sp, #104, 10	@ 0x1a000000
    2674:	616d2d20 	cmnvs	sp, r0, lsr #26
    2678:	3d686372 	stclcc	3, cr6, [r8, #-456]!	@ 0xfffffe38
    267c:	766d7261 	strbtvc	r7, [sp], -r1, ror #4
    2680:	206d2d37 	rsbcs	r2, sp, r7, lsr sp
    2684:	2033672d 	eorscs	r6, r3, sp, lsr #14
    2688:	7764672d 	strbvc	r6, [r4, -sp, lsr #14]!
    268c:	2d667261 	sfmcs	f7, 2, [r6, #-388]!	@ 0xfffffe7c
    2690:	4f2d2032 	svcmi	0x002d2032
    2694:	732d2030 			@ <UNDEFINED> instruction: 0x732d2030
    2698:	673d6474 			@ <UNDEFINED> instruction: 0x673d6474
    269c:	3131756e 	teqcc	r1, lr, ror #10
    26a0:	66662d20 	strbtvs	r2, [r6], -r0, lsr #26
    26a4:	74636e75 	strbtvc	r6, [r3], #-3701	@ 0xfffff18b
    26a8:	2d6e6f69 	stclcs	15, cr6, [lr, #-420]!	@ 0xfffffe5c
    26ac:	74636573 	strbtvc	r6, [r3], #-1395	@ 0xfffffa8d
    26b0:	736e6f69 	cmnvc	lr, #420	@ 0x1a4
    26b4:	64662d20 	strbtvs	r2, [r6], #-3360	@ 0xfffff2e0
    26b8:	2d617461 	cfstrdcs	mvd7, [r1, #-388]!	@ 0xfffffe7c
    26bc:	74636573 	strbtvc	r6, [r3], #-1395	@ 0xfffffa8d
    26c0:	736e6f69 	cmnvc	lr, #420	@ 0x1a4
    26c4:	73662d20 	cmnvc	r6, #32, 26	@ 0x800
    26c8:	6b636174 	blvs	18daca0 <_Min_Stack_Size+0x18da8a0>
    26cc:	6173752d 	cmnvs	r3, sp, lsr #10
    26d0:	2d206567 	cfstr32cs	mvfx6, [r0, #-412]!	@ 0xfffffe64
    26d4:	63796366 	cmnvs	r9, #-1744830463	@ 0x98000001
    26d8:	616d6f6c 	cmnvs	sp, ip, ror #30
    26dc:	2d636974 			@ <UNDEFINED> instruction: 0x2d636974
    26e0:	706d6f63 	rsbvc	r6, sp, r3, ror #30
    26e4:	6978656c 	ldmdbvs	r8!, {r2, r3, r5, r6, r8, sl, sp, lr}^
    26e8:	5f007974 	svcpl	0x00007974
    26ec:	4341555f 	movtmi	r5, #5471	@ 0x155f
    26f0:	5f4d5543 	svcpl	0x004d5543
    26f4:	49535045 	ldmdbmi	r3, {r0, r2, r6, ip, lr}^
    26f8:	5f4e4f4c 	svcpl	0x004e4f4c
    26fc:	7830205f 	ldmdavc	r0!, {r0, r1, r2, r3, r4, r6, sp}
    2700:	312d5031 			@ <UNDEFINED> instruction: 0x312d5031
    2704:	004b5536 	subeq	r5, fp, r6, lsr r5
    2708:	52415f5f 	subpl	r5, r1, #380	@ 0x17c
    270c:	45465f4d 	strbmi	r5, [r6, #-3917]	@ 0xfffff0b3
    2710:	52555441 	subspl	r5, r5, #1090519040	@ 0x41000000
    2714:	414d5f45 	cmpmi	sp, r5, asr #30
    2718:	4c554d54 	mrrcmi	13, 5, r4, r5, cr4
    271c:	544e495f 	strbpl	r4, [lr], #-2399	@ 0xfffff6a1
    2720:	4e490038 	mcrmi	0, 2, r0, cr9, cr8, {1}
    2724:	454c5f54 	strbmi	r5, [ip, #-3924]	@ 0xfffff0ac
    2728:	33545341 	cmpcc	r4, #67108865	@ 0x4000001
    272c:	414d5f32 	cmpmi	sp, r2, lsr pc
    2730:	5f282058 	svcpl	0x00282058
    2734:	544e495f 	strbpl	r4, [lr], #-2399	@ 0xfffff6a1
    2738:	41454c5f 	cmpmi	r5, pc, asr ip
    273c:	32335453 	eorscc	r5, r3, #1392508928	@ 0x53000000
    2740:	58414d5f 	stmdapl	r1, {r0, r1, r2, r3, r4, r6, r8, sl, fp, lr}^
    2744:	00295f5f 	eoreq	r5, r9, pc, asr pc
    2748:	5f544e49 	svcpl	0x00544e49
    274c:	5341454c 	movtpl	r4, #5452	@ 0x154c
    2750:	5f323354 	svcpl	0x00323354
    2754:	204e494d 	subcs	r4, lr, sp, asr #18
    2758:	5f5f2d28 	svcpl	0x005f2d28
    275c:	5f544e49 	svcpl	0x00544e49
    2760:	5341454c 	movtpl	r4, #5452	@ 0x154c
    2764:	5f323354 	svcpl	0x00323354
    2768:	5f58414d 	svcpl	0x0058414d
    276c:	202d205f 	eorcs	r2, sp, pc, asr r0
    2770:	49002931 	stmdbmi	r0, {r0, r4, r5, r8, fp, sp}
    2774:	435f4332 	cmpmi	pc, #-939524096	@ 0xc8000000
    2778:	445f3252 	ldrbmi	r3, [pc], #-594	@ 2780 <_Min_Stack_Size+0x2380>
    277c:	4e45414d 	dvfmism	f4, f5, #5.0
    2780:	736f505f 	cmnvc	pc, #95	@ 0x5f
    2784:	31312820 	teqcc	r1, r0, lsr #16
    2788:	49002955 	stmdbmi	r0, {r0, r2, r4, r6, r8, fp, sp}
    278c:	435f4332 	cmpmi	pc, #-939524096	@ 0xc8000000
    2790:	415f3152 	cmpmi	pc, r2, asr r1	@ <UNPREDICTABLE>
    2794:	5452454c 	ldrbpl	r4, [r2], #-1356	@ 0xfffffab4
    2798:	43324920 	teqmi	r2, #32, 18	@ 0x80000
    279c:	3152435f 	cmpcc	r2, pc, asr r3
    27a0:	454c415f 	strbmi	r4, [ip, #-351]	@ 0xfffffea1
    27a4:	4d5f5452 	cfldrdmi	mvd5, [pc, #-328]	@ 2664 <_Min_Stack_Size+0x2264>
    27a8:	52006b73 	andpl	r6, r0, #117760	@ 0x1cc00
    27ac:	425f4343 	subsmi	r4, pc, #201326593	@ 0xc000001
    27b0:	20455341 	subcs	r5, r5, r1, asr #6
    27b4:	30347830 	eorscc	r7, r4, r0, lsr r8
    27b8:	30313230 	eorscc	r3, r1, r0, lsr r2
    27bc:	4c553030 	mrrcmi	0, 3, r3, r5, cr0
    27c0:	555f5f00 	ldrbpl	r5, [pc, #-3840]	@ 18c8 <_Min_Stack_Size+0x14c8>
    27c4:	43434153 	movtmi	r4, #12627	@ 0x3153
    27c8:	465f4d55 			@ <UNDEFINED> instruction: 0x465f4d55
    27cc:	5f544942 	svcpl	0x00544942
    27d0:	0038205f 	eorseq	r2, r8, pc, asr r0
    27d4:	49564e4d 	ldmdbmi	r6, {r0, r2, r3, r6, r9, sl, fp, lr}^
    27d8:	32495f43 	subcc	r5, r9, #268	@ 0x10c
    27dc:	455f3143 	ldrbmi	r3, [pc, #-323]	@ 26a1 <_Min_Stack_Size+0x22a1>
    27e0:	52495f52 	subpl	r5, r9, #328	@ 0x148
    27e4:	32332051 	eorscc	r2, r3, #81	@ 0x51
    27e8:	475f5f00 	ldrbmi	r5, [pc, -r0, lsl #30]
    27ec:	415f4343 	cmpmi	pc, r3, asr #6
    27f0:	494d4f54 	stmdbmi	sp, {r2, r4, r6, r8, r9, sl, fp, lr}^
    27f4:	45545f43 	ldrbmi	r5, [r4, #-3907]	@ 0xfffff0bd
    27f8:	415f5453 	cmpmi	pc, r3, asr r4	@ <UNPREDICTABLE>
    27fc:	535f444e 	cmppl	pc, #1308622848	@ 0x4e000000
    2800:	545f5445 	ldrbpl	r5, [pc], #-1093	@ 2808 <_Min_Stack_Size+0x2408>
    2804:	56455552 			@ <UNDEFINED> instruction: 0x56455552
    2808:	31204c41 			@ <UNDEFINED> instruction: 0x31204c41
    280c:	564e4d00 	strbpl	r4, [lr], -r0, lsl #26
    2810:	455f4349 	ldrbmi	r4, [pc, #-841]	@ 24cf <_Min_Stack_Size+0x20cf>
    2814:	39495458 	stmdbcc	r9, {r3, r4, r6, sl, ip, lr}^
    2818:	495f355f 	ldmdbmi	pc, {r0, r1, r2, r3, r4, r6, r8, sl, ip, sp}^	@ <UNPREDICTABLE>
    281c:	32205152 	eorcc	r5, r0, #-2147483628	@ 0x80000014
    2820:	5f5f0033 	svcpl	0x005f0033
    2824:	5f464c45 	svcpl	0x00464c45
    2828:	0031205f 	eorseq	r2, r1, pc, asr r0
    282c:	4f495047 	svcmi	0x00495047
    2830:	28282041 	stmdacs	r8!, {r0, r6, sp}
    2834:	4f495047 	svcmi	0x00495047
    2838:	6765725f 			@ <UNDEFINED> instruction: 0x6765725f
    283c:	65747369 	ldrbvs	r7, [r4, #-873]!	@ 0xfffffc97
    2840:	70614d72 	rsbvc	r4, r1, r2, ror sp
    2844:	292a745f 	stmdbcs	sl!, {r0, r1, r2, r3, r4, r6, sl, ip, sp, lr}
    2848:	4f495047 	svcmi	0x00495047
    284c:	41425f41 	cmpmi	r2, r1, asr #30
    2850:	00294553 	eoreq	r4, r9, r3, asr r5
    2854:	49564e4d 	ldmdbmi	r6, {r0, r2, r3, r6, r9, sl, fp, lr}^
    2858:	4d445f43 	stclmi	15, cr5, [r4, #-268]	@ 0xfffffef4
    285c:	435f3241 	cmpmi	pc, #268435460	@ 0x10000004
    2860:	6e6e6168 	powvsez	f6, f6, #0.0
    2864:	5f316c65 	svcpl	0x00316c65
    2868:	20515249 	subscs	r5, r1, r9, asr #4
    286c:	47003635 	smladxmi	r0, r5, r6, r3
    2870:	784f4950 	stmdavc	pc, {r4, r6, r8, fp, lr}^	@ <UNPREDICTABLE>
    2874:	465f5f00 	ldrbmi	r5, [pc], -r0, lsl #30
    2878:	3233544c 	eorscc	r5, r3, #76, 8	@ 0x4c000000
    287c:	5341485f 	movtpl	r4, #6239	@ 0x185f
    2880:	4955515f 	ldmdbmi	r5, {r0, r1, r2, r3, r4, r6, r8, ip, lr}^
    2884:	4e5f5445 	cdpmi	4, 5, cr5, cr15, cr5, {2}
    2888:	5f5f4e41 	svcpl	0x005f4e41
    288c:	5f003120 	svcpl	0x00003120
    2890:	42444c5f 	submi	r4, r4, #24320	@ 0x5f00
    2894:	41485f4c 	cmpmi	r8, ip, asr #30
    2898:	4e495f53 	mcrmi	15, 2, r5, cr9, cr3, {2}
    289c:	494e4946 	stmdbmi	lr, {r1, r2, r6, r8, fp, lr}^
    28a0:	5f5f5954 	svcpl	0x005f5954
    28a4:	4d003120 	stfmis	f3, [r0, #-128]	@ 0xffffff80
    28a8:	49545845 	ldmdbmi	r4, {r0, r2, r6, fp, ip, lr}^
    28ac:	6464755f 	strbtvs	r7, [r4], #-1375	@ 0xfffffaa1
    28b0:	6d6e5574 	cfstr64vs	mvdx5, [lr, #-464]!	@ 0xfffffe30
    28b4:	4c6b7361 	stclmi	3, cr7, [fp], #-388	@ 0xfffffe7c
    28b8:	00656e69 	rsbeq	r6, r5, r9, ror #28
    28bc:	41545f5f 	cmpmi	r4, pc, asr pc
    28c0:	4942465f 	stmdbmi	r2, {r0, r1, r2, r3, r4, r6, r9, sl, lr}^
    28c4:	205f5f54 	subscs	r5, pc, r4, asr pc	@ <UNPREDICTABLE>
    28c8:	49003336 	stmdbmi	r0, {r1, r2, r4, r5, r8, r9, ip, sp}
    28cc:	435f4332 	cmpmi	pc, #-939524096	@ 0xc8000000
    28d0:	535f3152 	cmppl	pc, #-2147483628	@ 0x80000014
    28d4:	5355424d 	cmppl	r5, #-805306364	@ 0xd0000004
    28d8:	736f505f 	cmnvc	pc, #95	@ 0x5f
    28dc:	55312820 	ldrpl	r2, [r1, #-2080]!	@ 0xfffff7e0
    28e0:	4e490029 	cdpmi	0, 4, cr0, cr9, cr9, {1}
    28e4:	52545054 	subspl	r5, r4, #84	@ 0x54
    28e8:	4e494d5f 	mcrmi	13, 2, r4, cr9, cr15, {2}
    28ec:	5f2d2820 	svcpl	0x002d2820
    28f0:	544e495f 	strbpl	r4, [lr], #-2399	@ 0xfffff6a1
    28f4:	5f525450 	svcpl	0x00525450
    28f8:	5f58414d 	svcpl	0x0058414d
    28fc:	202d205f 	eorcs	r2, sp, pc, asr r0
    2900:	5f002931 	svcpl	0x00002931
    2904:	4d52415f 	ldfmie	f4, [r2, #-380]	@ 0xfffffe84
    2908:	5343505f 	movtpl	r5, #12383	@ 0x305f
    290c:	44003120 	strmi	r3, [r0], #-288	@ 0xfffffee0
    2910:	6d452f3a 	stclvs	15, cr2, [r5, #-232]	@ 0xffffff18
    2914:	64646562 	strbtvs	r6, [r4], #-1378	@ 0xfffffa9e
    2918:	53206465 			@ <UNDEFINED> instruction: 0x53206465
    291c:	65747379 	ldrbvs	r7, [r4, #-889]!	@ 0xfffffc87
    2920:	6944206d 	stmdbvs	r4, {r0, r2, r3, r5, r6, sp}^
    2924:	6d6f6c70 	stclvs	12, cr6, [pc, #-448]!	@ 276c <_Min_Stack_Size+0x236c>
    2928:	614d2f61 	cmpvs	sp, r1, ror #30
    292c:	69727473 	ldmdbvs	r2!, {r0, r1, r4, r5, r6, sl, ip, sp, lr}^
    2930:	4520676e 	strmi	r6, [r0, #-1902]!	@ 0xfffff892
    2934:	6465626d 	strbtvs	r6, [r5], #-621	@ 0xfffffd93
    2938:	20646564 	rsbcs	r6, r4, r4, ror #10
    293c:	74737953 	ldrbtvc	r7, [r3], #-2387	@ 0xfffff6ad
    2940:	57206d65 	strpl	r6, [r0, -r5, ror #26]!
    2944:	20687469 	rsbcs	r7, r8, r9, ror #8
    2948:	2f532e4b 	svccs	0x00532e4b
    294c:	535f3130 	cmppl	pc, #48, 2
    2950:	75436d74 	strbvc	r6, [r3, #-3444]	@ 0xfffff28c
    2954:	575f6562 	ldrbpl	r6, [pc, -r2, ror #10]
    2958:	736b726f 	cmnvc	fp, #-268435450	@ 0xf0000006
    295c:	65636170 	strbvs	r6, [r3, #-368]!	@ 0xfffffe90
    2960:	5f39302f 	svcpl	0x0039302f
    2964:	4c343155 	ldfmis	f3, [r4], #-340	@ 0xfffffeac
    2968:	2f314133 	svccs	0x00314133
    296c:	75626544 	strbvc	r6, [r2, #-1348]!	@ 0xfffffabc
    2970:	38750067 	ldmdacc	r5!, {r0, r1, r2, r5, r6}^
    2974:	53515249 	cmppl	r1, #-1879048188	@ 0x90000004
    2978:	75746174 	ldrbvc	r6, [r4, #-372]!	@ 0xfffffe8c
    297c:	5f5f0073 	svcpl	0x005f0073
    2980:	5f474953 	svcpl	0x00474953
    2984:	4d4f5441 	cfstrdmi	mvd5, [pc, #-260]	@ 2888 <_Min_Stack_Size+0x2488>
    2988:	4d5f4349 	ldclmi	3, cr4, [pc, #-292]	@ 286c <_Min_Stack_Size+0x246c>
    298c:	5f5f4e49 	svcpl	0x005f4e49
    2990:	5f2d2820 	svcpl	0x002d2820
    2994:	4749535f 	smlsldmi	r5, r9, pc, r3	@ <UNPREDICTABLE>
    2998:	4f54415f 	svcmi	0x0054415f
    299c:	5f43494d 	svcpl	0x0043494d
    29a0:	5f58414d 	svcpl	0x0058414d
    29a4:	202d205f 	eorcs	r2, sp, pc, asr r0
    29a8:	5f002931 	svcpl	0x00002931
    29ac:	4e49555f 	mcrmi	5, 2, r5, cr9, cr15, {2}
    29b0:	454c5f54 	strbmi	r5, [ip, #-3924]	@ 0xfffff0ac
    29b4:	38545341 	ldmdacc	r4, {r0, r6, r8, r9, ip, lr}^
    29b8:	58414d5f 	stmdapl	r1, {r0, r1, r2, r3, r4, r6, r8, sl, fp, lr}^
    29bc:	30205f5f 	eorcc	r5, r0, pc, asr pc
    29c0:	00666678 	rsbeq	r6, r6, r8, ror r6
    29c4:	49564e4d 	ldmdbmi	r6, {r0, r2, r3, r6, r9, sl, fp, lr}^
    29c8:	54525f43 	ldrbpl	r5, [r2], #-3907	@ 0xfffff0bd
    29cc:	616c4143 	cmnvs	ip, r3, asr #2
    29d0:	495f6d72 	ldmdbmi	pc, {r1, r4, r5, r6, r8, sl, fp, sp, lr}^	@ <UNPREDICTABLE>
    29d4:	34205152 	strtcc	r5, [r0], #-338	@ 0xfffffeae
    29d8:	32490031 	subcc	r0, r9, #49	@ 0x31
    29dc:	52535f43 	subspl	r5, r3, #268	@ 0x10c
    29e0:	45505f32 	ldrbmi	r5, [r0, #-3890]	@ 0xfffff0ce
    29e4:	6f505f43 	svcvs	0x00505f43
    29e8:	38282073 	stmdacc	r8!, {r0, r1, r4, r5, r6, sp}
    29ec:	53002955 	movwpl	r2, #2389	@ 0x955
    29f0:	415f4749 	cmpmi	pc, r9, asr #14
    29f4:	494d4f54 	stmdbmi	sp, {r2, r4, r6, r8, r9, sl, fp, lr}^
    29f8:	494d5f43 	stmdbmi	sp, {r0, r1, r6, r8, r9, sl, fp, ip, lr}^
    29fc:	2d28204e 	stccs	0, cr2, [r8, #-312]!	@ 0xfffffec8
    2a00:	54535f5f 	ldrbpl	r5, [r3], #-3935	@ 0xfffff0a1
    2a04:	544e4944 	strbpl	r4, [lr], #-2372	@ 0xfffff6bc
    2a08:	5058455f 	subspl	r4, r8, pc, asr r5
    2a0c:	544e4928 	strbpl	r4, [lr], #-2344	@ 0xfffff6d8
    2a10:	58414d5f 	stmdapl	r1, {r0, r1, r2, r3, r4, r6, r8, sl, fp, lr}^
    2a14:	202d2029 	eorcs	r2, sp, r9, lsr #32
    2a18:	5f002931 	svcpl	0x00002931
    2a1c:	31544e49 	cmpcc	r4, r9, asr #28
    2a20:	5f545f36 	svcpl	0x00545f36
    2a24:	4c434544 	cfstr64mi	mvdx4, [r3], {68}	@ 0x44
    2a28:	44455241 	strbmi	r5, [r5], #-577	@ 0xfffffdbf
    2a2c:	5f5f0020 	svcpl	0x005f0020
    2a30:	33544c46 	cmpcc	r4, #17920	@ 0x4600
    2a34:	495f5832 	ldmdbmi	pc, {r1, r4, r5, fp, ip, lr}^	@ <UNPREDICTABLE>
    2a38:	45495f53 	strbmi	r5, [r9, #-3923]	@ 0xfffff0ad
    2a3c:	30365f43 	eorscc	r5, r6, r3, asr #30
    2a40:	5f393535 	svcpl	0x00393535
    2a44:	0032205f 	eorseq	r2, r2, pc, asr r0
    2a48:	5f433249 	svcpl	0x00433249
    2a4c:	5f315253 	svcpl	0x00315253
    2a50:	4f4c5241 	svcmi	0x004c5241
    2a54:	6b734d5f 	blvs	1cd5fd8 <_Min_Stack_Size+0x1cd5bd8>
    2a58:	78302820 	ldmdavc	r0!, {r5, fp, sp}
    2a5c:	204c5531 	subcs	r5, ip, r1, lsr r5
    2a60:	49203c3c 	stmdbmi	r0!, {r2, r3, r4, r5, sl, fp, ip, sp}
    2a64:	535f4332 	cmppl	pc, #-939524096	@ 0xc8000000
    2a68:	415f3152 	cmpmi	pc, r2, asr r1	@ <UNPREDICTABLE>
    2a6c:	5f4f4c52 	svcpl	0x004f4c52
    2a70:	29736f50 	ldmdbcs	r3!, {r4, r6, r8, r9, sl, fp, sp, lr}^
    2a74:	564e4d00 	strbpl	r4, [lr], -r0, lsl #26
    2a78:	505f4349 	subspl	r4, pc, r9, asr #6
    2a7c:	495f4456 	ldmdbmi	pc, {r1, r2, r4, r6, sl, lr}^	@ <UNPREDICTABLE>
    2a80:	31205152 			@ <UNDEFINED> instruction: 0x31205152
    2a84:	465f5f00 	ldrbmi	r5, [pc], -r0, lsl #30
    2a88:	485f544c 	ldmdami	pc, {r2, r3, r6, sl, ip, lr}^	@ <UNPREDICTABLE>
    2a8c:	445f5341 	ldrbmi	r5, [pc], #-833	@ 2a94 <_Min_Stack_Size+0x2694>
    2a90:	524f4e45 	subpl	r4, pc, #1104	@ 0x450
    2a94:	205f5f4d 	subscs	r5, pc, sp, asr #30
    2a98:	32490031 	subcc	r0, r9, #49	@ 0x31
    2a9c:	52535f43 	subspl	r5, r3, #268	@ 0x10c
    2aa0:	4d535f31 	ldclmi	15, cr5, [r3, #-196]	@ 0xffffff3c
    2aa4:	454c4142 	strbmi	r4, [ip, #-322]	@ 0xfffffebe
    2aa8:	505f5452 	subspl	r5, pc, r2, asr r4	@ <UNPREDICTABLE>
    2aac:	2820736f 	stmdacs	r0!, {r0, r1, r2, r3, r5, r6, r8, r9, ip, sp, lr}
    2ab0:	29553531 	ldmdbcs	r5, {r0, r4, r5, r8, sl, ip, sp}^
    2ab4:	495f5f00 	ldmdbmi	pc, {r8, r9, sl, fp, ip, lr}^	@ <UNPREDICTABLE>
    2ab8:	4c5f544e 	cfldrdmi	mvd5, [pc], {78}	@ 0x4e
    2abc:	54534145 	ldrbpl	r4, [r3], #-325	@ 0xfffffebb
    2ac0:	575f3631 	smmlarpl	pc, r1, r6, r3	@ <UNPREDICTABLE>
    2ac4:	48544449 	ldmdami	r4, {r0, r3, r6, sl, lr}^
    2ac8:	31205f5f 			@ <UNDEFINED> instruction: 0x31205f5f
    2acc:	78450036 	stmdavc	r5, {r1, r2, r4, r5}^
    2ad0:	69506974 	ldmdbvs	r0, {r2, r4, r5, r6, r8, fp, sp, lr}^
    2ad4:	5f5f006e 	svcpl	0x005f006e
    2ad8:	5f434544 	svcpl	0x00434544
    2adc:	4c415645 	mcrrmi	6, 4, r5, r1, cr5
    2ae0:	54454d5f 	strbpl	r4, [r5], #-3423	@ 0xfffff2a1
    2ae4:	5f444f48 	svcpl	0x00444f48
    2ae8:	0032205f 	eorseq	r2, r2, pc, asr r0
    2aec:	52415f5f 	subpl	r5, r1, #380	@ 0x17c
    2af0:	45465f4d 	strbmi	r5, [r6, #-3917]	@ 0xfffff0b3
    2af4:	52555441 	subspl	r5, r5, #1090519040	@ 0x41000000
    2af8:	50465f45 	subpl	r5, r6, r5, asr #30
    2afc:	465f3631 			@ <UNDEFINED> instruction: 0x465f3631
    2b00:	53004c4d 	movwpl	r4, #3149	@ 0xc4d
    2b04:	32334d54 	eorscc	r4, r3, #84, 26	@ 0x1500
    2b08:	33303146 	teqcc	r0, #-2147483631	@ 0x80000011
    2b0c:	485f3658 	ldmdami	pc, {r3, r4, r6, r9, sl, ip, sp}^	@ <UNPREDICTABLE>
    2b10:	5f00205f 	svcpl	0x0000205f
    2b14:	4653555f 			@ <UNDEFINED> instruction: 0x4653555f
    2b18:	54434152 	strbpl	r4, [r3], #-338	@ 0xfffffeae
    2b1c:	5350455f 	cmppl	r0, #398458880	@ 0x17c00000
    2b20:	4e4f4c49 	cdpmi	12, 4, cr4, cr15, cr9, {2}
    2b24:	30205f5f 	eorcc	r5, r0, pc, asr pc
    2b28:	2d503178 	ldfcse	f3, [r0, #-480]	@ 0xfffffe20
    2b2c:	52485538 	subpl	r5, r8, #56, 10	@ 0xe000000
    2b30:	5f5f5f00 	svcpl	0x005f5f00
    2b34:	5f746e69 	svcpl	0x00746e69
    2b38:	7361656c 	cmnvc	r1, #108, 10	@ 0x1b000000
    2b3c:	5f323374 	svcpl	0x00323374
    2b40:	65645f74 	strbvs	r5, [r4, #-3956]!	@ 0xfffff08c
    2b44:	656e6966 	strbvs	r6, [lr, #-2406]!	@ 0xfffff69a
    2b48:	00312064 	eorseq	r2, r1, r4, rrx
    2b4c:	4c4c5f5f 	mcrrmi	15, 5, r5, ip, cr15
    2b50:	55434341 	strbpl	r4, [r3, #-833]	@ 0xfffffcbf
    2b54:	414d5f4d 	cmpmi	sp, sp, asr #30
    2b58:	205f5f58 	subscs	r5, pc, r8, asr pc	@ <UNPREDICTABLE>
    2b5c:	46375830 			@ <UNDEFINED> instruction: 0x46375830
    2b60:	46464646 	strbmi	r4, [r6], -r6, asr #12
    2b64:	46464646 	strbmi	r4, [r6], -r6, asr #12
    2b68:	46464646 	strbmi	r4, [r6], -r6, asr #12
    2b6c:	2d504646 	ldclcs	6, cr4, [r0, #-280]	@ 0xfffffee8
    2b70:	4c4c3133 	stfmie	f3, [ip], {51}	@ 0x33
    2b74:	3249004b 	subcc	r0, r9, #75	@ 0x4b
    2b78:	52435f43 	subpl	r5, r3, #268	@ 0x10c
    2b7c:	4e455f31 	mcrmi	15, 2, r5, cr5, cr1, {1}
    2b80:	5f505241 	svcpl	0x00505241
    2b84:	20736f50 	rsbscs	r6, r3, r0, asr pc
    2b88:	29553428 	ldmdbcs	r5, {r3, r5, sl, ip, sp}^
    2b8c:	564e4d00 	strbpl	r4, [lr], -r0, lsl #26
    2b90:	495f4349 	ldmdbmi	pc, {r0, r3, r6, r8, r9, lr}^	@ <UNPREDICTABLE>
    2b94:	5f324332 	svcpl	0x00324332
    2b98:	495f5645 	ldmdbmi	pc, {r0, r2, r6, r9, sl, ip, lr}^	@ <UNPREDICTABLE>
    2b9c:	33205152 			@ <UNDEFINED> instruction: 0x33205152
    2ba0:	5f5f0033 	svcpl	0x005f0033
    2ba4:	33544e49 	cmpcc	r4, #1168	@ 0x490
    2ba8:	6c222032 	stcvs	0, cr2, [r2], #-200	@ 0xffffff38
    2bac:	5f5f0022 	svcpl	0x005f0022
    2bb0:	52455355 	subpl	r5, r5, #1409286145	@ 0x54000001
    2bb4:	42414c5f 	submi	r4, r1, #24320	@ 0x5f00
    2bb8:	505f4c45 	subspl	r4, pc, r5, asr #24
    2bbc:	49464552 	stmdbmi	r6, {r1, r4, r6, r8, sl, lr}^
    2bc0:	205f5f58 	subscs	r5, pc, r8, asr pc	@ <UNPREDICTABLE>
    2bc4:	555f5f00 	ldrbpl	r5, [pc, #-3840]	@ 1ccc <_Min_Stack_Size+0x18cc>
    2bc8:	36544e49 	ldrbcc	r4, [r4], -r9, asr #28
    2bcc:	414d5f34 	cmpmi	sp, r4, lsr pc
    2bd0:	205f5f58 	subscs	r5, pc, r8, asr pc	@ <UNPREDICTABLE>
    2bd4:	66667830 			@ <UNDEFINED> instruction: 0x66667830
    2bd8:	66666666 	strbtvs	r6, [r6], -r6, ror #12
    2bdc:	66666666 	strbtvs	r6, [r6], -r6, ror #12
    2be0:	66666666 	strbtvs	r6, [r6], -r6, ror #12
    2be4:	4c556666 	mrrcmi	6, 6, r6, r5, cr6
    2be8:	5f5f004c 	svcpl	0x005f004c
    2bec:	544e4955 	strbpl	r4, [lr], #-2389	@ 0xfffff6ab
    2bf0:	4d5f3233 	lfmmi	f3, 2, [pc, #-204]	@ 2b2c <_Min_Stack_Size+0x272c>
    2bf4:	5f5f5841 	svcpl	0x005f5841
    2bf8:	66783020 	ldrbtvs	r3, [r8], -r0, lsr #32
    2bfc:	66666666 	strbtvs	r6, [r6], -r6, ror #12
    2c00:	55666666 	strbpl	r6, [r6, #-1638]!	@ 0xfffff99a
    2c04:	4e49004c 	cdpmi	0, 4, cr0, cr9, cr12, {2}
    2c08:	5f343654 	svcpl	0x00343654
    2c0c:	29782843 	ldmdbcs	r8!, {r0, r1, r6, fp, sp}^
    2c10:	495f5f20 	ldmdbmi	pc, {r5, r8, r9, sl, fp, ip, lr}^	@ <UNPREDICTABLE>
    2c14:	3436544e 	ldrtcc	r5, [r6], #-1102	@ 0xfffffbb2
    2c18:	7828435f 	stmdavc	r8!, {r0, r1, r2, r3, r4, r6, r8, r9, lr}
    2c1c:	415f0029 	cmpmi	pc, r9, lsr #32
    2c20:	4c494654 	mcrrmi	6, 5, r4, r9, cr4
    2c24:	4f535f45 	svcmi	0x00535f45
    2c28:	45435255 	strbmi	r5, [r3, #-597]	@ 0xfffffdab
    2c2c:	544e4900 	strbpl	r4, [lr], #-2304	@ 0xfffff700
    2c30:	5341465f 	movtpl	r4, #5727	@ 0x165f
    2c34:	5f363154 	svcpl	0x00363154
    2c38:	204e494d 	subcs	r4, lr, sp, asr #18
    2c3c:	5f5f2d28 	svcpl	0x005f2d28
    2c40:	5f544e49 	svcpl	0x00544e49
    2c44:	54534146 	ldrbpl	r4, [r3], #-326	@ 0xfffffeba
    2c48:	4d5f3631 	ldclmi	6, cr3, [pc, #-196]	@ 2b8c <_Min_Stack_Size+0x278c>
    2c4c:	5f5f5841 	svcpl	0x005f5841
    2c50:	31202d20 			@ <UNDEFINED> instruction: 0x31202d20
    2c54:	5f5f0029 	svcpl	0x005f0029
    2c58:	43445453 	movtmi	r5, #17491	@ 0x4453
    2c5c:	5245565f 	subpl	r5, r5, #99614720	@ 0x5f00000
    2c60:	4e4f4953 			@ <UNDEFINED> instruction: 0x4e4f4953
    2c64:	32205f5f 	eorcc	r5, r0, #380	@ 0x17c
    2c68:	31313130 	teqcc	r1, r0, lsr r1
    2c6c:	4d004c32 	stcmi	12, cr4, [r0, #-200]	@ 0xffffff38
    2c70:	4349564e 	movtmi	r5, #38478	@ 0x964e
    2c74:	4d49545f 	cfstrdmi	mvd5, [r9, #-380]	@ 0xfffffe84
    2c78:	43435f31 	movtmi	r5, #16177	@ 0x3f31
    2c7c:	5152495f 	cmppl	r2, pc, asr r9
    2c80:	00373220 	eorseq	r3, r7, r0, lsr #4
    2c84:	4e495f5f 	mcrmi	15, 2, r5, cr9, cr15, {2}
    2c88:	454c5f54 	strbmi	r5, [ip, #-3924]	@ 0xfffff0ac
    2c8c:	38545341 	ldmdacc	r4, {r0, r6, r8, r9, ip, lr}^
    2c90:	58414d5f 	stmdapl	r1, {r0, r1, r2, r3, r4, r6, r8, sl, fp, lr}^
    2c94:	30205f5f 	eorcc	r5, r0, pc, asr pc
    2c98:	00663778 	rsbeq	r3, r6, r8, ror r7
    2c9c:	43475f5f 	movtmi	r5, #32607	@ 0x7f5f
    2ca0:	54415f43 	strbpl	r5, [r1], #-3907	@ 0xfffff0bd
    2ca4:	43494d4f 	movtmi	r4, #40271	@ 0x9d4f
    2ca8:	494f505f 	stmdbmi	pc, {r0, r1, r2, r3, r4, r6, ip, lr}^	@ <UNPREDICTABLE>
    2cac:	5245544e 	subpl	r5, r5, #1308622848	@ 0x4e000000
    2cb0:	434f4c5f 	movtmi	r4, #64607	@ 0xfc5f
    2cb4:	52465f4b 	subpl	r5, r6, #300	@ 0x12c
    2cb8:	32204545 	eorcc	r4, r0, #289406976	@ 0x11400000
    2cbc:	415f5f00 	cmpmi	pc, r0, lsl #30
    2cc0:	465f4d52 			@ <UNDEFINED> instruction: 0x465f4d52
    2cc4:	55544145 	ldrbpl	r4, [r4, #-325]	@ 0xfffffebb
    2cc8:	515f4552 	cmppl	pc, r2, asr r5	@ <UNPREDICTABLE>
    2ccc:	20544942 	subscs	r4, r4, r2, asr #18
    2cd0:	5f5f0031 	svcpl	0x005f0031
    2cd4:	5f4d5241 	svcpl	0x004d5241
    2cd8:	54414546 	strbpl	r4, [r1], #-1350	@ 0xfffffaba
    2cdc:	5f455255 	svcpl	0x00455255
    2ce0:	205a4c43 	subscs	r4, sl, r3, asr #24
    2ce4:	4e490031 	mcrmi	0, 2, r0, cr9, cr1, {1}
    2ce8:	5f323354 	svcpl	0x00323354
    2cec:	204e494d 	subcs	r4, lr, sp, asr #18
    2cf0:	5f5f2d28 	svcpl	0x005f2d28
    2cf4:	33544e49 	cmpcc	r4, #1168	@ 0x490
    2cf8:	414d5f32 	cmpmi	sp, r2, lsr pc
    2cfc:	205f5f58 	subscs	r5, pc, r8, asr pc	@ <UNPREDICTABLE>
    2d00:	2931202d 	ldmdbcs	r1!, {r0, r2, r3, r5, sp}
    2d04:	415f5f00 	cmpmi	pc, r0, lsl #30
    2d08:	465f4d52 			@ <UNDEFINED> instruction: 0x465f4d52
    2d0c:	55544145 	ldrbpl	r4, [r4, #-325]	@ 0xfffffebb
    2d10:	435f4552 	cmpmi	pc, #343932928	@ 0x14800000
    2d14:	4c504d4f 	mrrcmi	13, 4, r4, r0, cr15
    2d18:	47005845 	strmi	r5, [r0, -r5, asr #16]
    2d1c:	425f5445 	subsmi	r5, pc, #1157627904	@ 0x45000000
    2d20:	52285449 	eorpl	r5, r8, #1224736768	@ 0x49000000
    2d24:	422c4745 	eormi	r4, ip, #18087936	@ 0x1140000
    2d28:	4e5f5449 	cdpmi	4, 5, cr5, cr15, cr9, {2}
    2d2c:	45424d55 	strbmi	r4, [r2, #-3413]	@ 0xfffff2ab
    2d30:	28202952 	stmdacs	r0!, {r1, r4, r6, r8, fp, sp}
    2d34:	47455228 	strbmi	r5, [r5, -r8, lsr #4]
    2d38:	203e3e20 	eorscs	r3, lr, r0, lsr #28
    2d3c:	5f544942 	svcpl	0x00544942
    2d40:	424d554e 	submi	r5, sp, #327155712	@ 0x13800000
    2d44:	20295245 	eorcs	r5, r9, r5, asr #4
    2d48:	29312026 	ldmdbcs	r1!, {r1, r2, r5, sp}
    2d4c:	4e495f00 	cdpmi	15, 4, cr5, cr9, cr0, {0}
    2d50:	52545054 	subspl	r5, r4, #84	@ 0x54
    2d54:	5f51455f 	svcpl	0x0051455f
    2d58:	20544e49 	subscs	r4, r4, r9, asr #28
    2d5c:	415f5f00 	cmpmi	pc, r0, lsl #30
    2d60:	535f4d52 	cmppl	pc, #5248	@ 0x1480
    2d64:	4f455a49 	svcmi	0x00455a49
    2d68:	43575f46 	cmpmi	r7, #280	@ 0x118
    2d6c:	5f524148 	svcpl	0x00524148
    2d70:	00342054 	eorseq	r2, r4, r4, asr r0
    2d74:	4c465f5f 	mcrrmi	15, 5, r5, r6, cr15
    2d78:	58323354 	ldmdapl	r2!, {r2, r4, r6, r8, r9, ip, sp}
    2d7c:	58414d5f 	stmdapl	r1, {r0, r1, r2, r3, r4, r6, r8, sl, fp, lr}^
    2d80:	5058455f 	subspl	r4, r8, pc, asr r5
    2d84:	31205f5f 			@ <UNDEFINED> instruction: 0x31205f5f
    2d88:	00343230 	eorseq	r3, r4, r0, lsr r2
    2d8c:	74646475 	strbtvc	r6, [r4], #-1141	@ 0xfffffb8b
    2d90:	656e694c 	strbvs	r6, [lr, #-2380]!	@ 0xfffff6b4
    2d94:	445f5f00 	ldrbmi	r5, [pc], #-3840	@ 2d9c <_Min_Stack_Size+0x299c>
    2d98:	455f4c42 	ldrbmi	r4, [pc, #-3138]	@ 215e <_Min_Stack_Size+0x1d5e>
    2d9c:	4c495350 	mcrrmi	3, 5, r5, r9, cr0
    2da0:	5f5f4e4f 	svcpl	0x005f4e4f
    2da4:	64282820 	strtvs	r2, [r8], #-2080	@ 0xfffff7e0
    2da8:	6c62756f 	cfstr64vs	mvdx7, [r2], #-444	@ 0xfffffe44
    2dac:	2e322965 	vsubcs.f16	s4, s4, s11	@ <UNPREDICTABLE>
    2db0:	34303232 	ldrtcc	r3, [r0], #-562	@ 0xfffffdce
    2db4:	34303634 	ldrtcc	r3, [r0], #-1588	@ 0xfffff9cc
    2db8:	30353239 	eorscc	r3, r5, r9, lsr r2
    2dbc:	31333133 	teqcc	r3, r3, lsr r1
    2dc0:	36312d65 	ldrtcc	r2, [r1], -r5, ror #26
    2dc4:	5f00294c 	svcpl	0x0000294c
    2dc8:	52464c5f 	subpl	r4, r6, #24320	@ 0x5f00
    2dcc:	5f544341 	svcpl	0x00544341
    2dd0:	5f4e494d 	svcpl	0x004e494d
    2dd4:	2d28205f 	stccs	0, cr2, [r8, #-380]!	@ 0xfffffe84
    2dd8:	4c352e30 	ldcmi	14, cr2, [r5], #-192	@ 0xffffff40
    2ddc:	2e302d52 	mrccs	13, 1, r2, cr0, cr2, {2}
    2de0:	29524c35 	ldmdbcs	r2, {r0, r2, r4, r5, sl, fp, lr}^
    2de4:	54584500 	ldrbpl	r4, [r8], #-1280	@ 0xfffffb00
    2de8:	42503849 	subsmi	r3, r0, #4784128	@ 0x490000
    2dec:	4d282038 	stcmi	0, cr2, [r8, #-224]!	@ 0xffffff20
    2df0:	49545845 	ldmdbmi	r4, {r0, r2, r6, fp, ip, lr}^
    2df4:	6464755f 	strbtvs	r7, [r4], #-1375	@ 0xfffffaa1
    2df8:	69704774 	ldmdbvs	r0!, {r2, r4, r5, r6, r8, r9, sl, lr}^
    2dfc:	6e69506f 	cdpvs	0, 6, cr5, cr9, cr15, {3}
    2e00:	7b29745f 	blvc	a5ff84 <_Min_Stack_Size+0xa5fb84>
    2e04:	5458454d 	ldrbpl	r4, [r8], #-1357	@ 0xfffffab3
    2e08:	494c5f49 	stmdbmi	ip, {r0, r3, r6, r8, r9, sl, fp, ip, lr}^
    2e0c:	2c38454e 	cfldr32cs	mvfx4, [r8], #-312	@ 0xfffffec8
    2e10:	49504720 	ldmdbmi	r0, {r5, r8, r9, sl, lr}^
    2e14:	202c424f 	eorcs	r4, ip, pc, asr #4
    2e18:	4950474d 	ldmdbmi	r0, {r0, r2, r3, r6, r8, r9, sl, lr}^
    2e1c:	49505f4f 	ldmdbmi	r0, {r0, r1, r2, r3, r6, r8, r9, sl, fp, ip, lr}^
    2e20:	202c384e 	eorcs	r3, ip, lr, asr #16
    2e24:	49564e4d 	ldmdbmi	r6, {r0, r2, r3, r6, r9, sl, fp, lr}^
    2e28:	58455f43 	stmdapl	r5, {r0, r1, r6, r8, r9, sl, fp, ip, lr}^
    2e2c:	5f394954 	svcpl	0x00394954
    2e30:	52495f35 	subpl	r5, r9, #53, 30	@ 0xd4
    2e34:	5f007d51 	svcpl	0x00007d51
    2e38:	544e495f 	strbpl	r4, [lr], #-2399	@ 0xfffff6a1
    2e3c:	41454c5f 	cmpmi	r5, pc, asr ip
    2e40:	34365453 	ldrtcc	r5, [r6], #-1107	@ 0xfffffbad
    2e44:	4449575f 	strbmi	r5, [r9], #-1887	@ 0xfffff8a1
    2e48:	5f5f4854 	svcpl	0x005f4854
    2e4c:	00343620 	eorseq	r3, r4, r0, lsr #12
    2e50:	4c465f5f 	mcrrmi	15, 5, r5, r6, cr15
    2e54:	41485f54 	cmpmi	r8, r4, asr pc
    2e58:	4e495f53 	mcrmi	15, 2, r5, cr9, cr3, {2}
    2e5c:	494e4946 	stmdbmi	lr, {r1, r2, r6, r8, fp, lr}^
    2e60:	5f5f5954 	svcpl	0x005f5954
    2e64:	5f003120 	svcpl	0x00003120
    2e68:	4343415f 	movtmi	r4, #12639	@ 0x315f
    2e6c:	4d5f4d55 	ldclmi	13, cr4, [pc, #-340]	@ 2d20 <_Min_Stack_Size+0x2920>
    2e70:	5f5f5841 	svcpl	0x005f5841
    2e74:	37583020 	ldrbcc	r3, [r8, -r0, lsr #32]
    2e78:	46464646 	strbmi	r4, [r6], -r6, asr #12
    2e7c:	50464646 	subpl	r4, r6, r6, asr #12
    2e80:	4b35312d 	blmi	d4f33c <_Min_Stack_Size+0xd4ef3c>
    2e84:	495f5f00 	ldmdbmi	pc, {r8, r9, sl, fp, ip, lr}^	@ <UNPREDICTABLE>
    2e88:	5f38544e 	svcpl	0x0038544e
    2e8c:	5f58414d 	svcpl	0x0058414d
    2e90:	7830205f 	ldmdavc	r0!, {r0, r1, r2, r3, r4, r6, sp}
    2e94:	5f006637 	svcpl	0x00006637
    2e98:	4343475f 	movtmi	r4, #14175	@ 0x375f
    2e9c:	5641485f 			@ <UNDEFINED> instruction: 0x5641485f
    2ea0:	57445f45 	strbpl	r5, [r4, -r5, asr #30]
    2ea4:	32465241 	subcc	r5, r6, #268435460	@ 0x10000004
    2ea8:	4946435f 	stmdbmi	r6, {r0, r1, r2, r3, r4, r6, r8, r9, lr}^
    2eac:	4d53415f 	ldfmie	f4, [r3, #-380]	@ 0xfffffe84
    2eb0:	5f003120 	svcpl	0x00003120
    2eb4:	6e695f5f 	mcrvs	15, 3, r5, cr9, cr15, {2}
    2eb8:	745f3874 	ldrbvc	r3, [pc], #-2164	@ 2ec0 <_Min_Stack_Size+0x2ac0>
    2ebc:	6665645f 			@ <UNDEFINED> instruction: 0x6665645f
    2ec0:	64656e69 	strbtvs	r6, [r5], #-3689	@ 0xfffff197
    2ec4:	5f003120 	svcpl	0x00003120
    2ec8:	5246535f 	subpl	r5, r6, #2080374785	@ 0x7c000001
    2ecc:	5f544341 	svcpl	0x00544341
    2ed0:	5f4e494d 	svcpl	0x004e494d
    2ed4:	2d28205f 	stccs	0, cr2, [r8, #-380]!	@ 0xfffffe84
    2ed8:	48352e30 	ldmdami	r5!, {r4, r5, r9, sl, fp, sp}
    2edc:	2e302d52 	mrccs	13, 1, r2, cr0, cr2, {2}
    2ee0:	29524835 	ldmdbcs	r2, {r0, r2, r4, r5, fp, lr}^
    2ee4:	535f5f00 	cmppl	pc, #0, 30
    2ee8:	42495f41 	submi	r5, r9, #260	@ 0x104
    2eec:	5f5f5449 	svcpl	0x005f5449
    2ef0:	00363120 	eorseq	r3, r6, r0, lsr #2
    2ef4:	43475f5f 	movtmi	r5, #32607	@ 0x7f5f
    2ef8:	45495f43 	strbmi	r5, [r9, #-3907]	@ 0xfffff0bd
    2efc:	35355f43 	ldrcc	r5, [r5, #-3907]!	@ 0xfffff0bd
    2f00:	4f435f39 	svcmi	0x00435f39
    2f04:	454c504d 	strbmi	r5, [ip, #-77]	@ 0xffffffb3
    2f08:	00302058 	eorseq	r2, r0, r8, asr r0
    2f0c:	52415f5f 	subpl	r5, r1, #380	@ 0x17c
    2f10:	45465f4d 	strbmi	r5, [r6, #-3917]	@ 0xfffff0b3
    2f14:	52555441 	subspl	r5, r5, #1090519040	@ 0x41000000
    2f18:	564d5f45 	strbpl	r5, [sp], -r5, asr #30
    2f1c:	5f5f0045 	svcpl	0x005f0045
    2f20:	33544c46 	cmpcc	r4, #17920	@ 0x4600
    2f24:	4d5f5832 	ldclmi	8, cr5, [pc, #-200]	@ 2e64 <_Min_Stack_Size+0x2a64>
    2f28:	315f5841 	cmpcc	pc, r1, asr #16
    2f2c:	58455f30 	stmdapl	r5, {r4, r5, r8, r9, sl, fp, ip, lr}^
    2f30:	205f5f50 	subscs	r5, pc, r0, asr pc	@ <UNPREDICTABLE>
    2f34:	00383033 	eorseq	r3, r8, r3, lsr r0
    2f38:	52415f5f 	subpl	r5, r1, #380	@ 0x17c
    2f3c:	50465f4d 	subpl	r5, r6, sp, asr #30
    2f40:	465f3631 			@ <UNDEFINED> instruction: 0x465f3631
    2f44:	414d524f 	cmpmi	sp, pc, asr #4
    2f48:	45495f54 	strbmi	r5, [r9, #-3924]	@ 0xfffff0ac
    2f4c:	5f004545 	svcpl	0x00004545
    2f50:	4e49555f 	mcrmi	5, 2, r5, cr9, cr15, {2}
    2f54:	5f363154 	svcpl	0x00363154
    2f58:	45505954 	ldrbmi	r5, [r0, #-2388]	@ 0xfffff6ac
    2f5c:	73205f5f 			@ <UNDEFINED> instruction: 0x73205f5f
    2f60:	74726f68 	ldrbtvc	r6, [r2], #-3944	@ 0xfffff098
    2f64:	736e7520 	cmnvc	lr, #32, 10	@ 0x8000000
    2f68:	656e6769 	strbvs	r6, [lr, #-1897]!	@ 0xfffff897
    2f6c:	6e692064 	cdpvs	0, 6, cr2, cr9, cr4, {3}
    2f70:	505f0074 	subspl	r0, pc, r4, ror r0	@ <UNPREDICTABLE>
    2f74:	5849534f 	stmdapl	r9, {r0, r1, r2, r3, r6, r8, r9, ip, lr}^
    2f78:	554f535f 	strbpl	r5, [pc, #-863]	@ 2c21 <_Min_Stack_Size+0x2821>
    2f7c:	00454352 	subeq	r4, r5, r2, asr r3
    2f80:	5f433249 	svcpl	0x00433249
    2f84:	3252414f 	subscc	r4, r2, #-1073741805	@ 0xc0000013
    2f88:	444e455f 	strbmi	r4, [lr], #-1375	@ 0xfffffaa1
    2f8c:	204c4155 	subcs	r4, ip, r5, asr r1
    2f90:	5f433249 	svcpl	0x00433249
    2f94:	3252414f 	subscc	r4, r2, #-1073741805	@ 0xc0000013
    2f98:	444e455f 	strbmi	r4, [lr], #-1375	@ 0xfffffaa1
    2f9c:	5f4c4155 	svcpl	0x004c4155
    2fa0:	006b734d 	rsbeq	r7, fp, sp, asr #6
    2fa4:	4c495455 	cfstrdmi	mvd5, [r9], {85}	@ 0x55
    2fa8:	4f435f53 	svcmi	0x00435f53
    2fac:	4e4f4d4d 	cdpmi	13, 4, cr4, cr15, cr13, {2}
    2fb0:	205f485f 	subscs	r4, pc, pc, asr r8	@ <UNPREDICTABLE>
    2fb4:	535f5f00 	cmppl	pc, #0, 30
    2fb8:	4654464f 	ldrbmi	r4, [r4], -pc, asr #12
    2fbc:	205f5f50 	subscs	r5, pc, r0, asr pc	@ <UNPREDICTABLE>
    2fc0:	414d0031 	cmpmi	sp, r1, lsr r0
    2fc4:	00325250 	eorseq	r5, r2, r0, asr r2
    2fc8:	4f494641 	svcmi	0x00494641
    2fcc:	4950475f 	ldmdbmi	r0, {r0, r1, r2, r3, r4, r6, r8, r9, sl, lr}^
    2fd0:	58455f4f 	stmdapl	r5, {r0, r1, r2, r3, r6, r8, r9, sl, fp, ip, lr}^
    2fd4:	4d5f4954 	vldrmi.16	s9, [pc, #-168]	@ 2f34 <_Min_Stack_Size+0x2b34>	@ <UNPREDICTABLE>
    2fd8:	49505041 	ldmdbmi	r0, {r0, r6, ip, lr}^
    2fdc:	5228474e 	eorpl	r4, r8, #20447232	@ 0x1380000
    2fe0:	20294745 	eorcs	r4, r9, r5, asr #14
    2fe4:	45522828 	ldrbmi	r2, [r2, #-2088]	@ 0xfffff7d8
    2fe8:	3d3d2047 	ldccc	0, cr2, [sp, #-284]!	@ 0xfffffee4
    2fec:	49504720 	ldmdbmi	r0, {r5, r8, r9, sl, lr}^
    2ff0:	3f29414f 	svccc	0x0029414f
    2ff4:	28203a30 	stmdacs	r0!, {r4, r5, r9, fp, ip, sp}
    2ff8:	20474552 	subcs	r4, r7, r2, asr r5
    2ffc:	47203d3d 			@ <UNDEFINED> instruction: 0x47203d3d
    3000:	424f4950 	submi	r4, pc, #80, 18	@ 0x140000
    3004:	3a313f29 	bcc	c52cb0 <_Min_Stack_Size+0xc528b0>
    3008:	45522820 	ldrbmi	r2, [r2, #-2080]	@ 0xfffff7e0
    300c:	3d3d2047 	ldccc	0, cr2, [sp, #-284]!	@ 0xfffffee4
    3010:	49504720 	ldmdbmi	r0, {r5, r8, r9, sl, lr}^
    3014:	3f29434f 	svccc	0x0029434f
    3018:	28203a32 	stmdacs	r0!, {r1, r4, r5, r9, fp, ip, sp}
    301c:	20474552 	subcs	r4, r7, r2, asr r5
    3020:	47203d3d 			@ <UNDEFINED> instruction: 0x47203d3d
    3024:	444f4950 	strbmi	r4, [pc], #-2384	@ 302c <_Min_Stack_Size+0x2c2c>
    3028:	3a333f29 	bcc	cd2cd4 <_Min_Stack_Size+0xcd28d4>
    302c:	5f002930 	svcpl	0x00002930
    3030:	544c465f 	strbpl	r4, [ip], #-1631	@ 0xfffff9a1
    3034:	4156455f 	cmpmi	r6, pc, asr r5
    3038:	454d5f4c 	strbmi	r5, [sp, #-3916]	@ 0xfffff0b4
    303c:	444f4854 	strbmi	r4, [pc], #-2132	@ 3044 <_Min_Stack_Size+0x2c44>
    3040:	5f53545f 	svcpl	0x0053545f
    3044:	36363831 			@ <UNDEFINED> instruction: 0x36363831
    3048:	5f335f31 	svcpl	0x00335f31
    304c:	0030205f 	eorseq	r2, r0, pc, asr r0
    3050:	74646475 	strbtvc	r6, [r4], #-1141	@ 0xfffffb8b
    3054:	4e6e6950 			@ <UNDEFINED> instruction: 0x4e6e6950
    3058:	65626d75 	strbvs	r6, [r2, #-3445]!	@ 0xfffff28b
    305c:	6e690072 	mcrvs	0, 3, r0, cr9, cr2, {3}
    3060:	322b2074 	eorcc	r2, fp, #116	@ 0x74
    3064:	544e4900 	strbpl	r4, [lr], #-2304	@ 0xfffff700
    3068:	28435f38 	stmdacs	r3, {r3, r4, r5, r8, r9, sl, fp, ip, lr}^
    306c:	5f202978 	svcpl	0x00202978
    3070:	544e495f 	strbpl	r4, [lr], #-2399	@ 0xfffff6a1
    3074:	28435f38 	stmdacs	r3, {r3, r4, r5, r8, r9, sl, fp, ip, lr}^
    3078:	5f002978 	svcpl	0x00002978
    307c:	4e49555f 	mcrmi	5, 2, r5, cr9, cr15, {2}
    3080:	41465f54 	cmpmi	r6, r4, asr pc
    3084:	5f385453 	svcpl	0x00385453
    3088:	45505954 	ldrbmi	r5, [r0, #-2388]	@ 0xfffff6ac
    308c:	75205f5f 	strvc	r5, [r0, #-3935]!	@ 0xfffff0a1
    3090:	6769736e 	strbvs	r7, [r9, -lr, ror #6]!
    3094:	2064656e 	rsbcs	r6, r4, lr, ror #10
    3098:	00746e69 	rsbseq	r6, r4, r9, ror #28
    309c:	4c4c5f5f 	mcrrmi	15, 5, r5, ip, cr15
    30a0:	55434341 	strbpl	r4, [r3, #-833]	@ 0xfffffcbf
    30a4:	42495f4d 	submi	r5, r9, #308	@ 0x134
    30a8:	5f5f5449 	svcpl	0x005f5449
    30ac:	00323320 	eorseq	r3, r2, r0, lsr #6
    30b0:	52465f5f 	subpl	r5, r6, #380	@ 0x17c
    30b4:	5f544341 	svcpl	0x00544341
    30b8:	49535045 	ldmdbmi	r3, {r0, r2, r6, ip, lr}^
    30bc:	5f4e4f4c 	svcpl	0x004e4f4c
    30c0:	7830205f 	ldmdavc	r0!, {r0, r1, r2, r3, r4, r6, sp}
    30c4:	312d5031 			@ <UNDEFINED> instruction: 0x312d5031
    30c8:	49005235 	stmdbmi	r0, {r0, r2, r4, r5, r9, ip, lr}
    30cc:	535f4332 	cmppl	pc, #-939524096	@ 0xc8000000
    30d0:	425f3152 	subsmi	r3, pc, #-2147483628	@ 0x80000014
    30d4:	49204654 	stmdbmi	r0!, {r2, r4, r6, r9, sl, lr}
    30d8:	535f4332 	cmppl	pc, #-939524096	@ 0xc8000000
    30dc:	425f3152 	subsmi	r3, pc, #-2147483628	@ 0x80000014
    30e0:	4d5f4654 	ldclmi	6, cr4, [pc, #-336]	@ 2f98 <_Min_Stack_Size+0x2b98>
    30e4:	4d006b73 	vstrmi	d6, [r0, #-460]	@ 0xfffffe34
    30e8:	4349564e 	movtmi	r5, #38478	@ 0x964e
    30ec:	4944535f 	stmdbmi	r4, {r0, r1, r2, r3, r4, r6, r8, r9, ip, lr}^
    30f0:	52495f4f 	subpl	r5, r9, #316	@ 0x13c
    30f4:	39342051 	ldmdbcc	r4!, {r0, r4, r6, sp}
    30f8:	43324900 	teqmi	r2, #0, 18
    30fc:	3152535f 	cmpcc	r2, pc, asr r3
    3100:	4d49545f 	cfstrdmi	mvd5, [r9, #-380]	@ 0xfffffe84
    3104:	54554f45 	ldrbpl	r4, [r5], #-3909	@ 0xfffff0bb
    3108:	736f505f 	cmnvc	pc, #95	@ 0x5f
    310c:	34312820 	ldrtcc	r2, [r1], #-2080	@ 0xfffff7e0
    3110:	5f002955 	svcpl	0x00002955
    3114:	544e495f 	strbpl	r4, [lr], #-2399	@ 0xfffff6a1
    3118:	4d5f3233 	lfmmi	f3, 2, [pc, #-204]	@ 3054 <_Min_Stack_Size+0x2c54>
    311c:	5f5f5841 	svcpl	0x005f5841
    3120:	37783020 	ldrbcc	r3, [r8, -r0, lsr #32]!
    3124:	66666666 	strbtvs	r6, [r6], -r6, ror #12
    3128:	4c666666 	stclmi	6, cr6, [r6], #-408	@ 0xfffffe68
    312c:	4c5f5f00 	mrrcmi	15, 0, r5, pc, cr0	@ <UNPREDICTABLE>
    3130:	54534145 	ldrbpl	r4, [r3], #-325	@ 0xfffffebb
    3134:	68222038 	stmdavs	r2!, {r3, r4, r5, sp}
    3138:	54002268 	strpl	r2, [r0], #-616	@ 0xfffffd98
    313c:	425f474f 	subsmi	r4, pc, #20709376	@ 0x13c0000
    3140:	28535449 	ldmdacs	r3, {r0, r3, r6, sl, ip, lr}^
    3144:	2c474552 	cfstr64cs	mvdx4, [r7], {82}	@ 0x52
    3148:	294b534d 	stmdbcs	fp, {r0, r2, r3, r6, r8, r9, ip, lr}^
    314c:	45522820 	ldrbmi	r2, [r2, #-2080]	@ 0xfffff7e0
    3150:	5e202947 	vnmulpl.f16	s4, s0, s14	@ <UNPREDICTABLE>
    3154:	4d28203d 	stcmi	0, cr2, [r8, #-244]!	@ 0xffffff0c
    3158:	00294b53 	eoreq	r4, r9, r3, asr fp
    315c:	42445f5f 	submi	r5, r4, #380	@ 0x17c
    3160:	41485f4c 	cmpmi	r8, ip, asr #30
    3164:	45445f53 	strbmi	r5, [r4, #-3923]	@ 0xfffff0ad
    3168:	4d524f4e 	ldclmi	15, cr4, [r2, #-312]	@ 0xfffffec8
    316c:	31205f5f 			@ <UNDEFINED> instruction: 0x31205f5f
    3170:	495f5f00 	ldmdbmi	pc, {r8, r9, sl, fp, ip, lr}^	@ <UNPREDICTABLE>
    3174:	4c5f544e 	cfldrdmi	mvd5, [pc], {78}	@ 0x4e
    3178:	54534145 	ldrbpl	r4, [r3], #-325	@ 0xfffffebb
    317c:	4d5f3436 	cfldrdmi	mvd3, [pc, #-216]	@ 30ac <_Min_Stack_Size+0x2cac>
    3180:	5f5f5841 	svcpl	0x005f5841
    3184:	37783020 	ldrbcc	r3, [r8, -r0, lsr #32]!
    3188:	66666666 	strbtvs	r6, [r6], -r6, ror #12
    318c:	66666666 	strbtvs	r6, [r6], -r6, ror #12
    3190:	66666666 	strbtvs	r6, [r6], -r6, ror #12
    3194:	4c666666 	stclmi	6, cr6, [r6], #-408	@ 0xfffffe68
    3198:	5f5f004c 	svcpl	0x005f004c
    319c:	53435041 	movtpl	r5, #12353	@ 0x3041
    31a0:	5f32335f 	svcpl	0x0032335f
    31a4:	0031205f 	eorseq	r2, r1, pc, asr r0
    31a8:	52415f5f 	subpl	r5, r1, #380	@ 0x17c
    31ac:	45465f4d 	strbmi	r5, [r6, #-3917]	@ 0xfffff0b3
    31b0:	52555441 	subspl	r5, r5, #1090519040	@ 0x41000000
    31b4:	46425f45 	strbmi	r5, [r2], -r5, asr #30
    31b8:	565f3631 			@ <UNDEFINED> instruction: 0x565f3631
    31bc:	4f544345 	svcmi	0x00544345
    31c0:	52415f52 	subpl	r5, r1, #328	@ 0x148
    31c4:	4d485449 	cfstrdmi	mvd5, [r8, #-292]	@ 0xfffffedc
    31c8:	43495445 	movtmi	r5, #37957	@ 0x9445
    31cc:	45445f00 	strbmi	r5, [r4, #-3840]	@ 0xfffff100
    31d0:	4c554146 	ldfmie	f4, [r5], {70}	@ 0x46
    31d4:	4f535f54 	svcmi	0x00535f54
    31d8:	45435255 	strbmi	r5, [r3, #-597]	@ 0xfffffdab
    31dc:	5f003120 	svcpl	0x00003120
    31e0:	544c465f 	strbpl	r4, [ip], #-1631	@ 0xfffff9a1
    31e4:	4d5f3233 	lfmmi	f3, 2, [pc, #-204]	@ 3120 <_Min_Stack_Size+0x2d20>
    31e8:	5f544e41 	svcpl	0x00544e41
    31ec:	5f474944 	svcpl	0x00474944
    31f0:	3432205f 	ldrtcc	r2, [r2], #-95	@ 0xffffffa1
    31f4:	50415500 	subpl	r5, r1, r0, lsl #10
    31f8:	4e495f49 	cdpmi	15, 4, cr5, cr9, cr9, {2}
    31fc:	494c4156 	stmdbmi	ip, {r1, r2, r4, r6, r8, lr}^
    3200:	41505f44 	cmpmi	r0, r4, asr #30
    3204:	5f004d52 	svcpl	0x00004d52
    3208:	544c465f 	strbpl	r4, [ip], #-1631	@ 0xfffff9a1
    320c:	445f3233 	ldrbmi	r3, [pc], #-563	@ 3214 <_Min_Stack_Size+0x2e14>
    3210:	524f4e45 	subpl	r4, pc, #1104	@ 0x450
    3214:	494d5f4d 	stmdbmi	sp, {r0, r2, r3, r6, r8, r9, sl, fp, ip, lr}^
    3218:	205f5f4e 	subscs	r5, pc, lr, asr #30
    321c:	30342e31 	eorscc	r2, r4, r1, lsr lr
    3220:	38393231 	ldmdacc	r9!, {r0, r4, r5, r9, ip, sp}
    3224:	33343634 	teqcc	r4, #52, 12	@ 0x3400000
    3228:	31383432 	teqcc	r8, r2, lsr r4
    322c:	2d653137 	stfcse	f3, [r5, #-220]!	@ 0xffffff24
    3230:	33463534 	movtcc	r3, #25908	@ 0x6534
    3234:	58450032 	stmdapl	r5, {r1, r4, r5}^
    3238:	50344954 	eorspl	r4, r4, r4, asr r9
    323c:	28203443 	stmdacs	r0!, {r0, r1, r6, sl, ip, sp}
    3240:	5458454d 	ldrbpl	r4, [r8], #-1357	@ 0xfffffab3
    3244:	64755f49 	ldrbtvs	r5, [r5], #-3913	@ 0xfffff0b7
    3248:	70477464 	subvc	r7, r7, r4, ror #8
    324c:	69506f69 	ldmdbvs	r0, {r0, r3, r5, r6, r8, r9, sl, fp, sp, lr}^
    3250:	29745f6e 	ldmdbcs	r4!, {r1, r2, r3, r5, r6, r8, r9, sl, fp, ip, lr}^
    3254:	58454d7b 	stmdapl	r5, {r0, r1, r3, r4, r5, r6, r8, sl, fp, lr}^
    3258:	4c5f4954 	mrrcmi	9, 5, r4, pc, cr4	@ <UNPREDICTABLE>
    325c:	34454e49 	strbcc	r4, [r5], #-3657	@ 0xfffff1b7
    3260:	5047202c 	subpl	r2, r7, ip, lsr #32
    3264:	2c434f49 	mcrrcs	15, 4, r4, r3, cr9
    3268:	50474d20 	subpl	r4, r7, r0, lsr #26
    326c:	505f4f49 	subspl	r4, pc, r9, asr #30
    3270:	2c344e49 	ldccs	14, cr4, [r4], #-292	@ 0xfffffedc
    3274:	564e4d20 	strbpl	r4, [lr], -r0, lsr #26
    3278:	455f4349 	ldrbmi	r4, [pc, #-841]	@ 2f37 <_Min_Stack_Size+0x2b37>
    327c:	34495458 	strbcc	r5, [r9], #-1112	@ 0xfffffba8
    3280:	5152495f 	cmppl	r2, pc, asr r9
    3284:	5f5f007d 	svcpl	0x005f007d
    3288:	544e4955 	strbpl	r4, [lr], #-2389	@ 0xfffff6ab
    328c:	435f3436 	cmpmi	pc, #905969664	@ 0x36000000
    3290:	20296328 	eorcs	r6, r9, r8, lsr #6
    3294:	23232063 			@ <UNDEFINED> instruction: 0x23232063
    3298:	4c4c5520 	cfstr64mi	mvdx5, [ip], {32}
    329c:	555f5f00 	ldrbpl	r5, [pc, #-3840]	@ 23a4 <_Min_Stack_Size+0x1fa4>
    32a0:	5f544e49 	svcpl	0x00544e49
    32a4:	5341454c 	movtpl	r4, #5452	@ 0x154c
    32a8:	5f343654 	svcpl	0x00343654
    32ac:	45505954 	ldrbmi	r5, [r0, #-2388]	@ 0xfffff6ac
    32b0:	6c205f5f 	stcvs	15, cr5, [r0], #-380	@ 0xfffffe84
    32b4:	20676e6f 	rsbcs	r6, r7, pc, ror #28
    32b8:	676e6f6c 	strbvs	r6, [lr, -ip, ror #30]!
    32bc:	736e7520 	cmnvc	lr, #32, 10	@ 0x8000000
    32c0:	656e6769 	strbvs	r6, [lr, #-1897]!	@ 0xfffff897
    32c4:	6e692064 	cdpvs	0, 6, cr2, cr9, cr4, {3}
    32c8:	58450074 	stmdapl	r5, {r2, r4, r5, r6}^
    32cc:	50334954 	eorspl	r4, r3, r4, asr r9
    32d0:	28203341 	stmdacs	r0!, {r0, r6, r8, r9, ip, sp}
    32d4:	5458454d 	ldrbpl	r4, [r8], #-1357	@ 0xfffffab3
    32d8:	64755f49 	ldrbtvs	r5, [r5], #-3913	@ 0xfffff0b7
    32dc:	70477464 	subvc	r7, r7, r4, ror #8
    32e0:	69506f69 	ldmdbvs	r0, {r0, r3, r5, r6, r8, r9, sl, fp, sp, lr}^
    32e4:	29745f6e 	ldmdbcs	r4!, {r1, r2, r3, r5, r6, r8, r9, sl, fp, ip, lr}^
    32e8:	58454d7b 	stmdapl	r5, {r0, r1, r3, r4, r5, r6, r8, sl, fp, lr}^
    32ec:	4c5f4954 	mrrcmi	9, 5, r4, pc, cr4	@ <UNPREDICTABLE>
    32f0:	33454e49 	movtcc	r4, #24137	@ 0x5e49
    32f4:	5047202c 	subpl	r2, r7, ip, lsr #32
    32f8:	2c414f49 	mcrrcs	15, 4, r4, r1, cr9
    32fc:	50474d20 	subpl	r4, r7, r0, lsr #26
    3300:	505f4f49 	subspl	r4, pc, r9, asr #30
    3304:	2c334e49 	ldccs	14, cr4, [r3], #-292	@ 0xfffffedc
    3308:	564e4d20 	strbpl	r4, [lr], -r0, lsr #26
    330c:	455f4349 	ldrbmi	r4, [pc, #-841]	@ 2fcb <_Min_Stack_Size+0x2bcb>
    3310:	33495458 	movtcc	r5, #37976	@ 0x9458
    3314:	5152495f 	cmppl	r2, pc, asr r9
    3318:	5f5f007d 	svcpl	0x005f007d
    331c:	52465355 	subpl	r5, r6, #1409286145	@ 0x54000001
    3320:	5f544341 	svcpl	0x00544341
    3324:	54494246 	strbpl	r4, [r9], #-582	@ 0xfffffdba
    3328:	38205f5f 	stmdacc	r0!, {r0, r1, r2, r3, r4, r6, r8, r9, sl, fp, ip, lr}
    332c:	4c5f5f00 	mrrcmi	15, 0, r5, pc, cr0	@ <UNPREDICTABLE>
    3330:	5f4c4244 	svcpl	0x004c4244
    3334:	49535045 	ldmdbmi	r3, {r0, r2, r6, ip, lr}^
    3338:	5f4e4f4c 	svcpl	0x004e4f4c
    333c:	2e32205f 	mrccs	0, 1, r2, cr2, cr15, {2}
    3340:	34303232 	ldrtcc	r3, [r0], #-562	@ 0xfffffdce
    3344:	34303634 	ldrtcc	r3, [r0], #-1588	@ 0xfffff9cc
    3348:	30353239 	eorscc	r3, r5, r9, lsr r2
    334c:	31333133 	teqcc	r3, r3, lsr r1
    3350:	36312d65 	ldrtcc	r2, [r1], -r5, ror #26
    3354:	3249004c 	subcc	r0, r9, #76	@ 0x4c
    3358:	52535f43 	subspl	r5, r3, #268	@ 0x10c
    335c:	58525f31 	ldmdapl	r2, {r0, r4, r5, r8, r9, sl, fp, ip, lr}^
    3360:	505f454e 	subspl	r4, pc, lr, asr #10
    3364:	2820736f 	stmdacs	r0!, {r0, r1, r2, r3, r5, r6, r8, r9, ip, sp, lr}
    3368:	00295536 	eoreq	r5, r9, r6, lsr r5
    336c:	49564e4d 	ldmdbmi	r6, {r0, r2, r3, r6, r9, sl, fp, lr}^
    3370:	58455f43 	stmdapl	r5, {r0, r1, r6, r8, r9, sl, fp, ip, lr}^
    3374:	5f314954 	svcpl	0x00314954
    3378:	20515249 	subscs	r5, r1, r9, asr #4
    337c:	32490037 	subcc	r0, r9, #55	@ 0x37
    3380:	52535f43 	subspl	r5, r3, #268	@ 0x10c
    3384:	45475f32 	strbmi	r5, [r7, #-3890]	@ 0xfffff0ce
    3388:	4c41434e 	mcrrmi	3, 4, r4, r1, cr14
    338c:	6f505f4c 	svcvs	0x00505f4c
    3390:	34282073 	strtcc	r2, [r8], #-115	@ 0xffffff8d
    3394:	5f002955 	svcpl	0x00002955
    3398:	4343475f 	movtmi	r4, #14175	@ 0x375f
    339c:	4f54415f 	svcmi	0x0054415f
    33a0:	5f43494d 	svcpl	0x0043494d
    33a4:	52414843 	subpl	r4, r1, #4390912	@ 0x430000
    33a8:	545f3631 	ldrbpl	r3, [pc], #-1585	@ 33b0 <_Min_Stack_Size+0x2fb0>
    33ac:	434f4c5f 	movtmi	r4, #64607	@ 0xfc5f
    33b0:	52465f4b 	subpl	r5, r6, #300	@ 0x12c
    33b4:	32204545 	eorcc	r4, r0, #289406976	@ 0x11400000
    33b8:	54584500 	ldrbpl	r4, [r8], #-1280	@ 0xfffffb00
    33bc:	50303149 	eorspl	r3, r0, r9, asr #2
    33c0:	20303143 	eorscs	r3, r0, r3, asr #2
    33c4:	58454d28 	stmdapl	r5, {r3, r5, r8, sl, fp, lr}^
    33c8:	755f4954 	ldrbvc	r4, [pc, #-2388]	@ 2a7c <_Min_Stack_Size+0x267c>
    33cc:	47746464 	ldrbmi	r6, [r4, -r4, ror #8]!
    33d0:	506f6970 	rsbpl	r6, pc, r0, ror r9	@ <UNPREDICTABLE>
    33d4:	745f6e69 	ldrbvc	r6, [pc], #-3689	@ 33dc <_Min_Stack_Size+0x2fdc>
    33d8:	454d7b29 	strbmi	r7, [sp, #-2857]	@ 0xfffff4d7
    33dc:	5f495458 	svcpl	0x00495458
    33e0:	454e494c 	strbmi	r4, [lr, #-2380]	@ 0xfffff6b4
    33e4:	202c3031 	eorcs	r3, ip, r1, lsr r0
    33e8:	4f495047 	svcmi	0x00495047
    33ec:	4d202c43 	stcmi	12, cr2, [r0, #-268]!	@ 0xfffffef4
    33f0:	4f495047 	svcmi	0x00495047
    33f4:	4e49505f 	mcrmi	0, 2, r5, cr9, cr15, {2}
    33f8:	202c3031 	eorcs	r3, ip, r1, lsr r0
    33fc:	49564e4d 	ldmdbmi	r6, {r0, r2, r3, r6, r9, sl, fp, lr}^
    3400:	58455f43 	stmdapl	r5, {r0, r1, r6, r8, r9, sl, fp, ip, lr}^
    3404:	35314954 	ldrcc	r4, [r1, #-2388]!	@ 0xfffff6ac
    3408:	5f30315f 	svcpl	0x0030315f
    340c:	7d515249 	lfmvc	f5, 2, [r1, #-292]	@ 0xfffffedc
    3410:	4b434c00 	blmi	10d6418 <_Min_Stack_Size+0x10d6018>
    3414:	5f5f0052 	svcpl	0x005f0052
    3418:	5f4c4244 	svcpl	0x004c4244
    341c:	5f58414d 	svcpl	0x0058414d
    3420:	5f505845 	svcpl	0x00505845
    3424:	3031205f 	eorscc	r2, r1, pc, asr r0
    3428:	5f003432 	svcpl	0x00003432
    342c:	5341465f 	movtpl	r4, #5727	@ 0x165f
    3430:	20343654 	eorscs	r3, r4, r4, asr r6
    3434:	226c6c22 	rsbcs	r6, ip, #8704	@ 0x2200
    3438:	415f5f00 	cmpmi	pc, r0, lsl #30
    343c:	494d4f54 	stmdbmi	sp, {r2, r4, r6, r8, r9, sl, fp, lr}^
    3440:	45525f43 	ldrbmi	r5, [r2, #-3907]	@ 0xfffff0bd
    3444:	5341454c 	movtpl	r4, #5452	@ 0x154c
    3448:	00332045 	eorseq	r2, r3, r5, asr #32
    344c:	69736e75 	ldmdbvs	r3!, {r0, r2, r4, r5, r6, r9, sl, fp, sp, lr}^
    3450:	64656e67 	strbtvs	r6, [r5], #-3687	@ 0xfffff199
    3454:	00302b20 	eorseq	r2, r0, r0, lsr #22
    3458:	5f433249 	svcpl	0x00433249
    345c:	5f315243 	svcpl	0x00315243
    3460:	52415453 	subpl	r5, r1, #1392508928	@ 0x53000000
    3464:	32492054 	subcc	r2, r9, #84	@ 0x54
    3468:	52435f43 	subpl	r5, r3, #268	@ 0x10c
    346c:	54535f31 	ldrbpl	r5, [r3], #-3889	@ 0xfffff0cf
    3470:	5f545241 	svcpl	0x00545241
    3474:	006b734d 	rsbeq	r7, fp, sp, asr #6
    3478:	4c465f5f 	mcrrmi	15, 5, r5, r6, cr15
    347c:	58323354 	ldmdapl	r2!, {r2, r4, r6, r8, r9, ip, sp}
    3480:	5341485f 	movtpl	r4, #6239	@ 0x185f
    3484:	4e45445f 	mcrmi	4, 2, r4, cr5, cr15, {2}
    3488:	5f4d524f 	svcpl	0x004d524f
    348c:	0031205f 	eorseq	r2, r1, pc, asr r0
    3490:	4c465f5f 	mcrrmi	15, 5, r5, r6, cr15
    3494:	414d5f54 	cmpmi	sp, r4, asr pc
    3498:	445f544e 	ldrbmi	r5, [pc], #-1102	@ 34a0 <_Min_Stack_Size+0x30a0>
    349c:	5f5f4749 	svcpl	0x005f4749
    34a0:	00343220 	eorseq	r3, r4, r0, lsr #4
    34a4:	5f433249 	svcpl	0x00433249
    34a8:	5f315253 	svcpl	0x00315253
    34ac:	5f52564f 	svcpl	0x0052564f
    34b0:	206b734d 	rsbcs	r7, fp, sp, asr #6
    34b4:	31783028 	cmncc	r8, r8, lsr #32
    34b8:	3c204c55 	stccc	12, cr4, [r0], #-340	@ 0xfffffeac
    34bc:	3249203c 	subcc	r2, r9, #60	@ 0x3c
    34c0:	52535f43 	subspl	r5, r3, #268	@ 0x10c
    34c4:	564f5f31 			@ <UNDEFINED> instruction: 0x564f5f31
    34c8:	6f505f52 	svcvs	0x00505f52
    34cc:	49002973 	stmdbmi	r0, {r0, r1, r4, r5, r6, r8, fp, sp}
    34d0:	20324332 	eorscs	r4, r2, r2, lsr r3
    34d4:	32492828 	subcc	r2, r9, #40, 16	@ 0x280000
    34d8:	65725f43 	ldrbvs	r5, [r2, #-3907]!	@ 0xfffff0bd
    34dc:	74736967 	ldrbtvc	r6, [r3], #-2407	@ 0xfffff699
    34e0:	614d7265 	cmpvs	sp, r5, ror #4
    34e4:	2a745f70 	bcs	1d1b2ac <_Min_Stack_Size+0x1d1aeac>
    34e8:	43324929 	teqmi	r2, #671744	@ 0xa4000
    34ec:	41425f32 	cmpmi	r2, r2, lsr pc
    34f0:	00294553 	eoreq	r4, r9, r3, asr r5
    34f4:	44555f5f 	ldrbmi	r5, [r5], #-3935	@ 0xfffff0a1
    34f8:	42495f51 	submi	r5, r9, #324	@ 0x144
    34fc:	5f5f5449 	svcpl	0x005f5449
    3500:	49003020 	stmdbmi	r0, {r5, ip, sp}
    3504:	435f4332 	cmpmi	pc, #-939524096	@ 0xc8000000
    3508:	535f3152 	cmppl	pc, #-2147483628	@ 0x80000014
    350c:	54524154 	ldrbpl	r4, [r2], #-340	@ 0xfffffeac
    3510:	736f505f 	cmnvc	pc, #95	@ 0x5f
    3514:	55382820 	ldrpl	r2, [r8, #-2080]!	@ 0xfffff7e0
    3518:	58450029 	stmdapl	r5, {r0, r3, r5}^
    351c:	50394954 	eorspl	r4, r9, r4, asr r9
    3520:	28203941 	stmdacs	r0!, {r0, r6, r8, fp, ip, sp}
    3524:	5458454d 	ldrbpl	r4, [r8], #-1357	@ 0xfffffab3
    3528:	64755f49 	ldrbtvs	r5, [r5], #-3913	@ 0xfffff0b7
    352c:	70477464 	subvc	r7, r7, r4, ror #8
    3530:	69506f69 	ldmdbvs	r0, {r0, r3, r5, r6, r8, r9, sl, fp, sp, lr}^
    3534:	29745f6e 	ldmdbcs	r4!, {r1, r2, r3, r5, r6, r8, r9, sl, fp, ip, lr}^
    3538:	58454d7b 	stmdapl	r5, {r0, r1, r3, r4, r5, r6, r8, sl, fp, lr}^
    353c:	4c5f4954 	mrrcmi	9, 5, r4, pc, cr4	@ <UNPREDICTABLE>
    3540:	39454e49 	stmdbcc	r5, {r0, r3, r6, r9, sl, fp, lr}^
    3544:	5047202c 	subpl	r2, r7, ip, lsr #32
    3548:	2c414f49 	mcrrcs	15, 4, r4, r1, cr9
    354c:	50474d20 	subpl	r4, r7, r0, lsr #26
    3550:	505f4f49 	subspl	r4, pc, r9, asr #30
    3554:	2c394e49 	ldccs	14, cr4, [r9], #-292	@ 0xfffffedc
    3558:	564e4d20 	strbpl	r4, [lr], -r0, lsr #26
    355c:	455f4349 	ldrbmi	r4, [pc, #-841]	@ 321b <_Min_Stack_Size+0x2e1b>
    3560:	39495458 	stmdbcc	r9, {r3, r4, r6, sl, ip, lr}^
    3564:	495f355f 	ldmdbmi	pc, {r0, r1, r2, r3, r4, r6, r8, sl, ip, sp}^	@ <UNPREDICTABLE>
    3568:	007d5152 	rsbseq	r5, sp, r2, asr r1
    356c:	41555f5f 	cmpmi	r5, pc, asr pc
    3570:	4d554343 	ldclmi	3, cr4, [r5, #-268]	@ 0xfffffef4
    3574:	58414d5f 	stmdapl	r1, {r0, r1, r2, r3, r4, r6, r8, sl, fp, lr}^
    3578:	30205f5f 	eorcc	r5, r0, pc, asr pc
    357c:	46464658 			@ <UNDEFINED> instruction: 0x46464658
    3580:	46464646 	strbmi	r4, [r6], -r6, asr #12
    3584:	312d5046 			@ <UNDEFINED> instruction: 0x312d5046
    3588:	004b5536 	subeq	r5, fp, r6, lsr r5
    358c:	544e495f 	strbpl	r4, [lr], #-2399	@ 0xfffff6a1
    3590:	545f3233 	ldrbpl	r3, [pc], #-563	@ 3598 <_Min_Stack_Size+0x3198>
    3594:	4345445f 	movtmi	r4, #21599	@ 0x545f
    3598:	4552414c 	ldrbmi	r4, [r2, #-332]	@ 0xfffffeb4
    359c:	45002044 	strmi	r2, [r0, #-68]	@ 0xffffffbc
    35a0:	30495458 	subcc	r5, r9, r8, asr r4
    35a4:	20304250 	eorscs	r4, r0, r0, asr r2
    35a8:	58454d28 	stmdapl	r5, {r3, r5, r8, sl, fp, lr}^
    35ac:	755f4954 	ldrbvc	r4, [pc, #-2388]	@ 2c60 <_Min_Stack_Size+0x2860>
    35b0:	47746464 	ldrbmi	r6, [r4, -r4, ror #8]!
    35b4:	506f6970 	rsbpl	r6, pc, r0, ror r9	@ <UNPREDICTABLE>
    35b8:	745f6e69 	ldrbvc	r6, [pc], #-3689	@ 35c0 <_Min_Stack_Size+0x31c0>
    35bc:	454d7b29 	strbmi	r7, [sp, #-2857]	@ 0xfffff4d7
    35c0:	5f495458 	svcpl	0x00495458
    35c4:	454e494c 	strbmi	r4, [lr, #-2380]	@ 0xfffff6b4
    35c8:	47202c30 			@ <UNDEFINED> instruction: 0x47202c30
    35cc:	424f4950 	submi	r4, pc, #80, 18	@ 0x140000
    35d0:	474d202c 	strbmi	r2, [sp, -ip, lsr #32]
    35d4:	5f4f4950 	svcpl	0x004f4950
    35d8:	304e4950 	subcc	r4, lr, r0, asr r9
    35dc:	4e4d202c 	cdpmi	0, 4, cr2, cr13, cr12, {1}
    35e0:	5f434956 	svcpl	0x00434956
    35e4:	49545845 	ldmdbmi	r4, {r0, r2, r6, fp, ip, lr}^
    35e8:	52495f30 	subpl	r5, r9, #48, 30	@ 0xc0
    35ec:	5f007d51 	svcpl	0x00007d51
    35f0:	544c465f 	strbpl	r4, [ip], #-1631	@ 0xfffff9a1
    35f4:	4e5f3436 	mrcmi	4, 2, r3, cr15, cr6, {1}
    35f8:	5f4d524f 	svcpl	0x004d524f
    35fc:	5f58414d 	svcpl	0x0058414d
    3600:	2e31205f 	mrccs	0, 1, r2, cr1, cr15, {2}
    3604:	36373937 			@ <UNDEFINED> instruction: 0x36373937
    3608:	33313339 	teqcc	r1, #-469762048	@ 0xe4000000
    360c:	32363834 	eorscc	r3, r6, #52, 16	@ 0x340000
    3610:	37353133 			@ <UNDEFINED> instruction: 0x37353133
    3614:	30332b65 	eorscc	r2, r3, r5, ror #22
    3618:	34364638 	ldrtcc	r4, [r6], #-1592	@ 0xfffff9c8
    361c:	465f5f00 	ldrbmi	r5, [pc], -r0, lsl #30
    3620:	33545341 	cmpcc	r4, #67108865	@ 0x4000001
    3624:	5f002032 	svcpl	0x00002032
    3628:	4e49465f 	mcrmi	6, 2, r4, cr9, cr15, {2}
    362c:	5f455449 	svcpl	0x00455449
    3630:	4854414d 	ldmdami	r4, {r0, r2, r3, r6, r8, lr}^
    3634:	4c4e4f5f 	mcrrmi	15, 5, r4, lr, cr15
    3638:	205f5f59 	subscs	r5, pc, r9, asr pc	@ <UNPREDICTABLE>
    363c:	4f540030 	svcmi	0x00540030
    3640:	49425f47 	stmdbmi	r2, {r0, r1, r2, r6, r8, r9, sl, fp, ip, lr}^
    3644:	45522854 	ldrbmi	r2, [r2, #-2132]	@ 0xfffff7ac
    3648:	49422c47 	stmdbmi	r2, {r0, r1, r2, r6, sl, fp, sp}^
    364c:	554e5f54 	strbpl	r5, [lr, #-3924]	@ 0xfffff0ac
    3650:	5245424d 	subpl	r4, r5, #-805306364	@ 0xd0000004
    3654:	52282029 	eorpl	r2, r8, #41	@ 0x29
    3658:	5e204745 	cdppl	7, 2, cr4, cr0, cr5, {2}
    365c:	3128203d 			@ <UNDEFINED> instruction: 0x3128203d
    3660:	203c3c20 	eorscs	r3, ip, r0, lsr #24
    3664:	5f544942 	svcpl	0x00544942
    3668:	424d554e 	submi	r5, sp, #327155712	@ 0x13800000
    366c:	29295245 	stmdbcs	r9!, {r0, r2, r6, r9, ip, lr}
    3670:	4c5f5f00 	mrrcmi	15, 0, r5, pc, cr0	@ <UNPREDICTABLE>
    3674:	5f4c4244 	svcpl	0x004c4244
    3678:	4f4e4544 	svcmi	0x004e4544
    367c:	4d5f4d52 	ldclmi	13, cr4, [pc, #-328]	@ 353c <_Min_Stack_Size+0x313c>
    3680:	5f5f4e49 	svcpl	0x005f4e49
    3684:	392e3420 	stmdbcc	lr!, {r5, sl, ip, sp}
    3688:	35363034 	ldrcc	r3, [r6, #-52]!	@ 0xffffffcc
    368c:	38353436 	ldmdacc	r5!, {r1, r2, r4, r5, sl, ip, sp}
    3690:	34323134 	ldrtcc	r3, [r2], #-308	@ 0xfffffecc
    3694:	65343536 	ldrvs	r3, [r4, #-1334]!	@ 0xfffffaca
    3698:	3432332d 	ldrtcc	r3, [r2], #-813	@ 0xfffffcd3
    369c:	5f5f004c 	svcpl	0x005f004c
    36a0:	464c4c55 			@ <UNDEFINED> instruction: 0x464c4c55
    36a4:	54434152 	strbpl	r4, [r3], #-338	@ 0xfffffeae
    36a8:	4942495f 	stmdbmi	r2, {r0, r1, r2, r3, r4, r6, r8, fp, lr}^
    36ac:	205f5f54 	subscs	r5, pc, r4, asr pc	@ <UNPREDICTABLE>
    36b0:	5f5f0030 	svcpl	0x005f0030
    36b4:	36544e49 	ldrbcc	r4, [r4], -r9, asr #28
    36b8:	414d5f34 	cmpmi	sp, r4, lsr pc
    36bc:	205f5f58 	subscs	r5, pc, r8, asr pc	@ <UNPREDICTABLE>
    36c0:	66377830 			@ <UNDEFINED> instruction: 0x66377830
    36c4:	66666666 	strbtvs	r6, [r6], -r6, ror #12
    36c8:	66666666 	strbtvs	r6, [r6], -r6, ror #12
    36cc:	66666666 	strbtvs	r6, [r6], -r6, ror #12
    36d0:	4c4c6666 	mcrrmi	6, 6, r6, ip, cr6
    36d4:	415f5f00 	cmpmi	pc, r0, lsl #30
    36d8:	465f4d52 			@ <UNDEFINED> instruction: 0x465f4d52
    36dc:	55544145 	ldrbpl	r4, [r4, #-325]	@ 0xfffffebb
    36e0:	535f4552 	cmppl	pc, #343932928	@ 0x14800000
    36e4:	31205441 			@ <UNDEFINED> instruction: 0x31205441
    36e8:	465f5f00 	ldrbmi	r5, [pc], -r0, lsl #30
    36ec:	3233544c 	eorscc	r5, r3, #76, 8	@ 0x4c000000
    36f0:	494d5f58 	stmdbmi	sp, {r3, r4, r6, r8, r9, sl, fp, ip, lr}^
    36f4:	30315f4e 	eorscc	r5, r1, lr, asr #30
    36f8:	5058455f 	subspl	r4, r8, pc, asr r5
    36fc:	28205f5f 	stmdacs	r0!, {r0, r1, r2, r3, r4, r6, r8, r9, sl, fp, ip, lr}
    3700:	3730332d 	ldrcc	r3, [r0, -sp, lsr #6]!
    3704:	58450029 	stmdapl	r5, {r0, r3, r5}^
    3708:	34314954 	ldrtcc	r4, [r1], #-2388	@ 0xfffff6ac
    370c:	34314250 	ldrtcc	r4, [r1], #-592	@ 0xfffffdb0
    3710:	454d2820 	strbmi	r2, [sp, #-2080]	@ 0xfffff7e0
    3714:	5f495458 	svcpl	0x00495458
    3718:	74646475 	strbtvc	r6, [r4], #-1141	@ 0xfffffb8b
    371c:	6f697047 	svcvs	0x00697047
    3720:	5f6e6950 	svcpl	0x006e6950
    3724:	4d7b2974 			@ <UNDEFINED> instruction: 0x4d7b2974
    3728:	49545845 	ldmdbmi	r4, {r0, r2, r6, fp, ip, lr}^
    372c:	4e494c5f 	mcrmi	12, 2, r4, cr9, cr15, {2}
    3730:	2c343145 	ldfcss	f3, [r4], #-276	@ 0xfffffeec
    3734:	49504720 	ldmdbmi	r0, {r5, r8, r9, sl, lr}^
    3738:	202c424f 	eorcs	r4, ip, pc, asr #4
    373c:	4950474d 	ldmdbmi	r0, {r0, r2, r3, r6, r8, r9, sl, lr}^
    3740:	49505f4f 	ldmdbmi	r0, {r0, r1, r2, r3, r6, r8, r9, sl, fp, ip, lr}^
    3744:	2c34314e 	ldfcss	f3, [r4], #-312	@ 0xfffffec8
    3748:	564e4d20 	strbpl	r4, [lr], -r0, lsr #26
    374c:	455f4349 	ldrbmi	r4, [pc, #-841]	@ 340b <_Min_Stack_Size+0x300b>
    3750:	31495458 	cmpcc	r9, r8, asr r4
    3754:	30315f35 	eorscc	r5, r1, r5, lsr pc
    3758:	5152495f 	cmppl	r2, pc, asr r9
    375c:	5f5f007d 	svcpl	0x005f007d
    3760:	43554e47 	cmpmi	r5, #1136	@ 0x470
    3764:	31205f5f 			@ <UNDEFINED> instruction: 0x31205f5f
    3768:	58450032 	stmdapl	r5, {r1, r4, r5}^
    376c:	35314954 	ldrcc	r4, [r1, #-2388]!	@ 0xfffff6ac
    3770:	35314350 	ldrcc	r4, [r1, #-848]!	@ 0xfffffcb0
    3774:	454d2820 	strbmi	r2, [sp, #-2080]	@ 0xfffff7e0
    3778:	5f495458 	svcpl	0x00495458
    377c:	74646475 	strbtvc	r6, [r4], #-1141	@ 0xfffffb8b
    3780:	6f697047 	svcvs	0x00697047
    3784:	5f6e6950 	svcpl	0x006e6950
    3788:	4d7b2974 			@ <UNDEFINED> instruction: 0x4d7b2974
    378c:	49545845 	ldmdbmi	r4, {r0, r2, r6, fp, ip, lr}^
    3790:	4e494c5f 	mcrmi	12, 2, r4, cr9, cr15, {2}
    3794:	2c353145 	ldfcss	f3, [r5], #-276	@ 0xfffffeec
    3798:	49504720 	ldmdbmi	r0, {r5, r8, r9, sl, lr}^
    379c:	202c434f 	eorcs	r4, ip, pc, asr #6
    37a0:	4950474d 	ldmdbmi	r0, {r0, r2, r3, r6, r8, r9, sl, lr}^
    37a4:	49505f4f 	ldmdbmi	r0, {r0, r1, r2, r3, r6, r8, r9, sl, fp, ip, lr}^
    37a8:	2c35314e 	ldfcss	f3, [r5], #-312	@ 0xfffffec8
    37ac:	564e4d20 	strbpl	r4, [lr], -r0, lsr #26
    37b0:	455f4349 	ldrbmi	r4, [pc, #-841]	@ 346f <_Min_Stack_Size+0x306f>
    37b4:	31495458 	cmpcc	r9, r8, asr r4
    37b8:	30315f35 	eorscc	r5, r1, r5, lsr pc
    37bc:	5152495f 	cmppl	r2, pc, asr r9
    37c0:	3249007d 	subcc	r0, r9, #125	@ 0x7d
    37c4:	52535f43 	subspl	r5, r3, #268	@ 0x10c
    37c8:	4d535f32 	ldclmi	15, cr5, [r3, #-200]	@ 0xffffff38
    37cc:	534f4842 	movtpl	r4, #63554	@ 0xf842
    37d0:	734d5f54 	movtvc	r5, #57172	@ 0xdf54
    37d4:	3028206b 	eorcc	r2, r8, fp, rrx
    37d8:	4c553178 	ldfmie	f3, [r5], {120}	@ 0x78
    37dc:	203c3c20 	eorscs	r3, ip, r0, lsr #24
    37e0:	5f433249 	svcpl	0x00433249
    37e4:	5f325253 	svcpl	0x00325253
    37e8:	48424d53 	stmdami	r2, {r0, r1, r4, r6, r8, sl, fp, lr}^
    37ec:	5f54534f 	svcpl	0x0054534f
    37f0:	29736f50 	ldmdbcs	r3!, {r4, r6, r8, r9, sl, fp, sp, lr}^
    37f4:	43324900 	teqmi	r2, #0, 18
    37f8:	3252435f 	subscc	r4, r2, #2080374785	@ 0x7c000001
    37fc:	4554495f 	ldrbmi	r4, [r4, #-2399]	@ 0xfffff6a1
    3800:	4e455456 	mcrmi	4, 2, r5, cr5, cr6, {2}
    3804:	736f505f 	cmnvc	pc, #95	@ 0x5f
    3808:	55392820 	ldrpl	r2, [r9, #-2080]!	@ 0xfffff7e0
    380c:	5f5f0029 	svcpl	0x005f0029
    3810:	474e4f4c 	strbmi	r4, [lr, -ip, asr #30]
    3814:	4449575f 	strbmi	r5, [r9], #-1887	@ 0xfffff8a1
    3818:	5f5f4854 	svcpl	0x005f4854
    381c:	00323320 	eorseq	r3, r2, r0, lsr #6
    3820:	4c465f5f 	mcrrmi	15, 5, r5, r6, cr15
    3824:	414d5f54 	cmpmi	sp, r4, asr pc
    3828:	205f5f58 	subscs	r5, pc, r8, asr pc	@ <UNPREDICTABLE>
    382c:	30342e33 	eorscc	r2, r4, r3, lsr lr
    3830:	33323832 	teqcc	r2, #3276800	@ 0x320000
    3834:	33363634 	teqcc	r6, #52, 12	@ 0x3400000
    3838:	38323538 	ldmdacc	r2!, {r3, r4, r5, r8, sl, ip, sp}
    383c:	2b653638 	blcs	1951124 <_Min_Stack_Size+0x1950d24>
    3840:	00463833 	subeq	r3, r6, r3, lsr r8
    3844:	41555f5f 	cmpmi	r5, pc, asr pc
    3848:	4d554343 	ldclmi	3, cr4, [r5, #-268]	@ 0xfffffef4
    384c:	4942465f 	stmdbmi	r2, {r0, r1, r2, r3, r4, r6, r9, sl, lr}^
    3850:	205f5f54 	subscs	r5, pc, r4, asr pc	@ <UNPREDICTABLE>
    3854:	5f003631 	svcpl	0x00003631
    3858:	5246555f 	subpl	r5, r6, #398458880	@ 0x17c00000
    385c:	5f544341 	svcpl	0x00544341
    3860:	49535045 	ldmdbmi	r3, {r0, r2, r6, ip, lr}^
    3864:	5f4e4f4c 	svcpl	0x004e4f4c
    3868:	7830205f 	ldmdavc	r0!, {r0, r1, r2, r3, r4, r6, sp}
    386c:	312d5031 			@ <UNDEFINED> instruction: 0x312d5031
    3870:	00525536 	subseq	r5, r2, r6, lsr r5
    3874:	43575f5f 	cmpmi	r7, #380	@ 0x17c
    3878:	5f524148 	svcpl	0x00524148
    387c:	5f4e494d 	svcpl	0x004e494d
    3880:	5530205f 	ldrpl	r2, [r0, #-95]!	@ 0xffffffa1
    3884:	495f5f00 	ldmdbmi	pc, {r8, r9, sl, fp, ip, lr}^	@ <UNPREDICTABLE>
    3888:	3631544e 	ldrtcc	r5, [r1], -lr, asr #8
    388c:	22682220 	rsbcs	r2, r8, #32, 4
    3890:	454e5f00 	strbmi	r5, [lr, #-3840]	@ 0xfffff100
    3894:	42494c57 	submi	r4, r9, #22272	@ 0x5700
    3898:	5245565f 	subpl	r5, r5, #99614720	@ 0x5f00000
    389c:	4e4f4953 			@ <UNDEFINED> instruction: 0x4e4f4953
    38a0:	5f5f485f 	svcpl	0x005f485f
    38a4:	5f003120 	svcpl	0x00003120
    38a8:	4343475f 	movtmi	r4, #14175	@ 0x375f
    38ac:	4f54415f 	svcmi	0x0054415f
    38b0:	5f43494d 	svcpl	0x0043494d
    38b4:	474e4f4c 	strbmi	r4, [lr, -ip, asr #30]
    38b8:	434f4c5f 	movtmi	r4, #64607	@ 0xfc5f
    38bc:	52465f4b 	subpl	r5, r6, #300	@ 0x12c
    38c0:	32204545 	eorcc	r4, r0, #289406976	@ 0x11400000
    38c4:	555f5f00 	ldrbpl	r5, [pc, #-3840]	@ 29cc <_Min_Stack_Size+0x25cc>
    38c8:	4343414c 	movtmi	r4, #12620	@ 0x314c
    38cc:	4d5f4d55 	ldclmi	13, cr4, [pc, #-340]	@ 3780 <_Min_Stack_Size+0x3380>
    38d0:	5f5f4e49 	svcpl	0x005f4e49
    38d4:	302e3020 	eorcc	r3, lr, r0, lsr #32
    38d8:	004b4c55 	subeq	r4, fp, r5, asr ip
    38dc:	69755f5f 	ldmdbvs	r5!, {r0, r1, r2, r3, r4, r6, r8, r9, sl, fp, ip, lr}^
    38e0:	3233746e 	eorscc	r7, r3, #1845493760	@ 0x6e000000
    38e4:	5f00745f 	svcpl	0x0000745f
    38e8:	544e495f 	strbpl	r4, [lr], #-2399	@ 0xfffff6a1
    38ec:	58414d5f 	stmdapl	r1, {r0, r1, r2, r3, r4, r6, r8, sl, fp, lr}^
    38f0:	30205f5f 	eorcc	r5, r0, pc, asr pc
    38f4:	66663778 			@ <UNDEFINED> instruction: 0x66663778
    38f8:	66666666 	strbtvs	r6, [r6], -r6, ror #12
    38fc:	5f5f0066 	svcpl	0x005f0066
    3900:	5f4d5241 	svcpl	0x004d5241
    3904:	48435241 	stmdami	r3, {r0, r6, r9, ip, lr}^
    3908:	5f003720 	svcpl	0x00003720
    390c:	544e495f 	strbpl	r4, [lr], #-2399	@ 0xfffff6a1
    3910:	545f3233 	ldrbpl	r3, [pc], #-563	@ 3918 <_Min_Stack_Size+0x3518>
    3914:	5f455059 	svcpl	0x00455059
    3918:	6f6c205f 	svcvs	0x006c205f
    391c:	6920676e 	stmdbvs	r0!, {r1, r2, r3, r5, r6, r8, r9, sl, sp, lr}
    3920:	4900746e 	stmdbmi	r0, {r1, r2, r3, r5, r6, sl, ip, sp, lr}
    3924:	435f4332 	cmpmi	pc, #-939524096	@ 0xc8000000
    3928:	495f3252 	ldmdbmi	pc, {r1, r4, r6, r9, ip, sp}^	@ <UNPREDICTABLE>
    392c:	54564554 	ldrbpl	r4, [r6], #-1364	@ 0xfffffaac
    3930:	4d5f4e45 	ldclmi	14, cr4, [pc, #-276]	@ 3824 <_Min_Stack_Size+0x3424>
    3934:	28206b73 	stmdacs	r0!, {r0, r1, r4, r5, r6, r8, r9, fp, sp, lr}
    3938:	55317830 	ldrpl	r7, [r1, #-2096]!	@ 0xfffff7d0
    393c:	3c3c204c 	ldccc	0, cr2, [ip], #-304	@ 0xfffffed0
    3940:	43324920 	teqmi	r2, #32, 18	@ 0x80000
    3944:	3252435f 	subscc	r4, r2, #2080374785	@ 0x7c000001
    3948:	4554495f 	ldrbmi	r4, [r4, #-2399]	@ 0xfffff6a1
    394c:	4e455456 	mcrmi	4, 2, r5, cr5, cr6, {2}
    3950:	736f505f 	cmnvc	pc, #95	@ 0x5f
    3954:	5f5f0029 	svcpl	0x005f0029
    3958:	5f544c46 	svcpl	0x00544c46
    395c:	49444152 	stmdbmi	r4, {r1, r4, r6, r8, lr}^
    3960:	205f5f58 	subscs	r5, pc, r8, asr pc	@ <UNPREDICTABLE>
    3964:	32490032 	subcc	r0, r9, #50	@ 0x32
    3968:	52435f43 	subpl	r5, r3, #268	@ 0x10c
    396c:	52465f32 	subpl	r5, r6, #50, 30	@ 0xc8
    3970:	505f5145 	subspl	r5, pc, r5, asr #2
    3974:	2820736f 	stmdacs	r0!, {r0, r1, r2, r3, r5, r6, r8, r9, ip, sp, lr}
    3978:	00295530 	eoreq	r5, r9, r0, lsr r5
    397c:	52415f5f 	subpl	r5, r1, #380	@ 0x17c
    3980:	45465f4d 	strbmi	r5, [r6, #-3917]	@ 0xfffff0b3
    3984:	52555441 	subspl	r5, r5, #1090519040	@ 0x41000000
    3988:	4d435f45 	stclmi	15, cr5, [r3, #-276]	@ 0xfffffeec
    398c:	55004553 	strpl	r4, [r0, #-1363]	@ 0xfffffaad
    3990:	33544e49 	cmpcc	r4, #1168	@ 0x490
    3994:	414d5f32 	cmpmi	sp, r2, lsr pc
    3998:	5f282058 	svcpl	0x00282058
    399c:	4e49555f 	mcrmi	5, 2, r5, cr9, cr15, {2}
    39a0:	5f323354 	svcpl	0x00323354
    39a4:	5f58414d 	svcpl	0x0058414d
    39a8:	4d00295f 	vstrmi.16	s4, [r0, #-190]	@ 0xffffff42	@ <UNPREDICTABLE>
    39ac:	4349564e 	movtmi	r5, #38478	@ 0x964e
    39b0:	5458455f 	ldrbpl	r4, [r8], #-1375	@ 0xfffffaa1
    39b4:	495f3249 	ldmdbmi	pc, {r0, r3, r6, r9, ip, sp}^	@ <UNPREDICTABLE>
    39b8:	38205152 	stmdacc	r0!, {r1, r4, r6, r8, ip, lr}
    39bc:	43324900 	teqmi	r2, #0, 18
    39c0:	3152435f 	cmpcc	r2, pc, asr r3
    39c4:	474e455f 	smlsldmi	r4, lr, pc, r5	@ <UNPREDICTABLE>
    39c8:	6f505f43 	svcvs	0x00505f43
    39cc:	36282073 			@ <UNDEFINED> instruction: 0x36282073
    39d0:	5f002955 	svcpl	0x00002955
    39d4:	42444c5f 	submi	r4, r4, #24320	@ 0x5f00
    39d8:	41485f4c 	cmpmi	r8, ip, asr #30
    39dc:	55515f53 	ldrbpl	r5, [r1, #-3923]	@ 0xfffff0ad
    39e0:	5f544549 	svcpl	0x00544549
    39e4:	5f4e414e 	svcpl	0x004e414e
    39e8:	0031205f 	eorseq	r2, r1, pc, asr r0
    39ec:	4f4c5f5f 	svcmi	0x004c5f5f
    39f0:	4c5f474e 	mrrcmi	7, 4, r4, pc, cr14	@ <UNPREDICTABLE>
    39f4:	5f474e4f 	svcpl	0x00474e4f
    39f8:	54444957 	strbpl	r4, [r4], #-2391	@ 0xfffff6a9
    39fc:	205f5f48 	subscs	r5, pc, r8, asr #30
    3a00:	57003436 	smladxpl	r0, r6, r4, r3
    3a04:	5f544e49 	svcpl	0x00544e49
    3a08:	2058414d 	subscs	r4, r8, sp, asr #2
    3a0c:	575f5f28 	ldrbpl	r5, [pc, -r8, lsr #30]
    3a10:	5f544e49 	svcpl	0x00544e49
    3a14:	5f58414d 	svcpl	0x0058414d
    3a18:	5f00295f 	svcpl	0x0000295f
    3a1c:	4c57454e 	cfldr64mi	mvdx4, [r7], {78}	@ 0x4e
    3a20:	565f4249 	ldrbpl	r4, [pc], -r9, asr #4
    3a24:	49535245 	ldmdbmi	r3, {r0, r2, r6, r9, ip, lr}^
    3a28:	22204e4f 	eorcs	r4, r0, #1264	@ 0x4f0
    3a2c:	2e332e34 	mrccs	14, 1, r2, cr3, cr4, {1}
    3a30:	5f002230 	svcpl	0x00002230
    3a34:	4e49555f 	mcrmi	5, 2, r5, cr9, cr15, {2}
    3a38:	41465f54 	cmpmi	r6, r4, asr pc
    3a3c:	34365453 	ldrtcc	r5, [r6], #-1107	@ 0xfffffbad
    3a40:	58414d5f 	stmdapl	r1, {r0, r1, r2, r3, r4, r6, r8, sl, fp, lr}^
    3a44:	30205f5f 	eorcc	r5, r0, pc, asr pc
    3a48:	66666678 			@ <UNDEFINED> instruction: 0x66666678
    3a4c:	66666666 	strbtvs	r6, [r6], -r6, ror #12
    3a50:	66666666 	strbtvs	r6, [r6], -r6, ror #12
    3a54:	66666666 	strbtvs	r6, [r6], -r6, ror #12
    3a58:	4c4c5566 	cfstr64mi	mvdx5, [ip], {102}	@ 0x66
    3a5c:	415f5f00 	cmpmi	pc, r0, lsl #30
    3a60:	465f4d52 			@ <UNDEFINED> instruction: 0x465f4d52
    3a64:	5f5f0050 	svcpl	0x005f0050
    3a68:	495f4148 	ldmdbmi	pc, {r3, r6, r8, lr}^	@ <UNPREDICTABLE>
    3a6c:	5f544942 	svcpl	0x00544942
    3a70:	0038205f 	eorseq	r2, r8, pc, asr r0
    3a74:	52415f5f 	subpl	r5, r1, #380	@ 0x17c
    3a78:	45465f4d 	strbmi	r5, [r6, #-3917]	@ 0xfffff0b3
    3a7c:	52555441 	subspl	r5, r5, #1090519040	@ 0x41000000
    3a80:	53445f45 	movtpl	r5, #20293	@ 0x4f45
    3a84:	5f5f0050 	svcpl	0x005f0050
    3a88:	50544e49 	subspl	r4, r4, r9, asr #28
    3a8c:	575f5254 			@ <UNDEFINED> instruction: 0x575f5254
    3a90:	48544449 	ldmdami	r4, {r0, r3, r6, sl, lr}^
    3a94:	33205f5f 			@ <UNDEFINED> instruction: 0x33205f5f
    3a98:	45530032 	ldrbmi	r0, [r3, #-50]	@ 0xffffffce
    3a9c:	4c415f54 	mcrrmi	15, 5, r5, r1, cr4
    3aa0:	49425f4c 	stmdbmi	r2, {r2, r3, r6, r8, r9, sl, fp, ip, lr}^
    3aa4:	52285354 	eorpl	r5, r8, #84, 6	@ 0x50000001
    3aa8:	20294745 	eorcs	r4, r9, r5, asr #14
    3aac:	47455228 	strbmi	r5, [r5, -r8, lsr #4]
    3ab0:	203d2029 	eorscs	r2, sp, r9, lsr #32
    3ab4:	46783028 	ldrbtmi	r3, [r8], -r8, lsr #32
    3ab8:	46464646 	strbmi	r4, [r6], -r6, asr #12
    3abc:	29464646 	stmdbcs	r6, {r1, r2, r6, r9, sl, lr}^
    3ac0:	555f5f00 	ldrbpl	r5, [pc, #-3840]	@ 2bc8 <_Min_Stack_Size+0x27c8>
    3ac4:	5f544e49 	svcpl	0x00544e49
    3ac8:	54534146 	ldrbpl	r4, [r3], #-326	@ 0xfffffeba
    3acc:	4d5f3631 	ldclmi	6, cr3, [pc, #-196]	@ 3a10 <_Min_Stack_Size+0x3610>
    3ad0:	5f5f5841 	svcpl	0x005f5841
    3ad4:	66783020 	ldrbtvs	r3, [r8], -r0, lsr #32
    3ad8:	66666666 	strbtvs	r6, [r6], -r6, ror #12
    3adc:	55666666 	strbpl	r6, [r6, #-1638]!	@ 0xfffff99a
    3ae0:	465f5f00 	ldrbmi	r5, [pc], -r0, lsl #30
    3ae4:	3233544c 	eorscc	r5, r3, #76, 8	@ 0x4c000000
    3ae8:	494d5f58 	stmdbmi	sp, {r3, r4, r6, r8, r9, sl, fp, ip, lr}^
    3aec:	205f5f4e 	subscs	r5, pc, lr, asr #30
    3af0:	32322e32 	eorscc	r2, r2, #800	@ 0x320
    3af4:	33373035 	teqcc	r7, #53	@ 0x35
    3af8:	35383538 	ldrcc	r3, [r8, #-1336]!	@ 0xfffffac8
    3afc:	30323730 	eorscc	r3, r2, r0, lsr r7
    3b00:	2d653431 	cfstrdcs	mvd3, [r5, #-196]!	@ 0xffffff3c
    3b04:	46383033 			@ <UNDEFINED> instruction: 0x46383033
    3b08:	00783233 	rsbseq	r3, r8, r3, lsr r2
    3b0c:	4c465f5f 	mcrrmi	15, 5, r5, r6, cr15
    3b10:	5f343654 	svcpl	0x00343654
    3b14:	5f58414d 	svcpl	0x0058414d
    3b18:	5f505845 	svcpl	0x00505845
    3b1c:	3031205f 	eorscc	r2, r1, pc, asr r0
    3b20:	49003432 	stmdbmi	r0, {r1, r4, r5, sl, ip, sp}
    3b24:	435f4332 	cmpmi	pc, #-939524096	@ 0xc8000000
    3b28:	415f3152 	cmpmi	pc, r2, asr r1	@ <UNPREDICTABLE>
    3b2c:	4d5f4b43 	vldrmi	d20, [pc, #-268]	@ 3a28 <_Min_Stack_Size+0x3628>
    3b30:	28206b73 	stmdacs	r0!, {r0, r1, r4, r5, r6, r8, r9, fp, sp, lr}
    3b34:	55317830 	ldrpl	r7, [r1, #-2096]!	@ 0xfffff7d0
    3b38:	3c3c204c 	ldccc	0, cr2, [ip], #-304	@ 0xfffffed0
    3b3c:	43324920 	teqmi	r2, #32, 18	@ 0x80000
    3b40:	3152435f 	cmpcc	r2, pc, asr r3
    3b44:	4b43415f 	blmi	10d40c8 <_Min_Stack_Size+0x10d3cc8>
    3b48:	736f505f 	cmnvc	pc, #95	@ 0x5f
    3b4c:	5f5f0029 	svcpl	0x005f0029
    3b50:	36544c46 	ldrbcc	r4, [r4], -r6, asr #24
    3b54:	494d5f34 	stmdbmi	sp, {r2, r4, r5, r8, r9, sl, fp, ip, lr}^
    3b58:	205f5f4e 	subscs	r5, pc, lr, asr #30
    3b5c:	32322e32 	eorscc	r2, r2, #800	@ 0x320
    3b60:	33373035 	teqcc	r7, #53	@ 0x35
    3b64:	35383538 	ldrcc	r3, [r8, #-1336]!	@ 0xfffffac8
    3b68:	30323730 	eorscc	r3, r2, r0, lsr r7
    3b6c:	2d653431 	cfstrdcs	mvd3, [r5, #-196]!	@ 0xffffff3c
    3b70:	46383033 			@ <UNDEFINED> instruction: 0x46383033
    3b74:	5f003436 	svcpl	0x00003436
    3b78:	6e695f5f 	mcrvs	15, 3, r5, cr9, cr15, {2}
    3b7c:	5f323374 	svcpl	0x00323374
    3b80:	65645f74 	strbvs	r5, [r4, #-3956]!	@ 0xfffff08c
    3b84:	656e6966 	strbvs	r6, [lr, #-2406]!	@ 0xfffff69a
    3b88:	00312064 	eorseq	r2, r1, r4, rrx
    3b8c:	4e495f5f 	mcrmi	15, 2, r5, cr9, cr15, {2}
    3b90:	49575f54 	ldmdbmi	r7, {r2, r4, r6, r8, r9, sl, fp, ip, lr}^
    3b94:	5f485444 	svcpl	0x00485444
    3b98:	3233205f 	eorscc	r2, r3, #95	@ 0x5f
    3b9c:	564e4d00 	strbpl	r4, [lr], -r0, lsl #26
    3ba0:	445f4349 	ldrbmi	r4, [pc], #-841	@ 3ba8 <_Min_Stack_Size+0x37a8>
    3ba4:	5f31414d 	svcpl	0x0031414d
    3ba8:	6e616843 	cdpvs	8, 6, cr6, cr1, cr3, {2}
    3bac:	336c656e 	cmncc	ip, #461373440	@ 0x1b800000
    3bb0:	5152495f 	cmppl	r2, pc, asr r9
    3bb4:	00333120 	eorseq	r3, r3, r0, lsr #2
    3bb8:	4c465f5f 	mcrrmi	15, 5, r5, r6, cr15
    3bbc:	494d5f54 	stmdbmi	sp, {r2, r4, r6, r8, r9, sl, fp, ip, lr}^
    3bc0:	58455f4e 	stmdapl	r5, {r1, r2, r3, r6, r8, r9, sl, fp, ip, lr}^
    3bc4:	205f5f50 	subscs	r5, pc, r0, asr pc	@ <UNPREDICTABLE>
    3bc8:	32312d28 	eorscc	r2, r1, #40, 26	@ 0xa00
    3bcc:	5f002935 	svcpl	0x00002935
    3bd0:	4d52415f 	ldfmie	f4, [r2, #-380]	@ 0xfffffe84
    3bd4:	4352415f 	cmpmi	r2, #-1073741801	@ 0xc0000017
    3bd8:	52505f48 	subspl	r5, r0, #72, 30	@ 0x120
    3bdc:	4c49464f 	mcrrmi	6, 4, r4, r9, cr15
    3be0:	5f5f0045 	svcpl	0x005f0045
    3be4:	36544e49 	ldrbcc	r4, [r4], -r9, asr #28
    3be8:	59545f34 	ldmdbpl	r4, {r2, r4, r5, r8, r9, sl, fp, ip, lr}^
    3bec:	5f5f4550 	svcpl	0x005f4550
    3bf0:	6e6f6c20 	cdpvs	12, 6, cr6, cr15, cr0, {1}
    3bf4:	6f6c2067 	svcvs	0x006c2067
    3bf8:	6920676e 	stmdbvs	r0!, {r1, r2, r3, r5, r6, r8, r9, sl, sp, lr}
    3bfc:	5f00746e 	svcpl	0x0000746e
    3c00:	52464c5f 	subpl	r4, r6, #24320	@ 0x5f00
    3c04:	5f544341 	svcpl	0x00544341
    3c08:	54494246 	strbpl	r4, [r9], #-582	@ 0xfffffdba
    3c0c:	33205f5f 			@ <UNDEFINED> instruction: 0x33205f5f
    3c10:	49550031 	ldmdbmi	r5, {r0, r4, r5}^
    3c14:	3631544e 	ldrtcc	r5, [r1], -lr, asr #8
    3c18:	58414d5f 	stmdapl	r1, {r0, r1, r2, r3, r4, r6, r8, sl, fp, lr}^
    3c1c:	5f5f2820 	svcpl	0x005f2820
    3c20:	544e4955 	strbpl	r4, [lr], #-2389	@ 0xfffff6ab
    3c24:	4d5f3631 	ldclmi	6, cr3, [pc, #-196]	@ 3b68 <_Min_Stack_Size+0x3768>
    3c28:	5f5f5841 	svcpl	0x005f5841
    3c2c:	5f5f0029 	svcpl	0x005f0029
    3c30:	455a4953 	ldrbmi	r4, [sl, #-2387]	@ 0xfffff6ad
    3c34:	575f464f 	ldrbpl	r4, [pc, -pc, asr #12]
    3c38:	52414843 	subpl	r4, r1, #4390912	@ 0x430000
    3c3c:	5f5f545f 	svcpl	0x005f545f
    3c40:	5f003420 	svcpl	0x00003420
    3c44:	4453425f 	ldrbmi	r4, [r3], #-607	@ 0xfffffda1
    3c48:	5349565f 	movtpl	r5, #38495	@ 0x965f
    3c4c:	454c4249 	strbmi	r4, [ip, #-585]	@ 0xfffffdb7
    3c50:	49003120 	stmdbmi	r0, {r5, r8, ip, sp}
    3c54:	4c5f544e 	cfldrdmi	mvd5, [pc], {78}	@ 0x4e
    3c58:	54534145 	ldrbpl	r4, [r3], #-325	@ 0xfffffebb
    3c5c:	4d5f3631 	ldclmi	6, cr3, [pc, #-196]	@ 3ba0 <_Min_Stack_Size+0x37a0>
    3c60:	28204e49 	stmdacs	r0!, {r0, r3, r6, r9, sl, fp, lr}
    3c64:	495f5f2d 	ldmdbmi	pc, {r0, r2, r3, r5, r8, r9, sl, fp, ip, lr}^	@ <UNPREDICTABLE>
    3c68:	4c5f544e 	cfldrdmi	mvd5, [pc], {78}	@ 0x4e
    3c6c:	54534145 	ldrbpl	r4, [r3], #-325	@ 0xfffffebb
    3c70:	4d5f3631 	ldclmi	6, cr3, [pc, #-196]	@ 3bb4 <_Min_Stack_Size+0x37b4>
    3c74:	5f5f5841 	svcpl	0x005f5841
    3c78:	31202d20 			@ <UNDEFINED> instruction: 0x31202d20
    3c7c:	50470029 	subpl	r0, r7, r9, lsr #32
    3c80:	5f414f49 	svcpl	0x00414f49
    3c84:	45534142 	ldrbmi	r4, [r3, #-322]	@ 0xfffffebe
    3c88:	34783020 	ldrbtcc	r3, [r8], #-32	@ 0xffffffe0
    3c8c:	30313030 	eorscc	r3, r1, r0, lsr r0
    3c90:	55303038 	ldrpl	r3, [r0, #-56]!	@ 0xffffffc8
    3c94:	5f5f004c 	svcpl	0x005f004c
    3c98:	41524655 	cmpmi	r2, r5, asr r6
    3c9c:	4d5f5443 	cfldrdmi	mvd5, [pc, #-268]	@ 3b98 <_Min_Stack_Size+0x3798>
    3ca0:	5f5f5841 	svcpl	0x005f5841
    3ca4:	46583020 	ldrbmi	r3, [r8], -r0, lsr #32
    3ca8:	50464646 	subpl	r4, r6, r6, asr #12
    3cac:	5536312d 	ldrpl	r3, [r6, #-301]!	@ 0xfffffed3
    3cb0:	5f5f0052 	svcpl	0x005f0052
    3cb4:	746e695f 	strbtvc	r6, [lr], #-2399	@ 0xfffff6a1
    3cb8:	61656c5f 	cmnvs	r5, pc, asr ip
    3cbc:	34367473 	ldrtcc	r7, [r6], #-1139	@ 0xfffffb8d
    3cc0:	645f745f 	ldrbvs	r7, [pc], #-1119	@ 3cc8 <_Min_Stack_Size+0x38c8>
    3cc4:	6e696665 	cdpvs	6, 6, cr6, cr9, cr5, {3}
    3cc8:	31206465 			@ <UNDEFINED> instruction: 0x31206465
    3ccc:	54584500 	ldrbpl	r4, [r8], #-1280	@ 0xfffffb00
    3cd0:	65725f49 	ldrbvs	r5, [r2, #-3913]!	@ 0xfffff0b7
    3cd4:	74736967 	ldrbtvc	r6, [r3], #-2407	@ 0xfffff699
    3cd8:	614d7265 	cmpvs	sp, r5, ror #4
    3cdc:	00745f70 	rsbseq	r5, r4, r0, ror pc
    3ce0:	4e495f5f 	mcrmi	15, 2, r5, cr9, cr15, {2}
    3ce4:	454c5f54 	strbmi	r5, [ip, #-3924]	@ 0xfffff0ac
    3ce8:	33545341 	cmpcc	r4, #67108865	@ 0x4000001
    3cec:	414d5f32 	cmpmi	sp, r2, lsr pc
    3cf0:	205f5f58 	subscs	r5, pc, r8, asr pc	@ <UNPREDICTABLE>
    3cf4:	66377830 			@ <UNDEFINED> instruction: 0x66377830
    3cf8:	66666666 	strbtvs	r6, [r6], -r6, ror #12
    3cfc:	004c6666 	subeq	r6, ip, r6, ror #12
    3d00:	4654415f 			@ <UNDEFINED> instruction: 0x4654415f
    3d04:	5f454c49 	svcpl	0x00454c49
    3d08:	52554f53 	subspl	r4, r5, #332	@ 0x14c
    3d0c:	31204543 			@ <UNDEFINED> instruction: 0x31204543
    3d10:	535f5f00 	cmppl	pc, #0, 30
    3d14:	4e494454 	mcrmi	4, 2, r4, cr9, cr4, {2}
    3d18:	58455f54 	stmdapl	r5, {r2, r4, r6, r8, r9, sl, fp, ip, lr}^
    3d1c:	29782850 	ldmdbcs	r8!, {r4, r6, fp, sp}^
    3d20:	205f5f20 	subscs	r5, pc, r0, lsr #30
    3d24:	20782323 	rsbscs	r2, r8, r3, lsr #6
    3d28:	5f5f2323 	svcpl	0x005f2323
    3d2c:	564e4d00 	strbpl	r4, [lr], -r0, lsl #26
    3d30:	545f4349 	ldrbpl	r4, [pc], #-841	@ 3d38 <_Min_Stack_Size+0x3938>
    3d34:	5f384d49 	svcpl	0x00384d49
    3d38:	495f5055 	ldmdbmi	pc, {r0, r2, r4, r6, ip, lr}^	@ <UNPREDICTABLE>
    3d3c:	34205152 	strtcc	r5, [r0], #-338	@ 0xfffffeae
    3d40:	5f5f0034 	svcpl	0x005f0034
    3d44:	28505845 	ldmdacs	r0, {r0, r2, r6, fp, ip, lr}^
    3d48:	5f202978 	svcpl	0x00202978
    3d4c:	2323205f 			@ <UNDEFINED> instruction: 0x2323205f
    3d50:	23232078 			@ <UNDEFINED> instruction: 0x23232078
    3d54:	49005f5f 	stmdbmi	r0, {r0, r1, r2, r3, r4, r6, r8, r9, sl, fp, ip, lr}
    3d58:	535f4332 	cmppl	pc, #-939524096	@ 0xc8000000
    3d5c:	425f3152 	subsmi	r3, pc, #-2147483628	@ 0x80000014
    3d60:	4d5f4654 	ldclmi	6, cr4, [pc, #-336]	@ 3c18 <_Min_Stack_Size+0x3818>
    3d64:	28206b73 	stmdacs	r0!, {r0, r1, r4, r5, r6, r8, r9, fp, sp, lr}
    3d68:	55317830 	ldrpl	r7, [r1, #-2096]!	@ 0xfffff7d0
    3d6c:	3c3c204c 	ldccc	0, cr2, [ip], #-304	@ 0xfffffed0
    3d70:	43324920 	teqmi	r2, #32, 18	@ 0x80000
    3d74:	3152535f 	cmpcc	r2, pc, asr r3
    3d78:	4654425f 			@ <UNDEFINED> instruction: 0x4654425f
    3d7c:	736f505f 	cmnvc	pc, #95	@ 0x5f
    3d80:	5f5f0029 	svcpl	0x005f0029
    3d84:	45545942 	ldrbmi	r5, [r4, #-2370]	@ 0xfffff6be
    3d88:	44524f5f 	ldrbmi	r4, [r2], #-3935	@ 0xfffff0a1
    3d8c:	5f5f5245 	svcpl	0x005f5245
    3d90:	4f5f5f20 	svcmi	0x005f5f20
    3d94:	52454452 	subpl	r4, r5, #1375731712	@ 0x52000000
    3d98:	54494c5f 	strbpl	r4, [r9], #-3167	@ 0xfffff3a1
    3d9c:	5f454c54 	svcpl	0x00454c54
    3da0:	49444e45 	stmdbmi	r4, {r0, r2, r6, r9, sl, fp, lr}^
    3da4:	5f5f4e41 	svcpl	0x005f4e41
    3da8:	465f5f00 	ldrbmi	r5, [pc], -r0, lsl #30
    3dac:	3233544c 	eorscc	r5, r3, #76, 8	@ 0x4c000000
    3db0:	5350455f 	cmppl	r0, #398458880	@ 0x17c00000
    3db4:	4e4f4c49 	cdpmi	12, 4, cr4, cr15, cr9, {2}
    3db8:	31205f5f 			@ <UNDEFINED> instruction: 0x31205f5f
    3dbc:	3239312e 	eorscc	r3, r9, #-2147483637	@ 0x8000000b
    3dc0:	38323930 	ldmdacc	r2!, {r4, r5, r8, fp, ip, sp}
    3dc4:	30353539 	eorscc	r3, r5, r9, lsr r5
    3dc8:	32313837 	eorscc	r3, r1, #3604480	@ 0x370000
    3dcc:	372d6535 			@ <UNDEFINED> instruction: 0x372d6535
    3dd0:	00323346 	eorseq	r3, r2, r6, asr #6
    3dd4:	52415f5f 	subpl	r5, r1, #380	@ 0x17c
    3dd8:	454e5f4d 	strbmi	r5, [lr, #-3917]	@ 0xfffff0b3
    3ddc:	465f4e4f 	ldrbmi	r4, [pc], -pc, asr #28
    3de0:	4e4d0050 	mcrmi	0, 2, r0, cr13, cr0, {2}
    3de4:	5f434956 	svcpl	0x00434956
    3de8:	334d4954 	movtcc	r4, #55636	@ 0xd954
    3dec:	5152495f 	cmppl	r2, pc, asr r9
    3df0:	00393220 	eorseq	r3, r9, r0, lsr #4
    3df4:	49504155 	ldmdbmi	r0, {r0, r2, r4, r6, r8, lr}^
    3df8:	4c554e5f 	mrrcmi	14, 5, r4, r5, cr15
    3dfc:	54535f4c 	ldrbpl	r5, [r3], #-3916	@ 0xfffff0b4
    3e00:	4e4d0052 	mcrmi	0, 2, r0, cr13, cr2, {2}
    3e04:	5f434956 	svcpl	0x00434956
    3e08:	364d4954 			@ <UNDEFINED> instruction: 0x364d4954
    3e0c:	5152495f 	cmppl	r2, pc, asr r9
    3e10:	00343520 	eorseq	r3, r4, r0, lsr #10
    3e14:	46555f5f 	usaxmi	r5, r5, pc	@ <UNPREDICTABLE>
    3e18:	54434152 	strbpl	r4, [r3], #-338	@ 0xfffffeae
    3e1c:	4942465f 	stmdbmi	r2, {r0, r1, r2, r3, r4, r6, r9, sl, lr}^
    3e20:	205f5f54 	subscs	r5, pc, r4, asr pc	@ <UNPREDICTABLE>
    3e24:	5f003631 	svcpl	0x00003631
    3e28:	5144555f 	cmppl	r4, pc, asr r5
    3e2c:	4942465f 	stmdbmi	r2, {r0, r1, r2, r3, r4, r6, r9, sl, lr}^
    3e30:	205f5f54 	subscs	r5, pc, r4, asr pc	@ <UNPREDICTABLE>
    3e34:	5f003436 	svcpl	0x00003436
    3e38:	4c42445f 	cfstrdmi	mvd4, [r2], {95}	@ 0x5f
    3e3c:	524f4e5f 	subpl	r4, pc, #1520	@ 0x5f0
    3e40:	414d5f4d 	cmpmi	sp, sp, asr #30
    3e44:	205f5f58 	subscs	r5, pc, r8, asr pc	@ <UNPREDICTABLE>
    3e48:	6f642828 	svcvs	0x00642828
    3e4c:	656c6275 	strbvs	r6, [ip, #-629]!	@ 0xfffffd8b
    3e50:	372e3129 	strcc	r3, [lr, -r9, lsr #2]!
    3e54:	39363739 	ldmdbcc	r6!, {r0, r3, r4, r5, r8, r9, sl, ip, sp}
    3e58:	34333133 	ldrtcc	r3, [r3], #-307	@ 0xfffffecd
    3e5c:	33323638 	teqcc	r2, #56, 12	@ 0x3800000
    3e60:	65373531 	ldrvs	r3, [r7, #-1329]!	@ 0xfffffacf
    3e64:	3830332b 	ldmdacc	r0!, {r0, r1, r3, r5, r8, r9, ip, sp}
    3e68:	5f00294c 	svcpl	0x0000294c
    3e6c:	746e695f 	strbtvc	r6, [lr], #-2399	@ 0xfffff6a1
    3e70:	7361665f 	cmnvc	r1, #99614720	@ 0x5f00000
    3e74:	5f363174 	svcpl	0x00363174
    3e78:	65645f74 	strbvs	r5, [r4, #-3956]!	@ 0xfffff08c
    3e7c:	656e6966 	strbvs	r6, [lr, #-2406]!	@ 0xfffff69a
    3e80:	00312064 	eorseq	r2, r1, r4, rrx
    3e84:	444c5f5f 	strbmi	r5, [ip], #-3935	@ 0xfffff0a1
    3e88:	4d5f4c42 	ldclmi	12, cr4, [pc, #-264]	@ 3d88 <_Min_Stack_Size+0x3988>
    3e8c:	315f5841 	cmpcc	pc, r1, asr #16
    3e90:	58455f30 	stmdapl	r5, {r4, r5, r8, r9, sl, fp, ip, lr}^
    3e94:	205f5f50 	subscs	r5, pc, r0, asr pc	@ <UNPREDICTABLE>
    3e98:	00383033 	eorseq	r3, r8, r3, lsr r0
    3e9c:	74646475 	strbtvc	r6, [r4], #-1141	@ 0xfffffb8b
    3ea0:	4d6e6950 			@ <UNDEFINED> instruction: 0x4d6e6950
    3ea4:	0065646f 	rsbeq	r6, r5, pc, ror #8
    3ea8:	42445f5f 	submi	r5, r4, #380	@ 0x17c
    3eac:	45445f4c 	strbmi	r5, [r4, #-3916]	@ 0xfffff0b4
    3eb0:	4d524f4e 	ldclmi	15, cr4, [r2, #-312]	@ 0xfffffec8
    3eb4:	4e494d5f 	mcrmi	13, 2, r4, cr9, cr15, {2}
    3eb8:	28205f5f 	stmdacs	r0!, {r0, r1, r2, r3, r4, r6, r8, r9, sl, fp, ip, lr}
    3ebc:	756f6428 	strbvc	r6, [pc, #-1064]!	@ 3a9c <_Min_Stack_Size+0x369c>
    3ec0:	29656c62 	stmdbcs	r5!, {r1, r5, r6, sl, fp, sp, lr}^
    3ec4:	34392e34 	ldrtcc	r2, [r9], #-3636	@ 0xfffff1cc
    3ec8:	36353630 			@ <UNDEFINED> instruction: 0x36353630
    3ecc:	34383534 	ldrtcc	r3, [r8], #-1332	@ 0xfffffacc
    3ed0:	36343231 			@ <UNDEFINED> instruction: 0x36343231
    3ed4:	2d653435 	cfstrdcs	mvd3, [r5, #-212]!	@ 0xffffff2c
    3ed8:	4c343233 	lfmmi	f3, 4, [r4], #-204	@ 0xffffff34
    3edc:	4e490029 	cdpmi	0, 4, cr0, cr9, cr9, {1}
    3ee0:	5f343654 	svcpl	0x00343654
    3ee4:	2058414d 	subscs	r4, r8, sp, asr #2
    3ee8:	495f5f28 	ldmdbmi	pc, {r3, r5, r8, r9, sl, fp, ip, lr}^	@ <UNPREDICTABLE>
    3eec:	3436544e 	ldrtcc	r5, [r6], #-1102	@ 0xfffffbb2
    3ef0:	58414d5f 	stmdapl	r1, {r0, r1, r2, r3, r4, r6, r8, sl, fp, lr}^
    3ef4:	00295f5f 	eoreq	r5, r9, pc, asr pc
    3ef8:	5f433249 	svcpl	0x00433249
    3efc:	5f325243 	svcpl	0x00325243
    3f00:	45414d44 	strbmi	r4, [r1, #-3396]	@ 0xfffff2bc
    3f04:	734d5f4e 	movtvc	r5, #57166	@ 0xdf4e
    3f08:	3028206b 	eorcc	r2, r8, fp, rrx
    3f0c:	4c553178 	ldfmie	f3, [r5], {120}	@ 0x78
    3f10:	203c3c20 	eorscs	r3, ip, r0, lsr #24
    3f14:	5f433249 	svcpl	0x00433249
    3f18:	5f325243 	svcpl	0x00325243
    3f1c:	45414d44 	strbmi	r4, [r1, #-3396]	@ 0xfffff2bc
    3f20:	6f505f4e 	svcvs	0x00505f4e
    3f24:	5f002973 	svcpl	0x00002973
    3f28:	57454e5f 	smlsldpl	r4, r5, pc, lr	@ <UNPREDICTABLE>
    3f2c:	5f42494c 	svcpl	0x0042494c
    3f30:	4f4e494d 	svcmi	0x004e494d
    3f34:	205f5f52 	subscs	r5, pc, r2, asr pc	@ <UNPREDICTABLE>
    3f38:	58450033 	stmdapl	r5, {r0, r1, r4, r5}^
    3f3c:	5f324954 	svcpl	0x00324954
    3f40:	48515249 	ldmdami	r1, {r0, r3, r6, r9, ip, lr}^
    3f44:	6c646e61 	stclvs	14, cr6, [r4], #-388	@ 0xfffffe7c
    3f48:	5f007265 	svcpl	0x00007265
    3f4c:	544c465f 	strbpl	r4, [ip], #-1631	@ 0xfffff9a1
    3f50:	485f3436 	ldmdami	pc, {r1, r2, r4, r5, sl, ip, sp}^	@ <UNPREDICTABLE>
    3f54:	515f5341 	cmppl	pc, r1, asr #6
    3f58:	54454955 	strbpl	r4, [r5], #-2389	@ 0xfffff6ab
    3f5c:	4e414e5f 	mcrmi	14, 2, r4, cr1, cr15, {2}
    3f60:	31205f5f 			@ <UNDEFINED> instruction: 0x31205f5f
    3f64:	4e495500 	cdpmi	5, 4, cr5, cr9, cr0, {0}
    3f68:	5f323354 	svcpl	0x00323354
    3f6c:	29782843 	ldmdbcs	r8!, {r0, r1, r6, fp, sp}^
    3f70:	555f5f20 	ldrbpl	r5, [pc, #-3872]	@ 3058 <_Min_Stack_Size+0x2c58>
    3f74:	33544e49 	cmpcc	r4, #1168	@ 0x490
    3f78:	28435f32 	stmdacs	r3, {r1, r4, r5, r8, r9, sl, fp, ip, lr}^
    3f7c:	5f002978 	svcpl	0x00002978
    3f80:	4c4c555f 	cfstr64mi	mvdx5, [ip], {95}	@ 0x5f
    3f84:	55434341 	strbpl	r4, [r3, #-833]	@ 0xfffffcbf
    3f88:	414d5f4d 	cmpmi	sp, sp, asr #30
    3f8c:	205f5f58 	subscs	r5, pc, r8, asr pc	@ <UNPREDICTABLE>
    3f90:	46465830 			@ <UNDEFINED> instruction: 0x46465830
    3f94:	46464646 	strbmi	r4, [r6], -r6, asr #12
    3f98:	46464646 	strbmi	r4, [r6], -r6, asr #12
    3f9c:	46464646 	strbmi	r4, [r6], -r6, asr #12
    3fa0:	2d504646 	ldclcs	6, cr4, [r0, #-280]	@ 0xfffffee8
    3fa4:	4c553233 	lfmmi	f3, 2, [r5], {51}	@ 0x33
    3fa8:	5f004b4c 	svcpl	0x00004b4c
    3fac:	4153555f 	cmpmi	r3, pc, asr r5
    3fb0:	4d554343 	ldclmi	3, cr4, [r5, #-268]	@ 0xfffffef4
    3fb4:	4942495f 	stmdbmi	r2, {r0, r1, r2, r3, r4, r6, r8, fp, lr}^
    3fb8:	205f5f54 	subscs	r5, pc, r4, asr pc	@ <UNPREDICTABLE>
    3fbc:	53550038 	cmppl	r5, #56	@ 0x38
    3fc0:	32545241 	subscc	r5, r4, #268435460	@ 0x10000004
    3fc4:	55282820 	strpl	r2, [r8, #-2080]!	@ 0xfffff7e0
    3fc8:	54524153 	ldrbpl	r4, [r2], #-339	@ 0xfffffead
    3fcc:	6765725f 			@ <UNDEFINED> instruction: 0x6765725f
    3fd0:	65747369 	ldrbvs	r7, [r4, #-873]!	@ 0xfffffc97
    3fd4:	70614d72 	rsbvc	r4, r1, r2, ror sp
    3fd8:	292a745f 	stmdbcs	sl!, {r0, r1, r2, r3, r4, r6, sl, ip, sp, lr}
    3fdc:	52415355 	subpl	r5, r1, #1409286145	@ 0x54000001
    3fe0:	425f3254 	subsmi	r3, pc, #84, 4	@ 0x40000005
    3fe4:	29455341 	stmdbcs	r5, {r0, r6, r8, r9, ip, lr}^
    3fe8:	43324900 	teqmi	r2, #0, 18
    3fec:	3252435f 	subscc	r4, r2, #2080374785	@ 0x7c000001
    3ff0:	4554495f 	ldrbmi	r4, [r4, #-2399]	@ 0xfffff6a1
    3ff4:	4e455456 	mcrmi	4, 2, r5, cr5, cr6, {2}
    3ff8:	43324920 	teqmi	r2, #32, 18	@ 0x80000
    3ffc:	3252435f 	subscc	r4, r2, #2080374785	@ 0x7c000001
    4000:	4554495f 	ldrbmi	r4, [r4, #-2399]	@ 0xfffff6a1
    4004:	4e455456 	mcrmi	4, 2, r5, cr5, cr6, {2}
    4008:	6b734d5f 	blvs	1cd758c <_Min_Stack_Size+0x1cd718c>
    400c:	544e4900 	strbpl	r4, [lr], #-2304	@ 0xfffff700
    4010:	5341465f 	movtpl	r4, #5727	@ 0x165f
    4014:	4d5f3854 	ldclmi	8, cr3, [pc, #-336]	@ 3ecc <_Min_Stack_Size+0x3acc>
    4018:	28204e49 	stmdacs	r0!, {r0, r3, r6, r9, sl, fp, lr}
    401c:	495f5f2d 	ldmdbmi	pc, {r0, r2, r3, r5, r8, r9, sl, fp, ip, lr}^	@ <UNPREDICTABLE>
    4020:	465f544e 	ldrbmi	r5, [pc], -lr, asr #8
    4024:	38545341 	ldmdacc	r4, {r0, r6, r8, r9, ip, lr}^
    4028:	58414d5f 	stmdapl	r1, {r0, r1, r2, r3, r4, r6, r8, sl, fp, lr}^
    402c:	2d205f5f 	stccs	15, cr5, [r0, #-380]!	@ 0xfffffe84
    4030:	00293120 	eoreq	r3, r9, r0, lsr #2
    4034:	4c465f5f 	mcrrmi	15, 5, r5, r6, cr15
    4038:	5f343654 	svcpl	0x00343654
    403c:	5f534148 	svcpl	0x00534148
    4040:	4f4e4544 	svcmi	0x004e4544
    4044:	5f5f4d52 	svcpl	0x005f4d52
    4048:	5f003120 	svcpl	0x00003120
    404c:	544c465f 	strbpl	r4, [ip], #-1631	@ 0xfffff9a1
    4050:	4749445f 	smlsldmi	r4, r9, pc, r4	@ <UNPREDICTABLE>
    4054:	36205f5f 	qsaxcc	r5, r0, pc	@ <UNPREDICTABLE>
    4058:	555f5f00 	ldrbpl	r5, [pc, #-3840]	@ 3160 <_Min_Stack_Size+0x2d60>
    405c:	4d544e49 	ldclmi	14, cr4, [r4, #-292]	@ 0xfffffedc
    4060:	545f5841 	ldrbpl	r5, [pc], #-2113	@ 4068 <_Min_Stack_Size+0x3c68>
    4064:	5f455059 	svcpl	0x00455059
    4068:	6f6c205f 	svcvs	0x006c205f
    406c:	6c20676e 	stcvs	7, cr6, [r0], #-440	@ 0xfffffe48
    4070:	20676e6f 	rsbcs	r6, r7, pc, ror #28
    4074:	69736e75 	ldmdbvs	r3!, {r0, r2, r4, r5, r6, r9, sl, fp, sp, lr}^
    4078:	64656e67 	strbtvs	r6, [r5], #-3687	@ 0xfffff199
    407c:	746e6920 	strbtvc	r6, [lr], #-2336	@ 0xfffff6e0
    4080:	43324900 	teqmi	r2, #0, 18
    4084:	41425f31 	cmpmi	r2, r1, lsr pc
    4088:	30204553 	eorcc	r4, r0, r3, asr r5
    408c:	30303478 	eorscc	r3, r0, r8, ror r4
    4090:	30343530 	eorscc	r3, r4, r0, lsr r5
    4094:	004c5530 	subeq	r5, ip, r0, lsr r5
    4098:	5f433249 	svcpl	0x00433249
    409c:	5f315253 	svcpl	0x00315253
    40a0:	52444441 	subpl	r4, r4, #1090519040	@ 0x41000000
    40a4:	6b734d5f 	blvs	1cd7628 <_Min_Stack_Size+0x1cd7228>
    40a8:	78302820 	ldmdavc	r0!, {r5, fp, sp}
    40ac:	204c5531 	subcs	r5, ip, r1, lsr r5
    40b0:	49203c3c 	stmdbmi	r0!, {r2, r3, r4, r5, sl, fp, ip, sp}
    40b4:	535f4332 	cmppl	pc, #-939524096	@ 0xc8000000
    40b8:	415f3152 	cmpmi	pc, r2, asr r1	@ <UNPREDICTABLE>
    40bc:	5f524444 	svcpl	0x00524444
    40c0:	29736f50 	ldmdbcs	r3!, {r4, r6, r8, r9, sl, fp, sp, lr}^
    40c4:	435f5f00 	cmpmi	pc, #0, 30
    40c8:	5f524148 	svcpl	0x00524148
    40cc:	5f544942 	svcpl	0x00544942
    40d0:	0038205f 	eorseq	r2, r8, pc, asr r0
    40d4:	4c465f5f 	mcrrmi	15, 5, r5, r6, cr15
    40d8:	56455f54 			@ <UNDEFINED> instruction: 0x56455f54
    40dc:	4d5f4c41 	ldclmi	12, cr4, [pc, #-260]	@ 3fe0 <_Min_Stack_Size+0x3be0>
    40e0:	4f485445 	svcmi	0x00485445
    40e4:	205f5f44 	subscs	r5, pc, r4, asr #30
    40e8:	5f5f0030 	svcpl	0x005f0030
    40ec:	5f4d5241 	svcpl	0x004d5241
    40f0:	48435241 	stmdami	r3, {r0, r6, r9, ip, lr}^
    40f4:	5f4d375f 	svcpl	0x004d375f
    40f8:	0031205f 	eorseq	r2, r1, pc, asr r0
    40fc:	58455f5f 	stmdapl	r5, {r0, r1, r2, r3, r4, r6, r8, r9, sl, fp, ip, lr}^
    4100:	5f5f0050 	svcpl	0x005f0050
    4104:	5f544e49 	svcpl	0x00544e49
    4108:	54534146 	ldrbpl	r4, [r3], #-326	@ 0xfffffeba
    410c:	49575f38 	ldmdbmi	r7, {r3, r4, r5, r8, r9, sl, fp, ip, lr}^
    4110:	5f485444 	svcpl	0x00485444
    4114:	3233205f 	eorscc	r2, r3, #95	@ 0x5f
    4118:	535f5f00 	cmppl	pc, #0, 30
    411c:	5f434454 	svcpl	0x00434454
    4120:	5f465455 	svcpl	0x00465455
    4124:	5f5f3631 	svcpl	0x005f3631
    4128:	5f003120 	svcpl	0x00003120
    412c:	4d52415f 	ldfmie	f4, [r2, #-380]	@ 0xfffffe84
    4130:	4145465f 	cmpmi	r5, pc, asr r6
    4134:	45525554 	ldrbmi	r5, [r2, #-1364]	@ 0xfffffaac
    4138:	52444c5f 	subpl	r4, r4, #24320	@ 0x5f00
    413c:	45005845 	strmi	r5, [r0, #-2117]	@ 0xfffff7bb
    4140:	35495458 	strbcc	r5, [r9, #-1112]	@ 0xfffffba8
    4144:	20354250 	eorscs	r4, r5, r0, asr r2
    4148:	58454d28 	stmdapl	r5, {r3, r5, r8, sl, fp, lr}^
    414c:	755f4954 	ldrbvc	r4, [pc, #-2388]	@ 3800 <_Min_Stack_Size+0x3400>
    4150:	47746464 	ldrbmi	r6, [r4, -r4, ror #8]!
    4154:	506f6970 	rsbpl	r6, pc, r0, ror r9	@ <UNPREDICTABLE>
    4158:	745f6e69 	ldrbvc	r6, [pc], #-3689	@ 4160 <_Min_Stack_Size+0x3d60>
    415c:	454d7b29 	strbmi	r7, [sp, #-2857]	@ 0xfffff4d7
    4160:	5f495458 	svcpl	0x00495458
    4164:	454e494c 	strbmi	r4, [lr, #-2380]	@ 0xfffff6b4
    4168:	47202c35 			@ <UNDEFINED> instruction: 0x47202c35
    416c:	424f4950 	submi	r4, pc, #80, 18	@ 0x140000
    4170:	474d202c 	strbmi	r2, [sp, -ip, lsr #32]
    4174:	5f4f4950 	svcpl	0x004f4950
    4178:	354e4950 	strbcc	r4, [lr, #-2384]	@ 0xfffff6b0
    417c:	4e4d202c 	cdpmi	0, 4, cr2, cr13, cr12, {1}
    4180:	5f434956 	svcpl	0x00434956
    4184:	49545845 	ldmdbmi	r4, {r0, r2, r6, fp, ip, lr}^
    4188:	52495f35 	subpl	r5, r9, #53, 30	@ 0xd4
    418c:	5f007d51 	svcpl	0x00007d51
    4190:	5151555f 	cmppl	r1, pc, asr r5
    4194:	4942465f 	stmdbmi	r2, {r0, r1, r2, r3, r4, r6, r9, sl, lr}^
    4198:	205f5f54 	subscs	r5, pc, r4, asr pc	@ <UNPREDICTABLE>
    419c:	4e4d0038 	mcrmi	0, 2, r0, cr13, cr8, {1}
    41a0:	5f434956 	svcpl	0x00434956
    41a4:	384d4954 	stmdacc	sp, {r2, r4, r6, r8, fp, lr}^
    41a8:	4752545f 			@ <UNDEFINED> instruction: 0x4752545f
    41ac:	4d4f435f 	stclmi	3, cr4, [pc, #-380]	@ 4038 <_Min_Stack_Size+0x3c38>
    41b0:	5152495f 	cmppl	r2, pc, asr r9
    41b4:	00353420 	eorseq	r3, r5, r0, lsr #8
    41b8:	49575f5f 	ldmdbmi	r7, {r0, r1, r2, r3, r4, r6, r8, r9, sl, fp, ip, lr}^
    41bc:	545f544e 	ldrbpl	r5, [pc], #-1102	@ 41c4 <_Min_Stack_Size+0x3dc4>
    41c0:	5f455059 	svcpl	0x00455059
    41c4:	6e75205f 	mrcvs	0, 3, r2, cr5, cr15, {2}
    41c8:	6e676973 			@ <UNDEFINED> instruction: 0x6e676973
    41cc:	69206465 	stmdbvs	r0!, {r0, r2, r5, r6, sl, sp, lr}
    41d0:	5f00746e 	svcpl	0x0000746e
    41d4:	4d52415f 	ldfmie	f4, [r2, #-380]	@ 0xfffffe84
    41d8:	3150465f 	cmpcc	r0, pc, asr r6
    41dc:	52415f36 	subpl	r5, r1, #54, 30	@ 0xd8
    41e0:	5f005347 	svcpl	0x00005347
    41e4:	4343475f 	movtmi	r4, #14175	@ 0x375f
    41e8:	4345495f 	movtmi	r4, #22879	@ 0x595f
    41ec:	3935355f 	ldmdbcc	r5!, {r0, r1, r2, r3, r4, r6, r8, sl, ip, sp}
    41f0:	4d003020 	stcmi	0, cr3, [r0, #-128]	@ 0xffffff80
    41f4:	49545845 	ldmdbmi	r4, {r0, r2, r6, fp, ip, lr}^
    41f8:	6464755f 	strbtvs	r7, [r4], #-1375	@ 0xfffffaa1
    41fc:	6e694c74 	mcrvs	12, 3, r4, cr9, cr4, {3}
    4200:	745f7365 	ldrbvc	r7, [pc], #-869	@ 4208 <_Min_Stack_Size+0x3e08>
    4204:	61686300 	cmnvs	r8, r0, lsl #6
    4208:	302b2072 	eorcc	r2, fp, r2, ror r0
    420c:	4c5f5f00 	mrrcmi	15, 0, r5, pc, cr0	@ <UNPREDICTABLE>
    4210:	43415246 	movtmi	r5, #4678	@ 0x1246
    4214:	414d5f54 	cmpmi	sp, r4, asr pc
    4218:	205f5f58 	subscs	r5, pc, r8, asr pc	@ <UNPREDICTABLE>
    421c:	46375830 			@ <UNDEFINED> instruction: 0x46375830
    4220:	46464646 	strbmi	r4, [r6], -r6, asr #12
    4224:	2d504646 	ldclcs	6, cr4, [r0, #-280]	@ 0xfffffee8
    4228:	524c3133 	subpl	r3, ip, #-1073741812	@ 0xc000000c
    422c:	535f5f00 	cmppl	pc, #0, 30
    4230:	4f455a49 	svcmi	0x00455a49
    4234:	54505f46 	ldrbpl	r5, [r0], #-3910	@ 0xfffff0ba
    4238:	46494452 			@ <UNDEFINED> instruction: 0x46494452
    423c:	5f545f46 	svcpl	0x00545f46
    4240:	0034205f 	eorseq	r2, r4, pc, asr r0
    4244:	54535f5f 	ldrbpl	r5, [r3], #-3935	@ 0xfffff0a1
    4248:	5f5f4344 	svcpl	0x005f4344
    424c:	49003120 	stmdbmi	r0, {r5, r8, ip, sp}
    4250:	535f4332 	cmppl	pc, #-939524096	@ 0xc8000000
    4254:	505f3152 	subspl	r3, pc, r2, asr r1	@ <UNPREDICTABLE>
    4258:	52454345 	subpl	r4, r5, #335544321	@ 0x14000001
    425c:	32492052 	subcc	r2, r9, #82	@ 0x52
    4260:	52535f43 	subspl	r5, r3, #268	@ 0x10c
    4264:	45505f31 	ldrbmi	r5, [r0, #-3889]	@ 0xfffff0cf
    4268:	52524543 	subspl	r4, r2, #281018368	@ 0x10c00000
    426c:	6b734d5f 	blvs	1cd77f0 <_Min_Stack_Size+0x1cd73f0>
    4270:	5f5f5f00 	svcpl	0x005f5f00
    4274:	5f746e69 	svcpl	0x00746e69
    4278:	7361656c 	cmnvc	r1, #108, 10	@ 0x1b000000
    427c:	745f3874 	ldrbvc	r3, [pc], #-2164	@ 4284 <_Min_Stack_Size+0x3e84>
    4280:	6665645f 			@ <UNDEFINED> instruction: 0x6665645f
    4284:	64656e69 	strbtvs	r6, [r5], #-3689	@ 0xfffff197
    4288:	5f003120 	svcpl	0x00003120
    428c:	4d52415f 	ldfmie	f4, [r2, #-380]	@ 0xfffffe84
    4290:	4145465f 	cmpmi	r5, pc, asr r6
    4294:	45525554 	ldrbmi	r5, [r2, #-1364]	@ 0xfffffaac
    4298:	4944495f 	stmdbmi	r4, {r0, r1, r2, r3, r4, r6, r8, fp, lr}^
    429c:	00312056 	eorseq	r2, r1, r6, asr r0
    42a0:	4c465f5f 	mcrrmi	15, 5, r5, r6, cr15
    42a4:	5f54414f 	svcpl	0x0054414f
    42a8:	44524f57 	ldrbmi	r4, [r2], #-3927	@ 0xfffff0a9
    42ac:	44524f5f 	ldrbmi	r4, [r2], #-3935	@ 0xfffff0a1
    42b0:	5f5f5245 	svcpl	0x005f5245
    42b4:	4f5f5f20 	svcmi	0x005f5f20
    42b8:	52454452 	subpl	r4, r5, #1375731712	@ 0x52000000
    42bc:	54494c5f 	strbpl	r4, [r9], #-3167	@ 0xfffff3a1
    42c0:	5f454c54 	svcpl	0x00454c54
    42c4:	49444e45 	stmdbmi	r4, {r0, r2, r6, r9, sl, fp, lr}^
    42c8:	5f5f4e41 	svcpl	0x005f4e41
    42cc:	555f5f00 	ldrbpl	r5, [pc, #-3840]	@ 33d4 <_Min_Stack_Size+0x2fd4>
    42d0:	38544e49 	ldmdacc	r4, {r0, r3, r6, r9, sl, fp, lr}^
    42d4:	5059545f 	subspl	r5, r9, pc, asr r4
    42d8:	205f5f45 	subscs	r5, pc, r5, asr #30
    42dc:	69736e75 	ldmdbvs	r3!, {r0, r2, r4, r5, r6, r9, sl, fp, sp, lr}^
    42e0:	64656e67 	strbtvs	r6, [r5], #-3687	@ 0xfffff199
    42e4:	61686320 	cmnvs	r8, r0, lsr #6
    42e8:	5f5f0072 	svcpl	0x005f0072
    42ec:	5f746e69 	svcpl	0x00746e69
    42f0:	74736166 	ldrbtvc	r6, [r3], #-358	@ 0xfffffe9a
    42f4:	5f745f38 	svcpl	0x00745f38
    42f8:	69666564 	stmdbvs	r6!, {r2, r5, r6, r8, sl, sp, lr}^
    42fc:	2064656e 	rsbcs	r6, r4, lr, ror #10
    4300:	474d0031 	smlaldxmi	r0, sp, r1, r0
    4304:	5f4f4950 	svcpl	0x004f4950
    4308:	5a484d32 	bpl	12177d8 <_Min_Stack_Size+0x12173d8>
    430c:	4550535f 	ldrbmi	r5, [r0, #-863]	@ 0xfffffca1
    4310:	5f004445 	svcpl	0x00004445
    4314:	4e49555f 	mcrmi	5, 2, r5, cr9, cr15, {2}
    4318:	454c5f54 	strbmi	r5, [ip, #-3924]	@ 0xfffff0ac
    431c:	38545341 	ldmdacc	r4, {r0, r6, r8, r9, ip, lr}^
    4320:	5059545f 	subspl	r5, r9, pc, asr r4
    4324:	205f5f45 	subscs	r5, pc, r5, asr #30
    4328:	69736e75 	ldmdbvs	r3!, {r0, r2, r4, r5, r6, r9, sl, fp, sp, lr}^
    432c:	64656e67 	strbtvs	r6, [r5], #-3687	@ 0xfffff199
    4330:	61686320 	cmnvs	r8, r0, lsr #6
    4334:	58450072 	stmdapl	r5, {r1, r4, r5, r6}^
    4338:	50324954 	eorspl	r4, r2, r4, asr r9
    433c:	28203243 	stmdacs	r0!, {r0, r1, r6, r9, ip, sp}
    4340:	5458454d 	ldrbpl	r4, [r8], #-1357	@ 0xfffffab3
    4344:	64755f49 	ldrbtvs	r5, [r5], #-3913	@ 0xfffff0b7
    4348:	70477464 	subvc	r7, r7, r4, ror #8
    434c:	69506f69 	ldmdbvs	r0, {r0, r3, r5, r6, r8, r9, sl, fp, sp, lr}^
    4350:	29745f6e 	ldmdbcs	r4!, {r1, r2, r3, r5, r6, r8, r9, sl, fp, ip, lr}^
    4354:	58454d7b 	stmdapl	r5, {r0, r1, r3, r4, r5, r6, r8, sl, fp, lr}^
    4358:	4c5f4954 	mrrcmi	9, 5, r4, pc, cr4	@ <UNPREDICTABLE>
    435c:	32454e49 	subcc	r4, r5, #1168	@ 0x490
    4360:	5047202c 	subpl	r2, r7, ip, lsr #32
    4364:	2c434f49 	mcrrcs	15, 4, r4, r3, cr9
    4368:	50474d20 	subpl	r4, r7, r0, lsr #26
    436c:	505f4f49 	subspl	r4, pc, r9, asr #30
    4370:	2c324e49 	ldccs	14, cr4, [r2], #-292	@ 0xfffffedc
    4374:	564e4d20 	strbpl	r4, [lr], -r0, lsr #26
    4378:	455f4349 	ldrbmi	r4, [pc, #-841]	@ 4037 <_Min_Stack_Size+0x3c37>
    437c:	32495458 	subcc	r5, r9, #88, 8	@ 0x58000000
    4380:	5152495f 	cmppl	r2, pc, asr r9
    4384:	5845007d 	stmdapl	r5, {r0, r2, r3, r4, r5, r6}^
    4388:	50314954 	eorspl	r4, r1, r4, asr r9
    438c:	28203141 	stmdacs	r0!, {r0, r6, r8, ip, sp}
    4390:	5458454d 	ldrbpl	r4, [r8], #-1357	@ 0xfffffab3
    4394:	64755f49 	ldrbtvs	r5, [r5], #-3913	@ 0xfffff0b7
    4398:	70477464 	subvc	r7, r7, r4, ror #8
    439c:	69506f69 	ldmdbvs	r0, {r0, r3, r5, r6, r8, r9, sl, fp, sp, lr}^
    43a0:	29745f6e 	ldmdbcs	r4!, {r1, r2, r3, r5, r6, r8, r9, sl, fp, ip, lr}^
    43a4:	58454d7b 	stmdapl	r5, {r0, r1, r3, r4, r5, r6, r8, sl, fp, lr}^
    43a8:	4c5f4954 	mrrcmi	9, 5, r4, pc, cr4	@ <UNPREDICTABLE>
    43ac:	31454e49 	cmpcc	r5, r9, asr #28
    43b0:	5047202c 	subpl	r2, r7, ip, lsr #32
    43b4:	2c414f49 	mcrrcs	15, 4, r4, r1, cr9
    43b8:	50474d20 	subpl	r4, r7, r0, lsr #26
    43bc:	505f4f49 	subspl	r4, pc, r9, asr #30
    43c0:	2c314e49 	ldccs	14, cr4, [r1], #-292	@ 0xfffffedc
    43c4:	564e4d20 	strbpl	r4, [lr], -r0, lsr #26
    43c8:	455f4349 	ldrbmi	r4, [pc, #-841]	@ 4087 <_Min_Stack_Size+0x3c87>
    43cc:	31495458 	cmpcc	r9, r8, asr r4
    43d0:	5152495f 	cmppl	r2, pc, asr r9
    43d4:	5f5f007d 	svcpl	0x005f007d
    43d8:	54524853 	ldrbpl	r4, [r2], #-2131	@ 0xfffff7ad
    43dc:	4449575f 	strbmi	r5, [r9], #-1887	@ 0xfffff8a1
    43e0:	5f5f4854 	svcpl	0x005f4854
    43e4:	00363120 	eorseq	r3, r6, r0, lsr #2
    43e8:	50544e49 	subspl	r4, r4, r9, asr #28
    43ec:	4d5f5254 	lfmmi	f5, 2, [pc, #-336]	@ 42a4 <_Min_Stack_Size+0x3ea4>
    43f0:	28205841 	stmdacs	r0!, {r0, r6, fp, ip, lr}
    43f4:	4e495f5f 	mcrmi	15, 2, r5, cr9, cr15, {2}
    43f8:	52545054 	subspl	r5, r4, #84	@ 0x54
    43fc:	58414d5f 	stmdapl	r1, {r0, r1, r2, r3, r4, r6, r8, sl, fp, lr}^
    4400:	00295f5f 	eoreq	r5, r9, pc, asr pc
    4404:	53555f5f 	cmppl	r5, #380	@ 0x17c
    4408:	42465f41 	submi	r5, r6, #260	@ 0x104
    440c:	5f5f5449 	svcpl	0x005f5449
    4410:	00363120 	eorseq	r3, r6, r0, lsr #2
    4414:	4e495f5f 	mcrmi	15, 2, r5, cr9, cr15, {2}
    4418:	41465f54 	cmpmi	r6, r4, asr pc
    441c:	32335453 	eorscc	r5, r3, #1392508928	@ 0x53000000
    4420:	5059545f 	subspl	r5, r9, pc, asr r4
    4424:	205f5f45 	subscs	r5, pc, r5, asr #30
    4428:	00746e69 	rsbseq	r6, r4, r9, ror #28
    442c:	4c465f5f 	mcrrmi	15, 5, r5, r6, cr15
    4430:	58323354 	ldmdapl	r2!, {r2, r4, r6, r8, r9, ip, sp}
    4434:	4e494d5f 	mcrmi	13, 2, r4, cr9, cr15, {2}
    4438:	5058455f 	subspl	r4, r8, pc, asr r5
    443c:	28205f5f 	stmdacs	r0!, {r0, r1, r2, r3, r4, r6, r8, r9, sl, fp, ip, lr}
    4440:	3230312d 	eorscc	r3, r0, #1073741835	@ 0x4000000b
    4444:	4d002931 	vstrmi.16	s4, [r0, #-98]	@ 0xffffff9e	@ <UNPREDICTABLE>
    4448:	4f495047 	svcmi	0x00495047
    444c:	504e495f 	subpl	r4, lr, pc, asr r9
    4450:	415f5455 	cmpmi	pc, r5, asr r4	@ <UNPREDICTABLE>
    4454:	4f4d5f46 	svcmi	0x004d5f46
    4458:	5f004544 	svcpl	0x00004544
    445c:	544c465f 	strbpl	r4, [ip], #-1631	@ 0xfffff9a1
    4460:	5341485f 	movtpl	r4, #6239	@ 0x185f
    4464:	4955515f 	ldmdbmi	r5, {r0, r1, r2, r3, r4, r6, r8, ip, lr}^
    4468:	4e5f5445 	cdpmi	4, 5, cr5, cr15, cr5, {2}
    446c:	5f5f4e41 	svcpl	0x005f4e41
    4470:	4d003120 	stfmis	f3, [r0, #-128]	@ 0xffffff80
    4474:	5f4c4143 	svcpl	0x004c4143
    4478:	5f434e49 	svcpl	0x00434e49
    447c:	4349564e 	movtmi	r5, #38478	@ 0x964e
    4480:	205f485f 	subscs	r4, pc, pc, asr r8	@ <UNPREDICTABLE>
    4484:	415f5f00 	cmpmi	pc, r0, lsl #30
    4488:	4c494654 	mcrrmi	6, 5, r4, r9, cr4
    448c:	49565f45 	ldmdbmi	r6, {r0, r2, r6, r8, r9, sl, fp, ip, lr}^
    4490:	4c424953 	mcrrmi	9, 5, r4, r2, cr3	@ <UNPREDICTABLE>
    4494:	00312045 	eorseq	r2, r1, r5, asr #32
    4498:	5f433249 	svcpl	0x00433249
    449c:	5f315253 	svcpl	0x00315253
    44a0:	31444441 	cmpcc	r4, r1, asr #8
    44a4:	32492030 	subcc	r2, r9, #48	@ 0x30
    44a8:	52535f43 	subspl	r5, r3, #268	@ 0x10c
    44ac:	44415f31 	strbmi	r5, [r1], #-3889	@ 0xfffff0cf
    44b0:	5f303144 	svcpl	0x00303144
    44b4:	006b734d 	rsbeq	r7, fp, sp, asr #6
    44b8:	49545845 	ldmdbmi	r4, {r0, r2, r6, fp, ip, lr}^
    44bc:	36415036 			@ <UNDEFINED> instruction: 0x36415036
    44c0:	454d2820 	strbmi	r2, [sp, #-2080]	@ 0xfffff7e0
    44c4:	5f495458 	svcpl	0x00495458
    44c8:	74646475 	strbtvc	r6, [r4], #-1141	@ 0xfffffb8b
    44cc:	6f697047 	svcvs	0x00697047
    44d0:	5f6e6950 	svcpl	0x006e6950
    44d4:	4d7b2974 			@ <UNDEFINED> instruction: 0x4d7b2974
    44d8:	49545845 	ldmdbmi	r4, {r0, r2, r6, fp, ip, lr}^
    44dc:	4e494c5f 	mcrmi	12, 2, r4, cr9, cr15, {2}
    44e0:	202c3645 	eorcs	r3, ip, r5, asr #12
    44e4:	4f495047 	svcmi	0x00495047
    44e8:	4d202c41 	stcmi	12, cr2, [r0, #-260]!	@ 0xfffffefc
    44ec:	4f495047 	svcmi	0x00495047
    44f0:	4e49505f 	mcrmi	0, 2, r5, cr9, cr15, {2}
    44f4:	4d202c36 	stcmi	12, cr2, [r0, #-216]!	@ 0xffffff28
    44f8:	4349564e 	movtmi	r5, #38478	@ 0x964e
    44fc:	5458455f 	ldrbpl	r4, [r8], #-1375	@ 0xfffffaa1
    4500:	355f3949 	ldrbcc	r3, [pc, #-2377]	@ 3bbf <_Min_Stack_Size+0x37bf>
    4504:	5152495f 	cmppl	r2, pc, asr r9
    4508:	5f5f007d 	svcpl	0x005f007d
    450c:	4152464c 	cmpmi	r2, ip, asr #12
    4510:	455f5443 	ldrbmi	r5, [pc, #-1091]	@ 40d5 <_Min_Stack_Size+0x3cd5>
    4514:	4c495350 	mcrrmi	3, 5, r5, r9, cr0
    4518:	5f5f4e4f 	svcpl	0x005f4e4f
    451c:	31783020 	cmncc	r8, r0, lsr #32
    4520:	31332d50 	teqcc	r3, r0, asr sp
    4524:	7500524c 	strvc	r5, [r0, #-588]	@ 0xfffffdb4
    4528:	54746464 	ldrbtpl	r6, [r4], #-1124	@ 0xfffffb9c
    452c:	67676972 			@ <UNDEFINED> instruction: 0x67676972
    4530:	6f437265 	svcvs	0x00437265
    4534:	6f72746e 	svcvs	0x0072746e
    4538:	5f5f006c 	svcpl	0x005f006c
    453c:	5f4d5241 	svcpl	0x004d5241
    4540:	455a4953 	ldrbmi	r4, [sl, #-2387]	@ 0xfffff6ad
    4544:	4d5f464f 	ldclmi	6, cr4, [pc, #-316]	@ 4410 <_Min_Stack_Size+0x4010>
    4548:	4d494e49 	stclmi	14, cr4, [r9, #-292]	@ 0xfffffedc
    454c:	455f4c41 	ldrbmi	r4, [pc, #-3137]	@ 3913 <_Min_Stack_Size+0x3513>
    4550:	204d554e 	subcs	r5, sp, lr, asr #10
    4554:	454d0031 	strbmi	r0, [sp, #-49]	@ 0xffffffcf
    4558:	5f495458 	svcpl	0x00495458
    455c:	74646475 	strbtvc	r6, [r4], #-1141	@ 0xfffffb8b
    4560:	6b73614d 	blvs	1cdca9c <_Min_Stack_Size+0x1cdc69c>
    4564:	656e694c 	strbvs	r6, [lr, #-2380]!	@ 0xfffff6b4
    4568:	465f5f00 	ldrbmi	r5, [pc], -r0, lsl #30
    456c:	3233544c 	eorscc	r5, r3, #76, 8	@ 0x4c000000
    4570:	4f4e5f58 	svcmi	0x004e5f58
    4574:	4d5f4d52 	ldclmi	13, cr4, [pc, #-328]	@ 4434 <_Min_Stack_Size+0x4034>
    4578:	5f5f5841 	svcpl	0x005f5841
    457c:	372e3120 	strcc	r3, [lr, -r0, lsr #2]!
    4580:	39363739 	ldmdbcc	r6!, {r0, r3, r4, r5, r8, r9, sl, ip, sp}
    4584:	34333133 	ldrtcc	r3, [r3], #-307	@ 0xfffffecd
    4588:	33323638 	teqcc	r2, #56, 12	@ 0x3800000
    458c:	65373531 	ldrvs	r3, [r7, #-1329]!	@ 0xfffffacf
    4590:	3830332b 	ldmdacc	r0!, {r0, r1, r3, r5, r8, r9, ip, sp}
    4594:	78323346 	ldmdavc	r2!, {r1, r2, r6, r8, r9, ip, sp}
    4598:	615f5f00 	cmpvs	pc, r0, lsl #30
    459c:	5f5f6d72 	svcpl	0x005f6d72
    45a0:	47003120 	strmi	r3, [r0, -r0, lsr #2]
    45a4:	5f4f4950 	svcpl	0x004f4950
    45a8:	69676572 	stmdbvs	r7!, {r1, r4, r5, r6, r8, sl, sp, lr}^
    45ac:	72657473 	rsbvc	r7, r5, #1929379840	@ 0x73000000
    45b0:	5f70614d 	svcpl	0x0070614d
    45b4:	5f5f0074 	svcpl	0x005f0074
    45b8:	33544c46 	cmpcc	r4, #17920	@ 0x4600
    45bc:	494d5f32 	stmdbmi	sp, {r1, r4, r5, r8, r9, sl, fp, ip, lr}^
    45c0:	30315f4e 	eorscc	r5, r1, lr, asr #30
    45c4:	5058455f 	subspl	r4, r8, pc, asr r5
    45c8:	28205f5f 	stmdacs	r0!, {r0, r1, r2, r3, r4, r6, r8, r9, sl, fp, ip, lr}
    45cc:	2937332d 	ldmdbcs	r7!, {r0, r2, r3, r5, r8, r9, ip, sp}
    45d0:	495f5f00 	ldmdbmi	pc, {r8, r9, sl, fp, ip, lr}^	@ <UNPREDICTABLE>
    45d4:	435f4f53 	cmpmi	pc, #332	@ 0x14c
    45d8:	5349565f 	movtpl	r5, #38495	@ 0x965f
    45dc:	454c4249 	strbmi	r4, [ip, #-585]	@ 0xfffffdb7
    45e0:	31303220 	teqcc	r0, r0, lsr #4
    45e4:	4e490031 	mcrmi	0, 2, r0, cr9, cr1, {1}
    45e8:	5f363154 	svcpl	0x00363154
    45ec:	204e494d 	subcs	r4, lr, sp, asr #18
    45f0:	5f5f2d28 	svcpl	0x005f2d28
    45f4:	31544e49 	cmpcc	r4, r9, asr #28
    45f8:	414d5f36 	cmpmi	sp, r6, lsr pc
    45fc:	205f5f58 	subscs	r5, pc, r8, asr pc	@ <UNPREDICTABLE>
    4600:	2931202d 	ldmdbcs	r1!, {r0, r2, r3, r5, sp}
    4604:	415f5f00 	cmpmi	pc, r0, lsl #30
    4608:	465f4d52 			@ <UNDEFINED> instruction: 0x465f4d52
    460c:	5f363150 	svcpl	0x00363150
    4610:	4d524f46 	ldclmi	15, cr4, [r2, #-280]	@ 0xfffffee8
    4614:	415f5441 	cmpmi	pc, r1, asr #8
    4618:	5245544c 	subpl	r5, r5, #76, 8	@ 0x4c000000
    461c:	4954414e 	ldmdbmi	r4, {r1, r2, r3, r6, r8, lr}^
    4620:	49004556 	stmdbmi	r0, {r1, r2, r4, r6, r8, sl, lr}
    4624:	535f4332 	cmppl	pc, #-939524096	@ 0xc8000000
    4628:	415f3152 	cmpmi	pc, r2, asr r1	@ <UNPREDICTABLE>
    462c:	204f4c52 	subcs	r4, pc, r2, asr ip	@ <UNPREDICTABLE>
    4630:	5f433249 	svcpl	0x00433249
    4634:	5f315253 	svcpl	0x00315253
    4638:	4f4c5241 	svcmi	0x004c5241
    463c:	6b734d5f 	blvs	1cd7bc0 <_Min_Stack_Size+0x1cd77c0>
    4640:	4c5f5f00 	mrrcmi	15, 0, r5, pc, cr0	@ <UNPREDICTABLE>
    4644:	5f4c4244 	svcpl	0x004c4244
    4648:	4d524f4e 	ldclmi	15, cr4, [r2, #-312]	@ 0xfffffec8
    464c:	58414d5f 	stmdapl	r1, {r0, r1, r2, r3, r4, r6, r8, sl, fp, lr}^
    4650:	31205f5f 			@ <UNDEFINED> instruction: 0x31205f5f
    4654:	3739372e 	ldrcc	r3, [r9, -lr, lsr #14]!
    4658:	31333936 	teqcc	r3, r6, lsr r9
    465c:	36383433 			@ <UNDEFINED> instruction: 0x36383433
    4660:	35313332 	ldrcc	r3, [r1, #-818]!	@ 0xfffffcce
    4664:	332b6537 			@ <UNDEFINED> instruction: 0x332b6537
    4668:	004c3830 	subeq	r3, ip, r0, lsr r8
    466c:	49545845 	ldmdbmi	r4, {r0, r2, r6, fp, ip, lr}^
    4670:	37435037 	smlaldxcc	r5, r3, r7, r0
    4674:	454d2820 	strbmi	r2, [sp, #-2080]	@ 0xfffff7e0
    4678:	5f495458 	svcpl	0x00495458
    467c:	74646475 	strbtvc	r6, [r4], #-1141	@ 0xfffffb8b
    4680:	6f697047 	svcvs	0x00697047
    4684:	5f6e6950 	svcpl	0x006e6950
    4688:	4d7b2974 			@ <UNDEFINED> instruction: 0x4d7b2974
    468c:	49545845 	ldmdbmi	r4, {r0, r2, r6, fp, ip, lr}^
    4690:	4e494c5f 	mcrmi	12, 2, r4, cr9, cr15, {2}
    4694:	202c3745 	eorcs	r3, ip, r5, asr #14
    4698:	4f495047 	svcmi	0x00495047
    469c:	4d202c43 	stcmi	12, cr2, [r0, #-268]!	@ 0xfffffef4
    46a0:	4f495047 	svcmi	0x00495047
    46a4:	4e49505f 	mcrmi	0, 2, r5, cr9, cr15, {2}
    46a8:	4d202c37 	stcmi	12, cr2, [r0, #-220]!	@ 0xffffff24
    46ac:	4349564e 	movtmi	r5, #38478	@ 0x964e
    46b0:	5458455f 	ldrbpl	r4, [r8], #-1375	@ 0xfffffaa1
    46b4:	355f3949 	ldrbcc	r3, [pc, #-2377]	@ 3d73 <_Min_Stack_Size+0x3973>
    46b8:	5152495f 	cmppl	r2, pc, asr r9
    46bc:	5845007d 	stmdapl	r5, {r0, r2, r3, r4, r5, r6}^
    46c0:	33314954 	teqcc	r1, #84, 18	@ 0x150000
    46c4:	33314250 	teqcc	r1, #80, 4
    46c8:	454d2820 	strbmi	r2, [sp, #-2080]	@ 0xfffff7e0
    46cc:	5f495458 	svcpl	0x00495458
    46d0:	74646475 	strbtvc	r6, [r4], #-1141	@ 0xfffffb8b
    46d4:	6f697047 	svcvs	0x00697047
    46d8:	5f6e6950 	svcpl	0x006e6950
    46dc:	4d7b2974 			@ <UNDEFINED> instruction: 0x4d7b2974
    46e0:	49545845 	ldmdbmi	r4, {r0, r2, r6, fp, ip, lr}^
    46e4:	4e494c5f 	mcrmi	12, 2, r4, cr9, cr15, {2}
    46e8:	2c333145 	ldfcss	f3, [r3], #-276	@ 0xfffffeec
    46ec:	49504720 	ldmdbmi	r0, {r5, r8, r9, sl, lr}^
    46f0:	202c424f 	eorcs	r4, ip, pc, asr #4
    46f4:	4950474d 	ldmdbmi	r0, {r0, r2, r3, r6, r8, r9, sl, lr}^
    46f8:	49505f4f 	ldmdbmi	r0, {r0, r1, r2, r3, r6, r8, r9, sl, fp, ip, lr}^
    46fc:	2c33314e 	ldfcss	f3, [r3], #-312	@ 0xfffffec8
    4700:	564e4d20 	strbpl	r4, [lr], -r0, lsr #26
    4704:	455f4349 	ldrbmi	r4, [pc, #-841]	@ 43c3 <_Min_Stack_Size+0x3fc3>
    4708:	31495458 	cmpcc	r9, r8, asr r4
    470c:	30315f35 	eorscc	r5, r1, r5, lsr pc
    4710:	5152495f 	cmppl	r2, pc, asr r9
    4714:	4e49007d 	mcrmi	0, 2, r0, cr9, cr13, {3}
    4718:	41465f54 	cmpmi	r6, r4, asr pc
    471c:	34365453 	ldrtcc	r5, [r6], #-1107	@ 0xfffffbad
    4720:	4e494d5f 	mcrmi	13, 2, r4, cr9, cr15, {2}
    4724:	5f2d2820 	svcpl	0x002d2820
    4728:	544e495f 	strbpl	r4, [lr], #-2399	@ 0xfffff6a1
    472c:	5341465f 	movtpl	r4, #5727	@ 0x165f
    4730:	5f343654 	svcpl	0x00343654
    4734:	5f58414d 	svcpl	0x0058414d
    4738:	202d205f 	eorcs	r2, sp, pc, asr r0
    473c:	5f002931 	svcpl	0x00002931
    4740:	4843414d 	stmdami	r3, {r0, r2, r3, r6, r8, lr}^
    4744:	5f454e49 	svcpl	0x00454e49
    4748:	4645445f 			@ <UNDEFINED> instruction: 0x4645445f
    474c:	544c5541 	strbpl	r5, [ip], #-1345	@ 0xfffffabf
    4750:	5059545f 	subspl	r5, r9, pc, asr r4
    4754:	485f5345 	ldmdami	pc, {r0, r2, r6, r8, r9, ip, lr}^	@ <UNPREDICTABLE>
    4758:	5f5f0020 	svcpl	0x005f0020
    475c:	47474942 	strbmi	r4, [r7, -r2, asr #18]
    4760:	5f545345 	svcpl	0x00545345
    4764:	47494c41 	strbmi	r4, [r9, -r1, asr #24]
    4768:	4e454d4e 	cdpmi	13, 4, cr4, cr5, cr14, {2}
    476c:	205f5f54 	subscs	r5, pc, r4, asr pc	@ <UNPREDICTABLE>
    4770:	4e4d0038 	mcrmi	0, 2, r0, cr13, cr8, {1}
    4774:	5f434956 	svcpl	0x00434956
    4778:	324d4954 	subcc	r4, sp, #84, 18	@ 0x150000
    477c:	5152495f 	cmppl	r2, pc, asr r9
    4780:	00383220 	eorseq	r3, r8, r0, lsr #4
    4784:	5f433249 	svcpl	0x00433249
    4788:	5f315253 	svcpl	0x00315253
    478c:	41424d53 	cmpmi	r2, r3, asr sp
    4790:	5452454c 	ldrbpl	r4, [r2], #-1356	@ 0xfffffab4
    4794:	43324920 	teqmi	r2, #32, 18	@ 0x80000
    4798:	3152535f 	cmpcc	r2, pc, asr r3
    479c:	424d535f 	submi	r5, sp, #2080374785	@ 0x7c000001
    47a0:	52454c41 	subpl	r4, r5, #16640	@ 0x4100
    47a4:	734d5f54 	movtvc	r5, #57172	@ 0xdf54
    47a8:	4c46006b 	mcrrmi	0, 6, r0, r6, cr11
    47ac:	5f485341 	svcpl	0x00485341
    47b0:	4f4d454d 	svcmi	0x004d454d
    47b4:	425f5952 	subsmi	r5, pc, #1343488	@ 0x148000
    47b8:	30205355 	eorcc	r5, r0, r5, asr r3
    47bc:	30383078 	eorscc	r3, r8, r8, ror r0
    47c0:	30303030 	eorscc	r3, r0, r0, lsr r0
    47c4:	004c5530 	subeq	r5, ip, r0, lsr r5
    47c8:	4950474d 	ldmdbmi	r0, {r0, r2, r3, r6, r8, r9, sl, lr}^
    47cc:	49505f4f 	ldmdbmi	r0, {r0, r1, r2, r3, r6, r8, r9, sl, fp, ip, lr}^
    47d0:	5f00354e 	svcpl	0x0000354e
    47d4:	5f41545f 	svcpl	0x0041545f
    47d8:	54494249 	strbpl	r4, [r9], #-585	@ 0xfffffdb7
    47dc:	36205f5f 	qsaxcc	r5, r0, pc	@ <UNPREDICTABLE>
    47e0:	474d0034 	smlaldxmi	r0, sp, r4, r0
    47e4:	5f4f4950 	svcpl	0x004f4950
    47e8:	364e4950 			@ <UNDEFINED> instruction: 0x364e4950
    47ec:	4d545300 	ldclmi	3, cr5, [r4, #-0]
    47f0:	31203233 			@ <UNDEFINED> instruction: 0x31203233
    47f4:	4c5f5f00 	mrrcmi	15, 0, r5, pc, cr0	@ <UNPREDICTABLE>
    47f8:	54534145 	ldrbpl	r4, [r3], #-325	@ 0xfffffebb
    47fc:	22203436 	eorcs	r3, r0, #905969664	@ 0x36000000
    4800:	00226c6c 	eoreq	r6, r2, ip, ror #24
    4804:	5f433249 	svcpl	0x00433249
    4808:	5f325253 	svcpl	0x00325253
    480c:	204c534d 	subcs	r5, ip, sp, asr #6
    4810:	5f433249 	svcpl	0x00433249
    4814:	5f325253 	svcpl	0x00325253
    4818:	5f4c534d 	svcpl	0x004c534d
    481c:	006b734d 	rsbeq	r7, fp, sp, asr #6
    4820:	49545845 	ldmdbmi	r4, {r0, r2, r6, fp, ip, lr}^
    4824:	37425037 	smlaldxcc	r5, r2, r7, r0
    4828:	454d2820 	strbmi	r2, [sp, #-2080]	@ 0xfffff7e0
    482c:	5f495458 	svcpl	0x00495458
    4830:	74646475 	strbtvc	r6, [r4], #-1141	@ 0xfffffb8b
    4834:	6f697047 	svcvs	0x00697047
    4838:	5f6e6950 	svcpl	0x006e6950
    483c:	4d7b2974 			@ <UNDEFINED> instruction: 0x4d7b2974
    4840:	49545845 	ldmdbmi	r4, {r0, r2, r6, fp, ip, lr}^
    4844:	4e494c5f 	mcrmi	12, 2, r4, cr9, cr15, {2}
    4848:	202c3745 	eorcs	r3, ip, r5, asr #14
    484c:	4f495047 	svcmi	0x00495047
    4850:	4d202c42 	stcmi	12, cr2, [r0, #-264]!	@ 0xfffffef8
    4854:	4f495047 	svcmi	0x00495047
    4858:	4e49505f 	mcrmi	0, 2, r5, cr9, cr15, {2}
    485c:	4d202c37 	stcmi	12, cr2, [r0, #-220]!	@ 0xffffff24
    4860:	4349564e 	movtmi	r5, #38478	@ 0x964e
    4864:	5458455f 	ldrbpl	r4, [r8], #-1375	@ 0xfffffaa1
    4868:	355f3949 	ldrbcc	r3, [pc, #-2377]	@ 3f27 <_Min_Stack_Size+0x3b27>
    486c:	5152495f 	cmppl	r2, pc, asr r9
    4870:	5f5f007d 	svcpl	0x005f007d
    4874:	5f4d5241 	svcpl	0x004d5241
    4878:	54414546 	strbpl	r4, [r1], #-1350	@ 0xfffffaba
    487c:	5f455255 	svcpl	0x00455255
    4880:	4d445251 	sfmmi	f5, 2, [r4, #-324]	@ 0xfffffebc
    4884:	58450058 	stmdapl	r5, {r3, r4, r6}^
    4888:	50374954 	eorspl	r4, r7, r4, asr r9
    488c:	28203741 	stmdacs	r0!, {r0, r6, r8, r9, sl, ip, sp}
    4890:	5458454d 	ldrbpl	r4, [r8], #-1357	@ 0xfffffab3
    4894:	64755f49 	ldrbtvs	r5, [r5], #-3913	@ 0xfffff0b7
    4898:	70477464 	subvc	r7, r7, r4, ror #8
    489c:	69506f69 	ldmdbvs	r0, {r0, r3, r5, r6, r8, r9, sl, fp, sp, lr}^
    48a0:	29745f6e 	ldmdbcs	r4!, {r1, r2, r3, r5, r6, r8, r9, sl, fp, ip, lr}^
    48a4:	58454d7b 	stmdapl	r5, {r0, r1, r3, r4, r5, r6, r8, sl, fp, lr}^
    48a8:	4c5f4954 	mrrcmi	9, 5, r4, pc, cr4	@ <UNPREDICTABLE>
    48ac:	37454e49 	strbcc	r4, [r5, -r9, asr #28]
    48b0:	5047202c 	subpl	r2, r7, ip, lsr #32
    48b4:	2c414f49 	mcrrcs	15, 4, r4, r1, cr9
    48b8:	50474d20 	subpl	r4, r7, r0, lsr #26
    48bc:	505f4f49 	subspl	r4, pc, r9, asr #30
    48c0:	2c374e49 	ldccs	14, cr4, [r7], #-292	@ 0xfffffedc
    48c4:	564e4d20 	strbpl	r4, [lr], -r0, lsr #26
    48c8:	455f4349 	ldrbmi	r4, [pc, #-841]	@ 4587 <_Min_Stack_Size+0x4187>
    48cc:	39495458 	stmdbcc	r9, {r3, r4, r6, sl, ip, lr}^
    48d0:	495f355f 	ldmdbmi	pc, {r0, r1, r2, r3, r4, r6, r8, sl, ip, sp}^	@ <UNPREDICTABLE>
    48d4:	007d5152 	rsbseq	r5, sp, r2, asr r1
    48d8:	49545845 	ldmdbmi	r4, {r0, r2, r6, fp, ip, lr}^
    48dc:	38435038 	stmdacc	r3, {r3, r4, r5, ip, lr}^
    48e0:	454d2820 	strbmi	r2, [sp, #-2080]	@ 0xfffff7e0
    48e4:	5f495458 	svcpl	0x00495458
    48e8:	74646475 	strbtvc	r6, [r4], #-1141	@ 0xfffffb8b
    48ec:	6f697047 	svcvs	0x00697047
    48f0:	5f6e6950 	svcpl	0x006e6950
    48f4:	4d7b2974 			@ <UNDEFINED> instruction: 0x4d7b2974
    48f8:	49545845 	ldmdbmi	r4, {r0, r2, r6, fp, ip, lr}^
    48fc:	4e494c5f 	mcrmi	12, 2, r4, cr9, cr15, {2}
    4900:	202c3845 	eorcs	r3, ip, r5, asr #16
    4904:	4f495047 	svcmi	0x00495047
    4908:	4d202c43 	stcmi	12, cr2, [r0, #-268]!	@ 0xfffffef4
    490c:	4f495047 	svcmi	0x00495047
    4910:	4e49505f 	mcrmi	0, 2, r5, cr9, cr15, {2}
    4914:	4d202c38 	stcmi	12, cr2, [r0, #-224]!	@ 0xffffff20
    4918:	4349564e 	movtmi	r5, #38478	@ 0x964e
    491c:	5458455f 	ldrbpl	r4, [r8], #-1375	@ 0xfffffaa1
    4920:	355f3949 	ldrbcc	r3, [pc, #-2377]	@ 3fdf <_Min_Stack_Size+0x3bdf>
    4924:	5152495f 	cmppl	r2, pc, asr r9
    4928:	5f5f007d 	svcpl	0x005f007d
    492c:	5f4d5241 	svcpl	0x004d5241
    4930:	48435241 	stmdami	r3, {r0, r6, r9, ip, lr}^
    4934:	4153495f 	cmpmi	r3, pc, asr r9
    4938:	5548545f 	strbpl	r5, [r8, #-1119]	@ 0xfffffba1
    493c:	3220424d 	eorcc	r4, r0, #-805306364	@ 0xd0000004
    4940:	4c5f5f00 	mrrcmi	15, 0, r5, pc, cr0	@ <UNPREDICTABLE>
    4944:	5f474e4f 	svcpl	0x00474e4f
    4948:	474e4f4c 	strbmi	r4, [lr, -ip, asr #30]
    494c:	58414d5f 	stmdapl	r1, {r0, r1, r2, r3, r4, r6, r8, sl, fp, lr}^
    4950:	30205f5f 	eorcc	r5, r0, pc, asr pc
    4954:	66663778 			@ <UNDEFINED> instruction: 0x66663778
    4958:	66666666 	strbtvs	r6, [r6], -r6, ror #12
    495c:	66666666 	strbtvs	r6, [r6], -r6, ror #12
    4960:	66666666 	strbtvs	r6, [r6], -r6, ror #12
    4964:	004c4c66 	subeq	r4, ip, r6, ror #24
    4968:	676e6f6c 	strbvs	r6, [lr, -ip, ror #30]!
    496c:	756f6420 	strbvc	r6, [pc, #-1056]!	@ 4554 <_Min_Stack_Size+0x4154>
    4970:	00656c62 	rsbeq	r6, r5, r2, ror #24
    4974:	676e6f6c 	strbvs	r6, [lr, -ip, ror #30]!
    4978:	54584500 	ldrbpl	r4, [r8], #-1280	@ 0xfffffb00
    497c:	28282049 	stmdacs	r8!, {r0, r3, r6, sp}
    4980:	49545845 	ldmdbmi	r4, {r0, r2, r6, fp, ip, lr}^
    4984:	6765725f 			@ <UNDEFINED> instruction: 0x6765725f
    4988:	65747369 	ldrbvs	r7, [r4, #-873]!	@ 0xfffffc97
    498c:	70614d72 	rsbvc	r4, r1, r2, ror sp
    4990:	292a745f 	stmdbcs	sl!, {r0, r1, r2, r3, r4, r6, sl, ip, sp, lr}
    4994:	49545845 	ldmdbmi	r4, {r0, r2, r6, fp, ip, lr}^
    4998:	5341425f 	movtpl	r4, #4703	@ 0x125f
    499c:	73002945 	movwvc	r2, #2373	@ 0x945
    49a0:	74726f68 	ldrbtvc	r6, [r2], #-3944	@ 0xfffff098
    49a4:	43324900 	teqmi	r2, #0, 18
    49a8:	3152535f 	cmpcc	r2, pc, asr r3
    49ac:	2042535f 	subcs	r5, r2, pc, asr r3
    49b0:	5f433249 	svcpl	0x00433249
    49b4:	5f315253 	svcpl	0x00315253
    49b8:	4d5f4253 	lfmmi	f4, 2, [pc, #-332]	@ 4874 <_Min_Stack_Size+0x4474>
    49bc:	5f006b73 	svcpl	0x00006b73
    49c0:	5246555f 	subpl	r5, r6, #398458880	@ 0x17c00000
    49c4:	5f544341 	svcpl	0x00544341
    49c8:	54494249 	strbpl	r4, [r9], #-585	@ 0xfffffdb7
    49cc:	30205f5f 	eorcc	r5, r0, pc, asr pc
    49d0:	415f5f00 	cmpmi	pc, r0, lsl #30
    49d4:	335f4d52 	cmpcc	pc, #5248	@ 0x1480
    49d8:	54494232 	strbpl	r4, [r9], #-562	@ 0xfffffdce
    49dc:	4154535f 	cmpmi	r4, pc, asr r3
    49e0:	31204554 			@ <UNDEFINED> instruction: 0x31204554
    49e4:	495f5f00 	ldmdbmi	pc, {r8, r9, sl, fp, ip, lr}^	@ <UNPREDICTABLE>
    49e8:	5f38544e 	svcpl	0x0038544e
    49ec:	29632843 	stmdbcs	r3!, {r0, r1, r6, fp, sp}^
    49f0:	5f006320 	svcpl	0x00006320
    49f4:	52464c5f 	subpl	r4, r6, #24320	@ 0x5f00
    49f8:	5f544341 	svcpl	0x00544341
    49fc:	54494249 	strbpl	r4, [r9], #-585	@ 0xfffffdb7
    4a00:	30205f5f 	eorcc	r5, r0, pc, asr pc
    4a04:	43324900 	teqmi	r2, #0, 18
    4a08:	3152435f 	cmpcc	r2, pc, asr r3
    4a0c:	4154535f 	cmpmi	r4, pc, asr r3
    4a10:	4d5f5452 	cfldrdmi	mvd5, [pc, #-328]	@ 48d0 <_Min_Stack_Size+0x44d0>
    4a14:	28206b73 	stmdacs	r0!, {r0, r1, r4, r5, r6, r8, r9, fp, sp, lr}
    4a18:	55317830 	ldrpl	r7, [r1, #-2096]!	@ 0xfffff7d0
    4a1c:	3c3c204c 	ldccc	0, cr2, [ip], #-304	@ 0xfffffed0
    4a20:	43324920 	teqmi	r2, #32, 18	@ 0x80000
    4a24:	3152435f 	cmpcc	r2, pc, asr r3
    4a28:	4154535f 	cmpmi	r4, pc, asr r3
    4a2c:	505f5452 	subspl	r5, pc, r2, asr r4	@ <UNPREDICTABLE>
    4a30:	0029736f 	eoreq	r7, r9, pc, ror #6
    4a34:	49535f5f 	ldmdbmi	r3, {r0, r1, r2, r3, r4, r6, r8, r9, sl, fp, ip, lr}^
    4a38:	464f455a 			@ <UNDEFINED> instruction: 0x464f455a
    4a3c:	544e495f 	strbpl	r4, [lr], #-2399	@ 0xfffff6a1
    4a40:	34205f5f 	strtcc	r5, [r0], #-3935	@ 0xfffff0a1
    4a44:	445f5f00 	ldrbmi	r5, [pc], #-3840	@ 4a4c <_Min_Stack_Size+0x464c>
    4a48:	4d5f4c42 	ldclmi	12, cr4, [pc, #-264]	@ 4948 <_Min_Stack_Size+0x4548>
    4a4c:	455f4e49 	ldrbmi	r4, [pc, #-3657]	@ 3c0b <_Min_Stack_Size+0x380b>
    4a50:	5f5f5058 	svcpl	0x005f5058
    4a54:	312d2820 			@ <UNDEFINED> instruction: 0x312d2820
    4a58:	29313230 	ldmdbcs	r1!, {r4, r5, r9, ip, sp}
    4a5c:	43324900 	teqmi	r2, #0, 18
    4a60:	3252535f 	subscc	r5, r2, #2080374785	@ 0x7c000001
    4a64:	424d535f 	submi	r5, sp, #2080374785	@ 0x7c000001
    4a68:	41464544 	cmpmi	r6, r4, asr #10
    4a6c:	5f544c55 	svcpl	0x00544c55
    4a70:	20736f50 	rsbscs	r6, r3, r0, asr pc
    4a74:	29553528 	ldmdbcs	r5, {r3, r5, r8, sl, ip, sp}^
    4a78:	4c5f5f00 	mrrcmi	15, 0, r5, pc, cr0	@ <UNPREDICTABLE>
    4a7c:	5f4c4244 	svcpl	0x004c4244
    4a80:	5f534148 	svcpl	0x00534148
    4a84:	4f4e4544 	svcmi	0x004e4544
    4a88:	5f5f4d52 	svcpl	0x005f4d52
    4a8c:	4d003120 	stfmis	f3, [r0, #-128]	@ 0xffffff80
    4a90:	4f495047 	svcmi	0x00495047
    4a94:	6464755f 	strbtvs	r7, [r4], #-1375	@ 0xfffffaa1
    4a98:	6e695074 	mcrvs	0, 3, r5, cr9, cr4, {3}
    4a9c:	65657053 	strbvs	r7, [r5, #-83]!	@ 0xffffffad
    4aa0:	00745f64 	rsbseq	r5, r4, r4, ror #30
    4aa4:	5f433249 	svcpl	0x00433249
    4aa8:	3252414f 	subscc	r4, r2, #-1073741805	@ 0xc0000013
    4aac:	444e455f 	strbmi	r4, [lr], #-1375	@ 0xfffffaa1
    4ab0:	5f4c4155 	svcpl	0x004c4155
    4ab4:	206b734d 	rsbcs	r7, fp, sp, asr #6
    4ab8:	31783028 	cmncc	r8, r8, lsr #32
    4abc:	3c204c55 	stccc	12, cr4, [r0], #-340	@ 0xfffffeac
    4ac0:	3249203c 	subcc	r2, r9, #60	@ 0x3c
    4ac4:	414f5f43 	cmpmi	pc, r3, asr #30
    4ac8:	455f3252 	ldrbmi	r3, [pc, #-594]	@ 487e <_Min_Stack_Size+0x447e>
    4acc:	4155444e 	cmpmi	r5, lr, asr #8
    4ad0:	6f505f4c 	svcvs	0x00505f4c
    4ad4:	49002973 	stmdbmi	r0, {r0, r1, r4, r5, r6, r8, fp, sp}
    4ad8:	435f4332 	cmpmi	pc, #-939524096	@ 0xc8000000
    4adc:	535f3152 	cmppl	pc, #-2147483628	@ 0x80000014
    4ae0:	5f504f54 	svcpl	0x00504f54
    4ae4:	20736f50 	rsbscs	r6, r3, r0, asr pc
    4ae8:	29553928 	ldmdbcs	r5, {r3, r5, r8, fp, ip, sp}^
    4aec:	54584500 	ldrbpl	r4, [r8], #-1280	@ 0xfffffb00
    4af0:	42503949 	subsmi	r3, r0, #1196032	@ 0x124000
    4af4:	4d282039 	stcmi	0, cr2, [r8, #-228]!	@ 0xffffff1c
    4af8:	49545845 	ldmdbmi	r4, {r0, r2, r6, fp, ip, lr}^
    4afc:	6464755f 	strbtvs	r7, [r4], #-1375	@ 0xfffffaa1
    4b00:	69704774 	ldmdbvs	r0!, {r2, r4, r5, r6, r8, r9, sl, lr}^
    4b04:	6e69506f 	cdpvs	0, 6, cr5, cr9, cr15, {3}
    4b08:	7b29745f 	blvc	a61c8c <_Min_Stack_Size+0xa6188c>
    4b0c:	5458454d 	ldrbpl	r4, [r8], #-1357	@ 0xfffffab3
    4b10:	494c5f49 	stmdbmi	ip, {r0, r3, r6, r8, r9, sl, fp, ip, lr}^
    4b14:	2c39454e 	cfldr32cs	mvfx4, [r9], #-312	@ 0xfffffec8
    4b18:	49504720 	ldmdbmi	r0, {r5, r8, r9, sl, lr}^
    4b1c:	202c424f 	eorcs	r4, ip, pc, asr #4
    4b20:	4950474d 	ldmdbmi	r0, {r0, r2, r3, r6, r8, r9, sl, lr}^
    4b24:	49505f4f 	ldmdbmi	r0, {r0, r1, r2, r3, r6, r8, r9, sl, fp, ip, lr}^
    4b28:	202c394e 	eorcs	r3, ip, lr, asr #18
    4b2c:	49564e4d 	ldmdbmi	r6, {r0, r2, r3, r6, r9, sl, fp, lr}^
    4b30:	58455f43 	stmdapl	r5, {r0, r1, r6, r8, r9, sl, fp, ip, lr}^
    4b34:	5f394954 	svcpl	0x00394954
    4b38:	52495f35 	subpl	r5, r9, #53, 30	@ 0xd4
    4b3c:	5f007d51 	svcpl	0x00007d51
    4b40:	544c465f 	strbpl	r4, [ip], #-1631	@ 0xfffff9a1
    4b44:	445f3233 	ldrbmi	r3, [pc], #-563	@ 4b4c <_Min_Stack_Size+0x474c>
    4b48:	5f5f4749 	svcpl	0x005f4749
    4b4c:	75003620 	strvc	r3, [r0, #-1568]	@ 0xfffff9e0
    4b50:	47746464 	ldrbmi	r6, [r4, -r4, ror #8]!
    4b54:	506f6970 	rsbpl	r6, pc, r0, ror r9	@ <UNPREDICTABLE>
    4b58:	0074726f 	rsbseq	r7, r4, pc, ror #4
    4b5c:	5458454d 	ldrbpl	r4, [r8], #-1357	@ 0xfffffab3
    4b60:	64755f49 	ldrbtvs	r5, [r5], #-3913	@ 0xfffff0b7
    4b64:	6e497464 	cdpvs	4, 4, cr7, cr9, cr4, {3}
    4b68:	45007469 	strmi	r7, [r0, #-1129]	@ 0xfffffb97
    4b6c:	31495458 	cmpcc	r9, r8, asr r4
    4b70:	31435031 	cmpcc	r3, r1, lsr r0
    4b74:	4d282031 	stcmi	0, cr2, [r8, #-196]!	@ 0xffffff3c
    4b78:	49545845 	ldmdbmi	r4, {r0, r2, r6, fp, ip, lr}^
    4b7c:	6464755f 	strbtvs	r7, [r4], #-1375	@ 0xfffffaa1
    4b80:	69704774 	ldmdbvs	r0!, {r2, r4, r5, r6, r8, r9, sl, lr}^
    4b84:	6e69506f 	cdpvs	0, 6, cr5, cr9, cr15, {3}
    4b88:	7b29745f 	blvc	a61d0c <_Min_Stack_Size+0xa6190c>
    4b8c:	5458454d 	ldrbpl	r4, [r8], #-1357	@ 0xfffffab3
    4b90:	494c5f49 	stmdbmi	ip, {r0, r3, r6, r8, r9, sl, fp, ip, lr}^
    4b94:	3131454e 	teqcc	r1, lr, asr #10
    4b98:	5047202c 	subpl	r2, r7, ip, lsr #32
    4b9c:	2c434f49 	mcrrcs	15, 4, r4, r3, cr9
    4ba0:	50474d20 	subpl	r4, r7, r0, lsr #26
    4ba4:	505f4f49 	subspl	r4, pc, r9, asr #30
    4ba8:	31314e49 	teqcc	r1, r9, asr #28
    4bac:	4e4d202c 	cdpmi	0, 4, cr2, cr13, cr12, {1}
    4bb0:	5f434956 	svcpl	0x00434956
    4bb4:	49545845 	ldmdbmi	r4, {r0, r2, r6, fp, ip, lr}^
    4bb8:	315f3531 	cmpcc	pc, r1, lsr r5	@ <UNPREDICTABLE>
    4bbc:	52495f30 	subpl	r5, r9, #48, 30	@ 0xc0
    4bc0:	55007d51 	strpl	r7, [r0, #-3409]	@ 0xfffff2af
    4bc4:	4d544e49 	ldclmi	14, cr4, [r4, #-292]	@ 0xfffffedc
    4bc8:	435f5841 	cmpmi	pc, #4259840	@ 0x410000
    4bcc:	20297828 	eorcs	r7, r9, r8, lsr #16
    4bd0:	49555f5f 	ldmdbmi	r5, {r0, r1, r2, r3, r4, r6, r8, r9, sl, fp, ip, lr}^
    4bd4:	414d544e 	cmpmi	sp, lr, asr #8
    4bd8:	28435f58 	stmdacs	r3, {r3, r4, r6, r8, r9, sl, fp, ip, lr}^
    4bdc:	5f002978 	svcpl	0x00002978
    4be0:	53494d5f 	movtpl	r4, #40287	@ 0x9d5f
    4be4:	49565f43 	ldmdbmi	r6, {r0, r1, r6, r8, r9, sl, fp, ip, lr}^
    4be8:	4c424953 	mcrrmi	9, 5, r4, r2, cr3	@ <UNPREDICTABLE>
    4bec:	00312045 	eorseq	r2, r1, r5, asr #32
    4bf0:	544e4955 	strbpl	r4, [lr], #-2389	@ 0xfffff6ab
    4bf4:	5341465f 	movtpl	r4, #5727	@ 0x165f
    4bf8:	5f343654 	svcpl	0x00343654
    4bfc:	2058414d 	subscs	r4, r8, sp, asr #2
    4c00:	555f5f28 	ldrbpl	r5, [pc, #-3880]	@ 3ce0 <_Min_Stack_Size+0x38e0>
    4c04:	5f544e49 	svcpl	0x00544e49
    4c08:	54534146 	ldrbpl	r4, [r3], #-326	@ 0xfffffeba
    4c0c:	4d5f3436 	cfldrdmi	mvd3, [pc, #-216]	@ 4b3c <_Min_Stack_Size+0x473c>
    4c10:	5f5f5841 	svcpl	0x005f5841
    4c14:	57530029 	ldrbpl	r0, [r3, -r9, lsr #32]
    4c18:	00524549 	subseq	r4, r2, r9, asr #10
    4c1c:	41485f5f 	cmpmi	r8, pc, asr pc
    4c20:	535f4556 	cmppl	pc, #360710144	@ 0x15800000
    4c24:	55434550 	strbpl	r4, [r3, #-1360]	@ 0xfffffab0
    4c28:	4954414c 	ldmdbmi	r4, {r2, r3, r6, r8, lr}^
    4c2c:	535f4e4f 	cmppl	pc, #1264	@ 0x4f0
    4c30:	5f454641 	svcpl	0x00454641
    4c34:	554c4156 	strbpl	r4, [ip, #-342]	@ 0xfffffeaa
    4c38:	00312045 	eorseq	r2, r1, r5, asr #32
    4c3c:	41535f5f 	cmpmi	r3, pc, asr pc
    4c40:	4d554343 	ldclmi	3, cr4, [r5, #-268]	@ 0xfffffef4
    4c44:	4942465f 	stmdbmi	r2, {r0, r1, r2, r3, r4, r6, r9, sl, lr}^
    4c48:	205f5f54 	subscs	r5, pc, r4, asr pc	@ <UNPREDICTABLE>
    4c4c:	5f5f0037 	svcpl	0x005f0037
    4c50:	5f434347 	svcpl	0x00434347
    4c54:	45564148 	ldrbmi	r4, [r6, #-328]	@ 0xfffffeb8
    4c58:	4e59535f 	mrcmi	3, 2, r5, cr9, cr15, {2}
    4c5c:	4f435f43 	svcmi	0x00435f43
    4c60:	5241504d 	subpl	r5, r1, #77	@ 0x4d
    4c64:	4e415f45 	cdpmi	15, 4, cr5, cr1, cr5, {2}
    4c68:	57535f44 	ldrbpl	r5, [r3, -r4, asr #30]
    4c6c:	345f5041 	ldrbcc	r5, [pc], #-65	@ 4c74 <_Min_Stack_Size+0x4874>
    4c70:	49003120 	stmdbmi	r0, {r5, r8, ip, sp}
    4c74:	535f4332 	cmppl	pc, #-939524096	@ 0xc8000000
    4c78:	535f3252 	cmppl	pc, #536870917	@ 0x20000005
    4c7c:	4544424d 	strbmi	r4, [r4, #-589]	@ 0xfffffdb3
    4c80:	4c554146 	ldfmie	f4, [r5], {70}	@ 0x46
    4c84:	734d5f54 	movtvc	r5, #57172	@ 0xdf54
    4c88:	3028206b 	eorcc	r2, r8, fp, rrx
    4c8c:	4c553178 	ldfmie	f3, [r5], {120}	@ 0x78
    4c90:	203c3c20 	eorscs	r3, ip, r0, lsr #24
    4c94:	5f433249 	svcpl	0x00433249
    4c98:	5f325253 	svcpl	0x00325253
    4c9c:	44424d53 	strbmi	r4, [r2], #-3411	@ 0xfffff2ad
    4ca0:	55414645 	strbpl	r4, [r1, #-1605]	@ 0xfffff9bb
    4ca4:	505f544c 	subspl	r5, pc, ip, asr #8
    4ca8:	0029736f 	eoreq	r7, r9, pc, ror #6
    4cac:	5f474f54 	svcpl	0x00474f54
    4cb0:	5f4c4c41 	svcpl	0x004c4c41
    4cb4:	53544942 	cmppl	r4, #1081344	@ 0x108000
    4cb8:	47455228 	strbmi	r5, [r5, -r8, lsr #4]
    4cbc:	52282029 	eorpl	r2, r8, #41	@ 0x29
    4cc0:	20294745 	eorcs	r4, r9, r5, asr #14
    4cc4:	28203d5e 	stmdacs	r0!, {r1, r2, r3, r4, r6, r8, sl, fp, ip, sp}
    4cc8:	46467830 			@ <UNDEFINED> instruction: 0x46467830
    4ccc:	46464646 	strbmi	r4, [r6], -r6, asr #12
    4cd0:	00294646 	eoreq	r4, r9, r6, asr #12
    4cd4:	43415f5f 	movtmi	r5, #8031	@ 0x1f5f
    4cd8:	5f4d5543 	svcpl	0x004d5543
    4cdc:	5f4e494d 	svcpl	0x004e494d
    4ce0:	2d28205f 	stccs	0, cr2, [r8, #-380]!	@ 0xfffffe84
    4ce4:	50315830 	eorspl	r5, r1, r0, lsr r8
    4ce8:	2d4b3531 	cfstr64cs	mvdx3, [fp, #-196]	@ 0xffffff3c
    4cec:	50315830 	eorspl	r5, r1, r0, lsr r8
    4cf0:	294b3531 	stmdbcs	fp, {r0, r4, r5, r8, sl, ip, sp}^
    4cf4:	64647500 	strbtvs	r7, [r4], #-1280	@ 0xfffffb00
    4cf8:	6e695074 	mcrvs	0, 3, r5, cr9, cr4, {3}
    4cfc:	61746144 	cmnvs	r4, r4, asr #2
    4d00:	415f5f00 	cmpmi	pc, r0, lsl #30
    4d04:	465f4d52 			@ <UNDEFINED> instruction: 0x465f4d52
    4d08:	55544145 	ldrbpl	r4, [r4, #-325]	@ 0xfffffebb
    4d0c:	435f4552 	cmpmi	pc, #343932928	@ 0x14800000
    4d10:	54505952 	ldrbpl	r5, [r0], #-2386	@ 0xfffff6ae
    4d14:	5f5f004f 	svcpl	0x005f004f
    4d18:	5f544e49 	svcpl	0x00544e49
    4d1c:	5341454c 	movtpl	r4, #5452	@ 0x154c
    4d20:	5f323354 	svcpl	0x00323354
    4d24:	45505954 	ldrbmi	r5, [r0, #-2388]	@ 0xfffff6ac
    4d28:	6c205f5f 	stcvs	15, cr5, [r0], #-380	@ 0xfffffe84
    4d2c:	20676e6f 	rsbcs	r6, r7, pc, ror #28
    4d30:	00746e69 	rsbseq	r6, r4, r9, ror #28
    4d34:	49564e4d 	ldmdbmi	r6, {r0, r2, r3, r6, r9, sl, fp, lr}^
    4d38:	58455f43 	stmdapl	r5, {r0, r1, r6, r8, r9, sl, fp, ip, lr}^
    4d3c:	5f334954 	svcpl	0x00334954
    4d40:	20515249 	subscs	r5, r1, r9, asr #4
    4d44:	32490039 	subcc	r0, r9, #57	@ 0x39
    4d48:	52435f43 	subpl	r5, r3, #268	@ 0x10c
    4d4c:	57535f31 	smmlarpl	r3, r1, pc, r5	@ <UNPREDICTABLE>
    4d50:	5f545352 	svcpl	0x00545352
    4d54:	20736f50 	rsbscs	r6, r3, r0, asr pc
    4d58:	55353128 	ldrpl	r3, [r5, #-296]!	@ 0xfffffed8
    4d5c:	5f5f0029 	svcpl	0x005f0029
    4d60:	544e4955 	strbpl	r4, [lr], #-2389	@ 0xfffff6ab
    4d64:	41454c5f 	cmpmi	r5, pc, asr ip
    4d68:	34365453 	ldrtcc	r5, [r6], #-1107	@ 0xfffffbad
    4d6c:	58414d5f 	stmdapl	r1, {r0, r1, r2, r3, r4, r6, r8, sl, fp, lr}^
    4d70:	30205f5f 	eorcc	r5, r0, pc, asr pc
    4d74:	66666678 			@ <UNDEFINED> instruction: 0x66666678
    4d78:	66666666 	strbtvs	r6, [r6], -r6, ror #12
    4d7c:	66666666 	strbtvs	r6, [r6], -r6, ror #12
    4d80:	66666666 	strbtvs	r6, [r6], -r6, ror #12
    4d84:	4c4c5566 	cfstr64mi	mvdx5, [ip], {102}	@ 0x66
    4d88:	564e4d00 	strbpl	r4, [lr], -r0, lsl #26
    4d8c:	525f4349 	subspl	r4, pc, #603979777	@ 0x24000001
    4d90:	495f4354 	ldmdbmi	pc, {r2, r4, r6, r8, r9, lr}^	@ <UNPREDICTABLE>
    4d94:	33205152 			@ <UNDEFINED> instruction: 0x33205152
    4d98:	465f5f00 	ldrbmi	r5, [pc], -r0, lsl #30
    4d9c:	54434152 	strbpl	r4, [r3], #-338	@ 0xfffffeae
    4da0:	4942495f 	stmdbmi	r2, {r0, r1, r2, r3, r4, r6, r8, fp, lr}^
    4da4:	205f5f54 	subscs	r5, pc, r4, asr pc	@ <UNPREDICTABLE>
    4da8:	5f5f0030 	svcpl	0x005f0030
    4dac:	4d4f5441 	cfstrdmi	mvd5, [pc, #-260]	@ 4cb0 <_Min_Stack_Size+0x48b0>
    4db0:	415f4349 	cmpmi	pc, r9, asr #6
    4db4:	49555143 	ldmdbmi	r5, {r0, r1, r6, r8, ip, lr}^
    4db8:	32204552 	eorcc	r4, r0, #343932928	@ 0x14800000
    4dbc:	465f5f00 	ldrbmi	r5, [pc], -r0, lsl #30
    4dc0:	3436544c 	ldrtcc	r5, [r6], #-1100	@ 0xfffffbb4
    4dc4:	5f53495f 	svcpl	0x0053495f
    4dc8:	5f434549 	svcpl	0x00434549
    4dcc:	35353036 	ldrcc	r3, [r5, #-54]!	@ 0xffffffca
    4dd0:	205f5f39 	subscs	r5, pc, r9, lsr pc	@ <UNPREDICTABLE>
    4dd4:	5f5f0032 	svcpl	0x005f0032
    4dd8:	4c57454e 	cfldr64mi	mvdx4, [r7], {78}	@ 0x4e
    4ddc:	505f4249 	subspl	r4, pc, r9, asr #4
    4de0:	48435441 	stmdami	r3, {r0, r6, sl, ip, lr}^
    4de4:	4556454c 	ldrbmi	r4, [r6, #-1356]	@ 0xfffffab4
    4de8:	205f5f4c 	subscs	r5, pc, ip, asr #30
    4dec:	32490030 	subcc	r0, r9, #48	@ 0x30
    4df0:	52535f43 	subspl	r5, r3, #268	@ 0x10c
    4df4:	564f5f31 			@ <UNDEFINED> instruction: 0x564f5f31
    4df8:	32492052 	subcc	r2, r9, #82	@ 0x52
    4dfc:	52535f43 	subspl	r5, r3, #268	@ 0x10c
    4e00:	564f5f31 			@ <UNDEFINED> instruction: 0x564f5f31
    4e04:	734d5f52 	movtvc	r5, #57170	@ 0xdf52
    4e08:	5f5f006b 	svcpl	0x005f006b
    4e0c:	4544524f 	strbmi	r5, [r4, #-591]	@ 0xfffffdb1
    4e10:	494c5f52 	stmdbmi	ip, {r1, r4, r6, r8, r9, sl, fp, ip, lr}^
    4e14:	454c5454 	strbmi	r5, [ip, #-1108]	@ 0xfffffbac
    4e18:	444e455f 	strbmi	r4, [lr], #-1375	@ 0xfffffaa1
    4e1c:	5f4e4149 	svcpl	0x004e4149
    4e20:	3231205f 	eorscc	r2, r1, #95	@ 0x5f
    4e24:	49003433 	stmdbmi	r0, {r0, r1, r4, r5, sl, ip, sp}
    4e28:	61435152 	cmpvs	r3, r2, asr r1
    4e2c:	61626c6c 	cmnvs	r2, ip, ror #24
    4e30:	5f006b63 	svcpl	0x00006b63
    4e34:	544c465f 	strbpl	r4, [ip], #-1631	@ 0xfffff9a1
    4e38:	524f4e5f 	subpl	r4, pc, #1520	@ 0x5f0
    4e3c:	414d5f4d 	cmpmi	sp, sp, asr #30
    4e40:	205f5f58 	subscs	r5, pc, r8, asr pc	@ <UNPREDICTABLE>
    4e44:	30342e33 	eorscc	r2, r4, r3, lsr lr
    4e48:	33323832 	teqcc	r2, #3276800	@ 0x320000
    4e4c:	33363634 	teqcc	r6, #52, 12	@ 0x3400000
    4e50:	38323538 	ldmdacc	r2!, {r3, r4, r5, r8, sl, ip, sp}
    4e54:	2b653638 	blcs	195273c <_Min_Stack_Size+0x195233c>
    4e58:	00463833 	subeq	r3, r6, r3, lsr r8
    4e5c:	5f524c43 	svcpl	0x00524c43
    4e60:	5f4c4c41 	svcpl	0x004c4c41
    4e64:	53544942 	cmppl	r4, #1081344	@ 0x108000
    4e68:	47455228 	strbmi	r5, [r5, -r8, lsr #4]
    4e6c:	52282029 	eorpl	r2, r8, #41	@ 0x29
    4e70:	20294745 	eorcs	r4, r9, r5, asr #14
    4e74:	3028203d 	eorcc	r2, r8, sp, lsr r0
    4e78:	30303078 	eorscc	r3, r0, r8, ror r0
    4e7c:	30303030 	eorscc	r3, r0, r0, lsr r0
    4e80:	49002930 	stmdbmi	r0, {r4, r5, r8, fp, sp}
    4e84:	535f4332 	cmppl	pc, #-939524096	@ 0xc8000000
    4e88:	4f5f3152 	svcmi	0x005f3152
    4e8c:	505f5256 	subspl	r5, pc, r6, asr r2	@ <UNPREDICTABLE>
    4e90:	2820736f 	stmdacs	r0!, {r0, r1, r2, r3, r5, r6, r8, r9, ip, sp, lr}
    4e94:	29553131 	ldmdbcs	r5, {r0, r4, r5, r8, ip, sp}^
    4e98:	4e495500 	cdpmi	5, 4, cr5, cr9, cr0, {0}
    4e9c:	454c5f54 	strbmi	r5, [ip, #-3924]	@ 0xfffff0ac
    4ea0:	36545341 	ldrbcc	r5, [r4], -r1, asr #6
    4ea4:	414d5f34 	cmpmi	sp, r4, lsr pc
    4ea8:	5f282058 	svcpl	0x00282058
    4eac:	4e49555f 	mcrmi	5, 2, r5, cr9, cr15, {2}
    4eb0:	454c5f54 	strbmi	r5, [ip, #-3924]	@ 0xfffff0ac
    4eb4:	36545341 	ldrbcc	r5, [r4], -r1, asr #6
    4eb8:	414d5f34 	cmpmi	sp, r4, lsr pc
    4ebc:	295f5f58 	ldmdbcs	pc, {r3, r4, r6, r8, r9, sl, fp, ip, lr}^	@ <UNPREDICTABLE>
    4ec0:	465f5f00 	ldrbmi	r5, [pc], -r0, lsl #30
    4ec4:	4d5f544c 	cfldrdmi	mvd5, [pc, #-304]	@ 4d9c <_Min_Stack_Size+0x499c>
    4ec8:	315f4e49 	cmpcc	pc, r9, asr #28
    4ecc:	58455f30 	stmdapl	r5, {r4, r5, r8, r9, sl, fp, ip, lr}^
    4ed0:	205f5f50 	subscs	r5, pc, r0, asr pc	@ <UNPREDICTABLE>
    4ed4:	37332d28 	ldrcc	r2, [r3, -r8, lsr #26]!
    4ed8:	41550029 	cmpmi	r5, r9, lsr #32
    4edc:	4f5f4950 	svcmi	0x005f4950
    4ee0:	5f5f004b 	svcpl	0x005f004b
    4ee4:	43414c55 	movtmi	r4, #7253	@ 0x1c55
    4ee8:	5f4d5543 	svcpl	0x004d5543
    4eec:	54494249 	strbpl	r4, [r9], #-585	@ 0xfffffdb7
    4ef0:	33205f5f 			@ <UNDEFINED> instruction: 0x33205f5f
    4ef4:	5f5f0032 	svcpl	0x005f0032
    4ef8:	54524853 	ldrbpl	r4, [r2], #-2131	@ 0xfffff7ad
    4efc:	58414d5f 	stmdapl	r1, {r0, r1, r2, r3, r4, r6, r8, sl, fp, lr}^
    4f00:	30205f5f 	eorcc	r5, r0, pc, asr pc
    4f04:	66663778 			@ <UNDEFINED> instruction: 0x66663778
    4f08:	5f5f0066 	svcpl	0x005f0066
    4f0c:	4c42444c 	cfstrdmi	mvd4, [r2], {76}	@ 0x4c
    4f10:	5f53495f 	svcpl	0x0053495f
    4f14:	5f434549 	svcpl	0x00434549
    4f18:	35353036 	ldrcc	r3, [r5, #-54]!	@ 0xffffffca
    4f1c:	205f5f39 	subscs	r5, pc, r9, lsr pc	@ <UNPREDICTABLE>
    4f20:	5f5f0032 	svcpl	0x005f0032
    4f24:	414c4c55 	cmpmi	ip, r5, asr ip
    4f28:	4d554343 	ldclmi	3, cr4, [r5, #-268]	@ 0xfffffef4
    4f2c:	5350455f 	cmppl	r0, #398458880	@ 0x17c00000
    4f30:	4e4f4c49 	cdpmi	12, 4, cr4, cr15, cr9, {2}
    4f34:	30205f5f 	eorcc	r5, r0, pc, asr pc
    4f38:	2d503178 	ldfcse	f3, [r0, #-480]	@ 0xfffffe20
    4f3c:	4c553233 	lfmmi	f3, 2, [r5], {51}	@ 0x33
    4f40:	4d004b4c 	vstrmi	d4, [r0, #-304]	@ 0xfffffed0
    4f44:	4f495047 	svcmi	0x00495047
    4f48:	4d30355f 	cfldr32mi	mvfx3, [r0, #-380]!	@ 0xfffffe84
    4f4c:	535f5a48 	cmppl	pc, #72, 20	@ 0x48000
    4f50:	44454550 	strbmi	r4, [r5], #-1360	@ 0xfffffab0
    4f54:	575f5f00 	ldrbpl	r5, [pc, -r0, lsl #30]
    4f58:	5f544e49 	svcpl	0x00544e49
    4f5c:	5f58414d 	svcpl	0x0058414d
    4f60:	7830205f 	ldmdavc	r0!, {r0, r1, r2, r3, r4, r6, sp}
    4f64:	66666666 	strbtvs	r6, [r6], -r6, ror #12
    4f68:	66666666 	strbtvs	r6, [r6], -r6, ror #12
    4f6c:	474d0055 	smlsldmi	r0, sp, r5, r0
    4f70:	5f4f4950 	svcpl	0x004f4950
    4f74:	5054554f 	subspl	r5, r4, pc, asr #10
    4f78:	415f5455 	cmpmi	pc, r5, asr r4	@ <UNPREDICTABLE>
    4f7c:	50505f46 	subspl	r5, r0, r6, asr #30
    4f80:	444f4d5f 	strbmi	r4, [pc], #-3423	@ 4f88 <_Min_Stack_Size+0x4b88>
    4f84:	5f5f0045 	svcpl	0x005f0045
    4f88:	5f554e47 	svcpl	0x00554e47
    4f8c:	49534956 	ldmdbmi	r3, {r1, r2, r4, r6, r8, fp, lr}^
    4f90:	20454c42 	subcs	r4, r5, r2, asr #24
    4f94:	454d0030 	strbmi	r0, [sp, #-48]	@ 0xffffffd0
    4f98:	5f495458 	svcpl	0x00495458
    4f9c:	454e494c 	strbmi	r4, [lr, #-2380]	@ 0xfffff6b4
    4fa0:	5f003031 	svcpl	0x00003031
    4fa4:	4341535f 	movtmi	r5, #4959	@ 0x135f
    4fa8:	5f4d5543 	svcpl	0x004d5543
    4fac:	54494249 	strbpl	r4, [r9], #-585	@ 0xfffffdb7
    4fb0:	38205f5f 	stmdacc	r0!, {r0, r1, r2, r3, r4, r6, r8, r9, sl, fp, ip, lr}
    4fb4:	445f5f00 	ldrbmi	r5, [pc], #-3840	@ 4fbc <_Min_Stack_Size+0x4bbc>
    4fb8:	42465f51 	submi	r5, r6, #324	@ 0x144
    4fbc:	5f5f5449 	svcpl	0x005f5449
    4fc0:	00333620 	eorseq	r3, r3, r0, lsr #12
    4fc4:	4950474d 	ldmdbmi	r0, {r0, r2, r3, r6, r8, r9, sl, lr}^
    4fc8:	49505f4f 	ldmdbmi	r0, {r0, r1, r2, r3, r6, r8, r9, sl, fp, ip, lr}^
    4fcc:	0031314e 	eorseq	r3, r1, lr, asr #2
    4fd0:	4950474d 	ldmdbmi	r0, {r0, r2, r3, r6, r8, r9, sl, lr}^
    4fd4:	49505f4f 	ldmdbmi	r0, {r0, r1, r2, r3, r6, r8, r9, sl, fp, ip, lr}^
    4fd8:	0032314e 	eorseq	r3, r2, lr, asr #2
    4fdc:	48555f5f 	ldmdami	r5, {r0, r1, r2, r3, r4, r6, r8, r9, sl, fp, ip, lr}^
    4fe0:	42495f51 	submi	r5, r9, #324	@ 0x144
    4fe4:	5f5f5449 	svcpl	0x005f5449
    4fe8:	4d003020 	stcmi	0, cr3, [r0, #-128]	@ 0xffffff80
    4fec:	4f495047 	svcmi	0x00495047
    4ff0:	4e49505f 	mcrmi	0, 2, r5, cr9, cr15, {2}
    4ff4:	4d003431 	cfstrsmi	mvf3, [r0, #-196]	@ 0xffffff3c
    4ff8:	4f495047 	svcmi	0x00495047
    4ffc:	4e49505f 	mcrmi	0, 2, r5, cr9, cr15, {2}
    5000:	49003531 	stmdbmi	r0, {r0, r4, r5, r8, sl, ip, sp}
    5004:	535f4332 	cmppl	pc, #-939524096	@ 0xc8000000
    5008:	475f3252 			@ <UNDEFINED> instruction: 0x475f3252
    500c:	41434e45 	cmpmi	r3, r5, asr #28
    5010:	49204c4c 	stmdbmi	r0!, {r2, r3, r6, sl, fp, lr}
    5014:	535f4332 	cmppl	pc, #-939524096	@ 0xc8000000
    5018:	475f3252 			@ <UNDEFINED> instruction: 0x475f3252
    501c:	41434e45 	cmpmi	r3, r5, asr #28
    5020:	4d5f4c4c 	ldclmi	12, cr4, [pc, #-304]	@ 4ef8 <_Min_Stack_Size+0x4af8>
    5024:	5f006b73 	svcpl	0x00006b73
    5028:	544e495f 	strbpl	r4, [lr], #-2399	@ 0xfffff6a1
    502c:	5341465f 	movtpl	r4, #5727	@ 0x165f
    5030:	5f363154 	svcpl	0x00363154
    5034:	45505954 	ldrbmi	r5, [r0, #-2388]	@ 0xfffff6ac
    5038:	69205f5f 	stmdbvs	r0!, {r0, r1, r2, r3, r4, r6, r8, r9, sl, fp, ip, lr}
    503c:	5f00746e 	svcpl	0x0000746e
    5040:	4341535f 	movtmi	r5, #4959	@ 0x135f
    5044:	5f4d5543 	svcpl	0x004d5543
    5048:	5f4e494d 	svcpl	0x004e494d
    504c:	2d28205f 	stccs	0, cr2, [r8, #-380]!	@ 0xfffffe84
    5050:	50315830 	eorspl	r5, r1, r0, lsr r8
    5054:	2d4b4837 	stclcs	8, cr4, [fp, #-220]	@ 0xffffff24
    5058:	50315830 	eorspl	r5, r1, r0, lsr r8
    505c:	294b4837 	stmdbcs	fp, {r0, r1, r2, r4, r5, fp, lr}^
    5060:	555f5f00 	ldrbpl	r5, [pc, #-3840]	@ 4168 <_Min_Stack_Size+0x3d68>
    5064:	4152464c 	cmpmi	r2, ip, asr #12
    5068:	4d5f5443 	cfldrdmi	mvd5, [pc, #-268]	@ 4f64 <_Min_Stack_Size+0x4b64>
    506c:	5f5f5841 	svcpl	0x005f5841
    5070:	46583020 	ldrbmi	r3, [r8], -r0, lsr #32
    5074:	46464646 	strbmi	r4, [r6], -r6, asr #12
    5078:	50464646 	subpl	r4, r6, r6, asr #12
    507c:	5532332d 	ldrpl	r3, [r2, #-813]!	@ 0xfffffcd3
    5080:	5f00524c 	svcpl	0x0000524c
    5084:	4e49555f 	mcrmi	5, 2, r5, cr9, cr15, {2}
    5088:	454c5f54 	strbmi	r5, [ip, #-3924]	@ 0xfffff0ac
    508c:	31545341 	cmpcc	r4, r1, asr #6
    5090:	59545f36 	ldmdbpl	r4, {r1, r2, r4, r5, r8, r9, sl, fp, ip, lr}^
    5094:	5f5f4550 	svcpl	0x005f4550
    5098:	6f687320 	svcvs	0x00687320
    509c:	75207472 	strvc	r7, [r0, #-1138]!	@ 0xfffffb8e
    50a0:	6769736e 	strbvs	r7, [r9, -lr, ror #6]!
    50a4:	2064656e 	rsbcs	r6, r4, lr, ror #10
    50a8:	00746e69 	rsbseq	r6, r4, r9, ror #28
    50ac:	52415f5f 	subpl	r5, r1, #380	@ 0x17c
    50b0:	45465f4d 	strbmi	r5, [r6, #-3917]	@ 0xfffff0b3
    50b4:	52555441 	subspl	r5, r5, #1090519040	@ 0x41000000
    50b8:	4d465f45 	stclmi	15, cr5, [r6, #-276]	@ 0xfffffeec
    50bc:	5f5f0041 	svcpl	0x005f0041
    50c0:	4343414c 	movtmi	r4, #12620	@ 0x314c
    50c4:	4d5f4d55 	ldclmi	13, cr4, [pc, #-340]	@ 4f78 <_Min_Stack_Size+0x4b78>
    50c8:	5f5f5841 	svcpl	0x005f5841
    50cc:	37583020 	ldrbcc	r3, [r8, -r0, lsr #32]
    50d0:	46464646 	strbmi	r4, [r6], -r6, asr #12
    50d4:	46464646 	strbmi	r4, [r6], -r6, asr #12
    50d8:	46464646 	strbmi	r4, [r6], -r6, asr #12
    50dc:	50464646 	subpl	r4, r6, r6, asr #12
    50e0:	4c31332d 	ldcmi	3, cr3, [r1], #-180	@ 0xffffff4c
    50e4:	5f5f004b 	svcpl	0x005f004b
    50e8:	52414843 	subpl	r4, r1, #4390912	@ 0x430000
    50ec:	545f3631 	ldrbpl	r3, [pc], #-1585	@ 50f4 <_Min_Stack_Size+0x4cf4>
    50f0:	5f455059 	svcpl	0x00455059
    50f4:	6873205f 	ldmdavs	r3!, {r0, r1, r2, r3, r4, r6, sp}^
    50f8:	2074726f 	rsbscs	r7, r4, pc, ror #4
    50fc:	69736e75 	ldmdbvs	r3!, {r0, r2, r4, r5, r6, r9, sl, fp, sp, lr}^
    5100:	64656e67 	strbtvs	r6, [r5], #-3687	@ 0xfffff199
    5104:	746e6920 	strbtvc	r6, [lr], #-2336	@ 0xfffff6e0
    5108:	465f5f00 	ldrbmi	r5, [pc], -r0, lsl #30
    510c:	3233544c 	eorscc	r5, r3, #76, 8	@ 0x4c000000
    5110:	49445f58 	stmdbmi	r4, {r3, r4, r6, r8, r9, sl, fp, ip, lr}^
    5114:	205f5f47 	subscs	r5, pc, r7, asr #30
    5118:	4d003531 	cfstr32mi	mvfx3, [r0, #-196]	@ 0xffffff3c
    511c:	4f495047 	svcmi	0x00495047
    5120:	4e49505f 	mcrmi	0, 2, r5, cr9, cr15, {2}
    5124:	45003031 	strmi	r3, [r0, #-49]	@ 0xffffffcf
    5128:	78495458 	stmdavc	r9, {r3, r4, r6, sl, ip, lr}^
    512c:	555f5f00 	ldrbpl	r5, [pc, #-3840]	@ 4234 <_Min_Stack_Size+0x3e34>
    5130:	465f5154 			@ <UNDEFINED> instruction: 0x465f5154
    5134:	5f544942 	svcpl	0x00544942
    5138:	3231205f 	eorscc	r2, r1, #95	@ 0x5f
    513c:	32490038 	subcc	r0, r9, #56	@ 0x38
    5140:	52435f43 	subpl	r5, r3, #268	@ 0x10c
    5144:	4f4e5f31 	svcmi	0x004e5f31
    5148:	45525453 	ldrbmi	r5, [r2, #-1107]	@ 0xfffffbad
    514c:	5f484354 	svcpl	0x00484354
    5150:	206b734d 	rsbcs	r7, fp, sp, asr #6
    5154:	31783028 	cmncc	r8, r8, lsr #32
    5158:	3c204c55 	stccc	12, cr4, [r0], #-340	@ 0xfffffeac
    515c:	3249203c 	subcc	r2, r9, #60	@ 0x3c
    5160:	52435f43 	subpl	r5, r3, #268	@ 0x10c
    5164:	4f4e5f31 	svcmi	0x004e5f31
    5168:	45525453 	ldrbmi	r5, [r2, #-1107]	@ 0xfffffbad
    516c:	5f484354 	svcpl	0x00484354
    5170:	29736f50 	ldmdbcs	r3!, {r4, r6, r8, r9, sl, fp, sp, lr}^
    5174:	43324900 	teqmi	r2, #0, 18
    5178:	3152435f 	cmpcc	r2, pc, asr r3
    517c:	474e455f 	smlsldmi	r4, lr, pc, r5	@ <UNPREDICTABLE>
    5180:	734d5f43 	movtvc	r5, #57155	@ 0xdf43
    5184:	3028206b 	eorcc	r2, r8, fp, rrx
    5188:	4c553178 	ldfmie	f3, [r5], {120}	@ 0x78
    518c:	203c3c20 	eorscs	r3, ip, r0, lsr #24
    5190:	5f433249 	svcpl	0x00433249
    5194:	5f315243 	svcpl	0x00315243
    5198:	43474e45 	movtmi	r4, #32325	@ 0x7e45
    519c:	736f505f 	cmnvc	pc, #95	@ 0x5f
    51a0:	474d0029 	strbmi	r0, [sp, -r9, lsr #32]
    51a4:	5f4f4950 	svcpl	0x004f4950
    51a8:	314e4950 	cmpcc	lr, r0, asr r9
    51ac:	32490033 	subcc	r0, r9, #51	@ 0x33
    51b0:	52535f43 	subspl	r5, r3, #268	@ 0x10c
    51b4:	58525f31 	ldmdapl	r2, {r0, r4, r5, r8, r9, sl, fp, ip, lr}^
    51b8:	4d5f454e 	cfldr64mi	mvdx4, [pc, #-312]	@ 5088 <_Min_Stack_Size+0x4c88>
    51bc:	28206b73 	stmdacs	r0!, {r0, r1, r4, r5, r6, r8, r9, fp, sp, lr}
    51c0:	55317830 	ldrpl	r7, [r1, #-2096]!	@ 0xfffff7d0
    51c4:	3c3c204c 	ldccc	0, cr2, [ip], #-304	@ 0xfffffed0
    51c8:	43324920 	teqmi	r2, #32, 18	@ 0x80000
    51cc:	3152535f 	cmpcc	r2, pc, asr r3
    51d0:	4e58525f 	mrcmi	2, 2, r5, cr8, cr15, {2}
    51d4:	6f505f45 	svcvs	0x00505f45
    51d8:	55002973 	strpl	r2, [r0, #-2419]	@ 0xfffff68d
    51dc:	5f544e49 	svcpl	0x00544e49
    51e0:	5341454c 	movtpl	r4, #5452	@ 0x154c
    51e4:	5f363154 	svcpl	0x00363154
    51e8:	2058414d 	subscs	r4, r8, sp, asr #2
    51ec:	555f5f28 	ldrbpl	r5, [pc, #-3880]	@ 42cc <_Min_Stack_Size+0x3ecc>
    51f0:	5f544e49 	svcpl	0x00544e49
    51f4:	5341454c 	movtpl	r4, #5452	@ 0x154c
    51f8:	5f363154 	svcpl	0x00363154
    51fc:	5f58414d 	svcpl	0x0058414d
    5200:	5f00295f 	svcpl	0x0000295f
    5204:	544e495f 	strbpl	r4, [lr], #-2399	@ 0xfffff6a1
    5208:	5341465f 	movtpl	r4, #5727	@ 0x165f
    520c:	5f363154 	svcpl	0x00363154
    5210:	5f58414d 	svcpl	0x0058414d
    5214:	7830205f 	ldmdavc	r0!, {r0, r1, r2, r3, r4, r6, sp}
    5218:	66666637 			@ <UNDEFINED> instruction: 0x66666637
    521c:	66666666 	strbtvs	r6, [r6], -r6, ror #12
    5220:	685f5f00 	ldmdavs	pc, {r8, r9, sl, fp, ip, lr}^	@ <UNPREDICTABLE>
    5224:	5f657661 	svcpl	0x00657661
    5228:	676e6f6c 	strbvs	r6, [lr, -ip, ror #30]!
    522c:	676e6f6c 	strbvs	r6, [lr, -ip, ror #30]!
    5230:	31203436 			@ <UNDEFINED> instruction: 0x31203436
    5234:	50414d00 	subpl	r4, r1, r0, lsl #26
    5238:	32490052 	subcc	r0, r9, #82	@ 0x52
    523c:	52435f43 	subpl	r5, r3, #268	@ 0x10c
    5240:	4e455f31 	mcrmi	15, 2, r5, cr5, cr1, {1}
    5244:	20505241 	subscs	r5, r0, r1, asr #4
    5248:	5f433249 	svcpl	0x00433249
    524c:	5f315243 	svcpl	0x00315243
    5250:	52414e45 	subpl	r4, r1, #1104	@ 0x450
    5254:	734d5f50 	movtvc	r5, #57168	@ 0xdf50
    5258:	555f006b 	ldrbpl	r0, [pc, #-107]	@ 51f5 <_Min_Stack_Size+0x4df5>
    525c:	50544e49 	subspl	r4, r4, r9, asr #28
    5260:	545f5254 	ldrbpl	r5, [pc], #-596	@ 5268 <_Min_Stack_Size+0x4e68>
    5264:	4345445f 	movtmi	r4, #21599	@ 0x545f
    5268:	4552414c 	ldrbmi	r4, [r2, #-332]	@ 0xfffffeb4
    526c:	45002044 	strmi	r2, [r0, #-68]	@ 0xffffffbc
    5270:	31495458 	cmpcc	r9, r8, asr r4
    5274:	31415031 	cmpcc	r1, r1, lsr r0
    5278:	4d282031 	stcmi	0, cr2, [r8, #-196]!	@ 0xffffff3c
    527c:	49545845 	ldmdbmi	r4, {r0, r2, r6, fp, ip, lr}^
    5280:	6464755f 	strbtvs	r7, [r4], #-1375	@ 0xfffffaa1
    5284:	69704774 	ldmdbvs	r0!, {r2, r4, r5, r6, r8, r9, sl, lr}^
    5288:	6e69506f 	cdpvs	0, 6, cr5, cr9, cr15, {3}
    528c:	7b29745f 	blvc	a62410 <_Min_Stack_Size+0xa62010>
    5290:	5458454d 	ldrbpl	r4, [r8], #-1357	@ 0xfffffab3
    5294:	494c5f49 	stmdbmi	ip, {r0, r3, r6, r8, r9, sl, fp, ip, lr}^
    5298:	3131454e 	teqcc	r1, lr, asr #10
    529c:	5047202c 	subpl	r2, r7, ip, lsr #32
    52a0:	2c414f49 	mcrrcs	15, 4, r4, r1, cr9
    52a4:	50474d20 	subpl	r4, r7, r0, lsr #26
    52a8:	505f4f49 	subspl	r4, pc, r9, asr #30
    52ac:	31314e49 	teqcc	r1, r9, asr #28
    52b0:	4e4d202c 	cdpmi	0, 4, cr2, cr13, cr12, {1}
    52b4:	5f434956 	svcpl	0x00434956
    52b8:	49545845 	ldmdbmi	r4, {r0, r2, r6, fp, ip, lr}^
    52bc:	315f3531 	cmpcc	pc, r1, lsr r5	@ <UNPREDICTABLE>
    52c0:	52495f30 	subpl	r5, r9, #48, 30	@ 0xc0
    52c4:	49007d51 	stmdbmi	r0, {r0, r4, r6, r8, sl, fp, ip, sp, lr}
    52c8:	435f4332 	cmpmi	pc, #-939524096	@ 0xc8000000
    52cc:	535f3152 	cmppl	pc, #-2147483628	@ 0x80000014
    52d0:	5954424d 	ldmdbpl	r4, {r0, r2, r3, r6, r9, lr}^
    52d4:	49204550 	stmdbmi	r0!, {r4, r6, r8, sl, lr}
    52d8:	435f4332 	cmpmi	pc, #-939524096	@ 0xc8000000
    52dc:	535f3152 	cmppl	pc, #-2147483628	@ 0x80000014
    52e0:	5954424d 	ldmdbpl	r4, {r0, r2, r3, r6, r9, lr}^
    52e4:	4d5f4550 	cfldr64mi	mvdx4, [pc, #-320]	@ 51ac <_Min_Stack_Size+0x4dac>
    52e8:	4d006b73 	vstrmi	d6, [r0, #-460]	@ 0xfffffe34
    52ec:	4349564e 	movtmi	r5, #38478	@ 0x964e
    52f0:	4253555f 	subsmi	r5, r3, #398458880	@ 0x17c00000
    52f4:	5f50485f 	svcpl	0x0050485f
    52f8:	5f4e4143 	svcpl	0x004e4143
    52fc:	495f5854 	ldmdbmi	pc, {r2, r4, r6, fp, ip, lr}^	@ <UNPREDICTABLE>
    5300:	31205152 			@ <UNDEFINED> instruction: 0x31205152
    5304:	5f5f0039 	svcpl	0x005f0039
    5308:	43414c55 	movtmi	r4, #7253	@ 0x1c55
    530c:	5f4d5543 	svcpl	0x004d5543
    5310:	5f58414d 	svcpl	0x0058414d
    5314:	5830205f 	ldmdapl	r0!, {r0, r1, r2, r3, r4, r6, sp}
    5318:	46464646 	strbmi	r4, [r6], -r6, asr #12
    531c:	46464646 	strbmi	r4, [r6], -r6, asr #12
    5320:	46464646 	strbmi	r4, [r6], -r6, asr #12
    5324:	46464646 	strbmi	r4, [r6], -r6, asr #12
    5328:	32332d50 	eorscc	r2, r3, #80, 26	@ 0x1400
    532c:	004b4c55 	subeq	r4, fp, r5, asr ip
    5330:	5f433249 	svcpl	0x00433249
    5334:	5f325253 	svcpl	0x00325253
    5338:	5f4c534d 	svcpl	0x004c534d
    533c:	206b734d 	rsbcs	r7, fp, sp, asr #6
    5340:	31783028 	cmncc	r8, r8, lsr #32
    5344:	3c204c55 	stccc	12, cr4, [r0], #-340	@ 0xfffffeac
    5348:	3249203c 	subcc	r2, r9, #60	@ 0x3c
    534c:	52535f43 	subspl	r5, r3, #268	@ 0x10c
    5350:	534d5f32 	movtpl	r5, #57138	@ 0xdf32
    5354:	6f505f4c 	svcvs	0x00505f4c
    5358:	49002973 	stmdbmi	r0, {r0, r1, r4, r5, r6, r8, fp, sp}
    535c:	435f4332 	cmpmi	pc, #-939524096	@ 0xc8000000
    5360:	505f3152 	subspl	r3, pc, r2, asr r1	@ <UNPREDICTABLE>
    5364:	6f505f45 	svcvs	0x00505f45
    5368:	30282073 	eorcc	r2, r8, r3, ror r0
    536c:	5f002955 	svcpl	0x00002955
    5370:	464c555f 			@ <UNDEFINED> instruction: 0x464c555f
    5374:	54434152 	strbpl	r4, [r3], #-338	@ 0xfffffeae
    5378:	4e494d5f 	mcrmi	13, 2, r4, cr9, cr15, {2}
    537c:	30205f5f 	eorcc	r5, r0, pc, asr pc
    5380:	4c55302e 	mrrcmi	0, 2, r3, r5, cr14
    5384:	49530052 	ldmdbmi	r3, {r1, r4, r6}^
    5388:	4d5f455a 	cfldr64mi	mvdx4, [pc, #-360]	@ 5228 <_Min_Stack_Size+0x4e28>
    538c:	28205841 	stmdacs	r0!, {r0, r6, fp, ip, lr}
    5390:	49535f5f 	ldmdbmi	r3, {r0, r1, r2, r3, r4, r6, r8, r9, sl, fp, ip, lr}^
    5394:	4d5f455a 	cfldr64mi	mvdx4, [pc, #-360]	@ 5234 <_Min_Stack_Size+0x4e34>
    5398:	5f5f5841 	svcpl	0x005f5841
    539c:	5f5f0029 	svcpl	0x005f0029
    53a0:	495f5144 	ldmdbmi	pc, {r2, r6, r8, ip, lr}^	@ <UNPREDICTABLE>
    53a4:	5f544942 	svcpl	0x00544942
    53a8:	0030205f 	eorseq	r2, r0, pc, asr r0
    53ac:	52415f5f 	subpl	r5, r1, #380	@ 0x17c
    53b0:	46425f4d 	strbmi	r5, [r2], -sp, asr #30
    53b4:	465f3631 			@ <UNDEFINED> instruction: 0x465f3631
    53b8:	414d524f 	cmpmi	sp, pc, asr #4
    53bc:	4c415f54 	mcrrmi	15, 5, r5, r1, cr4
    53c0:	4e524554 	mrcmi	5, 2, r4, cr2, cr4, {2}
    53c4:	56495441 	strbpl	r5, [r9], -r1, asr #8
    53c8:	2e2e0045 	cdpcs	0, 2, cr0, cr14, cr5, {2}
    53cc:	6372532f 	cmnvs	r2, #-1140850688	@ 0xbc000000
    53d0:	41434d2f 	cmpmi	r3, pc, lsr #26
    53d4:	58452f4c 	stmdapl	r5, {r2, r3, r6, r8, r9, sl, fp, sp}^
    53d8:	632e4954 			@ <UNDEFINED> instruction: 0x632e4954
    53dc:	43324900 	teqmi	r2, #0, 18
    53e0:	3152535f 	cmpcc	r2, pc, asr r3
    53e4:	4f54535f 	svcmi	0x0054535f
    53e8:	49204650 	stmdbmi	r0!, {r4, r6, r9, sl, lr}
    53ec:	535f4332 	cmppl	pc, #-939524096	@ 0xc8000000
    53f0:	535f3152 	cmppl	pc, #-2147483628	@ 0x80000014
    53f4:	46504f54 	usaxmi	r4, r0, r4
    53f8:	6b734d5f 	blvs	1cd897c <_Min_Stack_Size+0x1cd857c>
    53fc:	43324900 	teqmi	r2, #0, 18
    5400:	3152435f 	cmpcc	r2, pc, asr r3
    5404:	534f4e5f 	movtpl	r4, #65119	@ 0xfe5f
    5408:	54455254 	strbpl	r5, [r5], #-596	@ 0xfffffdac
    540c:	505f4843 	subspl	r4, pc, r3, asr #16
    5410:	2820736f 	stmdacs	r0!, {r0, r1, r2, r3, r5, r6, r8, r9, ip, sp, lr}
    5414:	00295537 	eoreq	r5, r9, r7, lsr r5
    5418:	6e695f5f 	mcrvs	15, 3, r5, cr9, cr15, {2}
    541c:	5f303274 	svcpl	0x00303274
    5420:	322b205f 	eorcc	r2, fp, #95	@ 0x5f
    5424:	4e495f00 	cdpmi	15, 4, cr5, cr9, cr0, {0}
    5428:	5f343654 	svcpl	0x00343654
    542c:	45445f54 	strbmi	r5, [r4, #-3924]	@ 0xfffff0ac
    5430:	52414c43 	subpl	r4, r1, #17152	@ 0x4300
    5434:	00204445 	eoreq	r4, r0, r5, asr #8
    5438:	49564e4d 	ldmdbmi	r6, {r0, r2, r3, r6, r9, sl, fp, lr}^
    543c:	44415f43 	strbmi	r5, [r1], #-3907	@ 0xfffff0bd
    5440:	495f3343 	ldmdbmi	pc, {r0, r1, r6, r8, r9, ip, sp}^	@ <UNPREDICTABLE>
    5444:	34205152 	strtcc	r5, [r0], #-338	@ 0xfffffeae
    5448:	4e4d0037 	mcrmi	0, 2, r0, cr13, cr7, {1}
    544c:	5f434956 	svcpl	0x00434956
    5450:	32495053 	subcc	r5, r9, #83	@ 0x53
    5454:	5152495f 	cmppl	r2, pc, asr r9
    5458:	00363320 	eorseq	r3, r6, r0, lsr #6
    545c:	5f433249 	svcpl	0x00433249
    5460:	5f325253 	svcpl	0x00325253
    5464:	5f415254 	svcpl	0x00415254
    5468:	206b734d 	rsbcs	r7, fp, sp, asr #6
    546c:	31783028 	cmncc	r8, r8, lsr #32
    5470:	3c204c55 	stccc	12, cr4, [r0], #-340	@ 0xfffffeac
    5474:	3249203c 	subcc	r2, r9, #60	@ 0x3c
    5478:	52535f43 	subspl	r5, r3, #268	@ 0x10c
    547c:	52545f32 	subspl	r5, r4, #50, 30	@ 0xc8
    5480:	6f505f41 	svcvs	0x00505f41
    5484:	4d002973 	vstrmi.16	s4, [r0, #-230]	@ 0xffffff1a	@ <UNPREDICTABLE>
    5488:	49545845 	ldmdbmi	r4, {r0, r2, r6, fp, ip, lr}^
    548c:	6464755f 	strbtvs	r7, [r4], #-1375	@ 0xfffffaa1
    5490:	73655274 	cmnvc	r5, #116, 4	@ 0x40000007
    5494:	4d007465 	cfstrsmi	mvf7, [r0, #-404]	@ 0xfffffe6c
    5498:	4f495047 	svcmi	0x00495047
    549c:	6464755f 	strbtvs	r7, [r4], #-1375	@ 0xfffffaa1
    54a0:	6e695074 	mcrvs	0, 3, r5, cr9, cr4, {3}
    54a4:	626d754e 	rsbvs	r7, sp, #327155712	@ 0x13800000
    54a8:	745f7265 	ldrbvc	r7, [pc], #-613	@ 54b0 <_Min_Stack_Size+0x50b0>
    54ac:	43324900 	teqmi	r2, #0, 18
    54b0:	3152435f 	cmpcc	r2, pc, asr r3
    54b4:	504e455f 	subpl	r4, lr, pc, asr r5
    54b8:	49204345 	stmdbmi	r0!, {r0, r2, r6, r8, r9, lr}
    54bc:	435f4332 	cmpmi	pc, #-939524096	@ 0xc8000000
    54c0:	455f3152 	ldrbmi	r3, [pc, #-338]	@ 5376 <_Min_Stack_Size+0x4f76>
    54c4:	4345504e 	movtmi	r5, #20558	@ 0x504e
    54c8:	6b734d5f 	blvs	1cd8a4c <_Min_Stack_Size+0x1cd864c>
    54cc:	564e4d00 	strbpl	r4, [lr], -r0, lsl #26
    54d0:	445f4349 	ldrbmi	r4, [pc], #-841	@ 54d8 <_Min_Stack_Size+0x50d8>
    54d4:	5f32414d 	svcpl	0x0032414d
    54d8:	6e616843 	cdpvs	8, 6, cr6, cr1, cr3, {2}
    54dc:	326c656e 	rsbcc	r6, ip, #461373440	@ 0x1b800000
    54e0:	5152495f 	cmppl	r2, pc, asr r9
    54e4:	00373520 	eorseq	r3, r7, r0, lsr #10
    54e8:	49545845 	ldmdbmi	r4, {r0, r2, r6, fp, ip, lr}^
    54ec:	30435030 	subcc	r5, r3, r0, lsr r0
    54f0:	454d2820 	strbmi	r2, [sp, #-2080]	@ 0xfffff7e0
    54f4:	5f495458 	svcpl	0x00495458
    54f8:	74646475 	strbtvc	r6, [r4], #-1141	@ 0xfffffb8b
    54fc:	6f697047 	svcvs	0x00697047
    5500:	5f6e6950 	svcpl	0x006e6950
    5504:	4d7b2974 			@ <UNDEFINED> instruction: 0x4d7b2974
    5508:	49545845 	ldmdbmi	r4, {r0, r2, r6, fp, ip, lr}^
    550c:	4e494c5f 	mcrmi	12, 2, r4, cr9, cr15, {2}
    5510:	202c3045 	eorcs	r3, ip, r5, asr #32
    5514:	4f495047 	svcmi	0x00495047
    5518:	4d202c43 	stcmi	12, cr2, [r0, #-268]!	@ 0xfffffef4
    551c:	4f495047 	svcmi	0x00495047
    5520:	4e49505f 	mcrmi	0, 2, r5, cr9, cr15, {2}
    5524:	4d202c30 	stcmi	12, cr2, [r0, #-192]!	@ 0xffffff40
    5528:	4349564e 	movtmi	r5, #38478	@ 0x964e
    552c:	5458455f 	ldrbpl	r4, [r8], #-1375	@ 0xfffffaa1
    5530:	495f3049 	ldmdbmi	pc, {r0, r3, r6, ip, sp}^	@ <UNPREDICTABLE>
    5534:	007d5152 	rsbseq	r5, sp, r2, asr r1
    5538:	54555f5f 	ldrbpl	r5, [r5], #-3935	@ 0xfffff0a1
    553c:	42495f51 	submi	r5, r9, #324	@ 0x144
    5540:	5f5f5449 	svcpl	0x005f5449
    5544:	5f003020 	svcpl	0x00003020
    5548:	5f41535f 	svcpl	0x0041535f
    554c:	54494246 	strbpl	r4, [r9], #-582	@ 0xfffffdba
    5550:	31205f5f 			@ <UNDEFINED> instruction: 0x31205f5f
    5554:	5f5f0035 	svcpl	0x005f0035
    5558:	52464c4c 	subpl	r4, r6, #76, 24	@ 0x4c00
    555c:	5f544341 	svcpl	0x00544341
    5560:	49535045 	ldmdbmi	r3, {r0, r2, r6, ip, lr}^
    5564:	5f4e4f4c 	svcpl	0x004e4f4c
    5568:	7830205f 	ldmdavc	r0!, {r0, r1, r2, r3, r4, r6, sp}
    556c:	362d5031 			@ <UNDEFINED> instruction: 0x362d5031
    5570:	524c4c33 	subpl	r4, ip, #13056	@ 0x3300
    5574:	465f5f00 	ldrbmi	r5, [pc], -r0, lsl #30
    5578:	3233544c 	eorscc	r5, r3, #76, 8	@ 0x4c000000
    557c:	414d5f58 	cmpmi	sp, r8, asr pc
    5580:	205f5f58 	subscs	r5, pc, r8, asr pc	@ <UNPREDICTABLE>
    5584:	39372e31 	ldmdbcc	r7!, {r0, r4, r5, r9, sl, fp, sp}
    5588:	33393637 	teqcc	r9, #57671680	@ 0x3700000
    558c:	38343331 	ldmdacc	r4!, {r0, r4, r5, r8, r9, ip, sp}
    5590:	31333236 	teqcc	r3, r6, lsr r2
    5594:	2b653735 	blcs	1953270 <_Min_Stack_Size+0x1952e70>
    5598:	46383033 			@ <UNDEFINED> instruction: 0x46383033
    559c:	00783233 	rsbseq	r3, r8, r3, lsr r2
    55a0:	49564e4d 	ldmdbmi	r6, {r0, r2, r3, r6, r9, sl, fp, lr}^
    55a4:	49545f43 	ldmdbmi	r4, {r0, r1, r6, r8, r9, sl, fp, ip, lr}^
    55a8:	425f314d 	subsmi	r3, pc, #1073741843	@ 0x40000013
    55ac:	495f4b52 	ldmdbmi	pc, {r1, r4, r6, r8, r9, fp, lr}^	@ <UNPREDICTABLE>
    55b0:	32205152 	eorcc	r5, r0, #-2147483628	@ 0x80000014
    55b4:	5f5f0034 	svcpl	0x005f0034
    55b8:	746e695f 	strbtvc	r6, [lr], #-2399	@ 0xfffff6a1
    55bc:	745f3631 	ldrbvc	r3, [pc], #-1585	@ 55c4 <_Min_Stack_Size+0x51c4>
    55c0:	6665645f 			@ <UNDEFINED> instruction: 0x6665645f
    55c4:	64656e69 	strbtvs	r6, [r5], #-3689	@ 0xfffff197
    55c8:	45003120 	strmi	r3, [r0, #-288]	@ 0xfffffee0
    55cc:	31495458 	cmpcc	r9, r8, asr r4
    55d0:	31415033 	cmpcc	r1, r3, lsr r0
    55d4:	4d282033 	stcmi	0, cr2, [r8, #-204]!	@ 0xffffff34
    55d8:	49545845 	ldmdbmi	r4, {r0, r2, r6, fp, ip, lr}^
    55dc:	6464755f 	strbtvs	r7, [r4], #-1375	@ 0xfffffaa1
    55e0:	69704774 	ldmdbvs	r0!, {r2, r4, r5, r6, r8, r9, sl, lr}^
    55e4:	6e69506f 	cdpvs	0, 6, cr5, cr9, cr15, {3}
    55e8:	7b29745f 	blvc	a6276c <_Min_Stack_Size+0xa6236c>
    55ec:	5458454d 	ldrbpl	r4, [r8], #-1357	@ 0xfffffab3
    55f0:	494c5f49 	stmdbmi	ip, {r0, r3, r6, r8, r9, sl, fp, ip, lr}^
    55f4:	3331454e 	teqcc	r1, #327155712	@ 0x13800000
    55f8:	5047202c 	subpl	r2, r7, ip, lsr #32
    55fc:	2c414f49 	mcrrcs	15, 4, r4, r1, cr9
    5600:	50474d20 	subpl	r4, r7, r0, lsr #26
    5604:	505f4f49 	subspl	r4, pc, r9, asr #30
    5608:	33314e49 	teqcc	r1, #1168	@ 0x490
    560c:	4e4d202c 	cdpmi	0, 4, cr2, cr13, cr12, {1}
    5610:	5f434956 	svcpl	0x00434956
    5614:	49545845 	ldmdbmi	r4, {r0, r2, r6, fp, ip, lr}^
    5618:	315f3531 	cmpcc	pc, r1, lsr r5	@ <UNPREDICTABLE>
    561c:	52495f30 	subpl	r5, r9, #48, 30	@ 0xc0
    5620:	49007d51 	stmdbmi	r0, {r0, r4, r6, r8, sl, fp, ip, sp, lr}
    5624:	5f324332 	svcpl	0x00324332
    5628:	45534142 	ldrbmi	r4, [r3, #-322]	@ 0xfffffebe
    562c:	34783020 	ldrbtcc	r3, [r8], #-32	@ 0xffffffe0
    5630:	35303030 	ldrcc	r3, [r0, #-48]!	@ 0xffffffd0
    5634:	55303038 	ldrpl	r3, [r0, #-56]!	@ 0xffffffc8
    5638:	5f5f004c 	svcpl	0x005f004c
    563c:	33544c46 	cmpcc	r4, #17920	@ 0x4600
    5640:	494d5f32 	stmdbmi	sp, {r1, r4, r5, r8, r9, sl, fp, ip, lr}^
    5644:	205f5f4e 	subscs	r5, pc, lr, asr #30
    5648:	37312e31 			@ <UNDEFINED> instruction: 0x37312e31
    564c:	34393435 	ldrtcc	r3, [r9], #-1077	@ 0xfffffbcb
    5650:	38303533 	ldmdacc	r0!, {r0, r1, r4, r5, r8, sl, ip, sp}
    5654:	38323232 	ldmdacc	r2!, {r1, r4, r5, r9, ip, sp}
    5658:	2d653537 	cfstr64cs	mvdx3, [r5, #-220]!	@ 0xffffff24
    565c:	33463833 	movtcc	r3, #26675	@ 0x6833
    5660:	50470032 	subpl	r0, r7, r2, lsr r0
    5664:	5f434f49 	svcpl	0x00434f49
    5668:	45534142 	ldrbmi	r4, [r3, #-322]	@ 0xfffffebe
    566c:	34783020 	ldrbtcc	r3, [r8], #-32	@ 0xffffffe0
    5670:	31313030 	teqcc	r1, r0, lsr r0
    5674:	55303030 	ldrpl	r3, [r0, #-48]!	@ 0xffffffd0
    5678:	5f5f004c 	svcpl	0x005f004c
    567c:	5f544c46 	svcpl	0x00544c46
    5680:	495f5349 	ldmdbmi	pc, {r0, r3, r6, r8, r9, ip, lr}^	@ <UNPREDICTABLE>
    5684:	365f4345 	ldrbcc	r4, [pc], -r5, asr #6
    5688:	39353530 	ldmdbcc	r5!, {r4, r5, r8, sl, ip, sp}
    568c:	32205f5f 	eorcc	r5, r0, #380	@ 0x17c
    5690:	545f5f00 	ldrbpl	r5, [pc], #-3840	@ 5698 <_Min_Stack_Size+0x5298>
    5694:	424d5548 	submi	r5, sp, #72, 10	@ 0x12000000
    5698:	5f5f4c45 	svcpl	0x005f4c45
    569c:	45003120 	strmi	r3, [r0, #-288]	@ 0xfffffee0
    56a0:	39495458 	stmdbcc	r9, {r3, r4, r6, sl, ip, lr}^
    56a4:	495f355f 	ldmdbmi	pc, {r0, r1, r2, r3, r4, r6, r8, sl, ip, sp}^	@ <UNPREDICTABLE>
    56a8:	61485152 	cmpvs	r8, r2, asr r1
    56ac:	656c646e 	strbvs	r6, [ip, #-1134]!	@ 0xfffffb92
    56b0:	454d0072 	strbmi	r0, [sp, #-114]	@ 0xffffff8e
    56b4:	5f495458 	svcpl	0x00495458
    56b8:	414d4e55 	cmpmi	sp, r5, asr lr
    56bc:	44454b53 	strbmi	r4, [r5], #-2899	@ 0xfffff4ad
    56c0:	49003120 	stmdbmi	r0, {r5, r8, ip, sp}
    56c4:	535f4332 	cmppl	pc, #-939524096	@ 0xc8000000
    56c8:	415f3152 	cmpmi	pc, r2, asr r1	@ <UNPREDICTABLE>
    56cc:	6f505f46 	svcvs	0x00505f46
    56d0:	31282073 			@ <UNDEFINED> instruction: 0x31282073
    56d4:	00295530 	eoreq	r5, r9, r0, lsr r5
    56d8:	49564e4d 	ldmdbmi	r6, {r0, r2, r3, r6, r9, sl, fp, lr}^
    56dc:	64755f43 	ldrbtvs	r5, [r5], #-3907	@ 0xfffff0bd
    56e0:	69447464 	stmdbvs	r4, {r2, r5, r6, sl, ip, sp, lr}^
    56e4:	6c626173 	stfvse	f6, [r2], #-460	@ 0xfffffe34
    56e8:	51524965 	cmppl	r2, r5, ror #18
    56ec:	515f5f00 	cmppl	pc, r0, lsl #30
    56f0:	42495f51 	submi	r5, r9, #324	@ 0x144
    56f4:	5f5f5449 	svcpl	0x005f5449
    56f8:	49003020 	stmdbmi	r0, {r5, ip, sp}
    56fc:	535f4332 	cmppl	pc, #-939524096	@ 0xc8000000
    5700:	545f3252 	ldrbpl	r3, [pc], #-594	@ 5708 <_Min_Stack_Size+0x5308>
    5704:	505f4152 	subspl	r4, pc, r2, asr r1	@ <UNPREDICTABLE>
    5708:	2820736f 	stmdacs	r0!, {r0, r1, r2, r3, r5, r6, r8, r9, ip, sp, lr}
    570c:	00295532 	eoreq	r5, r9, r2, lsr r5
    5710:	5f433249 	svcpl	0x00433249
    5714:	5f325243 	svcpl	0x00325243
    5718:	5453414c 	ldrbpl	r4, [r3], #-332	@ 0xfffffeb4
    571c:	736f505f 	cmnvc	pc, #95	@ 0x5f
    5720:	32312820 	eorscc	r2, r1, #32, 16	@ 0x200000
    5724:	47002955 	smlsdmi	r0, r5, r9, r2
    5728:	454f4950 	strbmi	r4, [pc, #-2384]	@ 4de0 <_Min_Stack_Size+0x49e0>
    572c:	47282820 	strmi	r2, [r8, -r0, lsr #16]!
    5730:	5f4f4950 	svcpl	0x004f4950
    5734:	69676572 	stmdbvs	r7!, {r1, r4, r5, r6, r8, sl, sp, lr}^
    5738:	72657473 	rsbvc	r7, r5, #1929379840	@ 0x73000000
    573c:	5f70614d 	svcpl	0x0070614d
    5740:	47292a74 			@ <UNDEFINED> instruction: 0x47292a74
    5744:	454f4950 	strbmi	r4, [pc, #-2384]	@ 4dfc <_Min_Stack_Size+0x49fc>
    5748:	5341425f 	movtpl	r4, #4703	@ 0x125f
    574c:	55002945 	strpl	r2, [r0, #-2373]	@ 0xfffff6bb
    5750:	36544e49 	ldrbcc	r4, [r4], -r9, asr #28
    5754:	28435f34 	stmdacs	r3, {r2, r4, r5, r8, r9, sl, fp, ip, lr}^
    5758:	5f202978 	svcpl	0x00202978
    575c:	4e49555f 	mcrmi	5, 2, r5, cr9, cr15, {2}
    5760:	5f343654 	svcpl	0x00343654
    5764:	29782843 	ldmdbcs	r8!, {r0, r1, r6, fp, sp}^
    5768:	4c5f5f00 	mrrcmi	15, 0, r5, pc, cr0	@ <UNPREDICTABLE>
    576c:	4343414c 	movtmi	r4, #12620	@ 0x314c
    5770:	465f4d55 			@ <UNDEFINED> instruction: 0x465f4d55
    5774:	5f544942 	svcpl	0x00544942
    5778:	3133205f 	teqcc	r3, pc, asr r0
    577c:	50474d00 	subpl	r4, r7, r0, lsl #26
    5780:	4f5f4f49 	svcmi	0x005f4f49
    5784:	55505455 	ldrbpl	r5, [r0, #-1109]	@ 0xfffffbab
    5788:	50505f54 	subspl	r5, r0, r4, asr pc
    578c:	444f4d5f 	strbmi	r4, [pc], #-3423	@ 5794 <_Min_Stack_Size+0x5394>
    5790:	49550045 	ldmdbmi	r5, {r0, r2, r6}^
    5794:	4c5f544e 	cfldrdmi	mvd5, [pc], {78}	@ 0x4e
    5798:	54534145 	ldrbpl	r4, [r3], #-325	@ 0xfffffebb
    579c:	414d5f38 	cmpmi	sp, r8, lsr pc
    57a0:	5f282058 	svcpl	0x00282058
    57a4:	4e49555f 	mcrmi	5, 2, r5, cr9, cr15, {2}
    57a8:	454c5f54 	strbmi	r5, [ip, #-3924]	@ 0xfffff0ac
    57ac:	38545341 	ldmdacc	r4, {r0, r6, r8, r9, ip, lr}^
    57b0:	58414d5f 	stmdapl	r1, {r0, r1, r2, r3, r4, r6, r8, sl, fp, lr}^
    57b4:	00295f5f 	eoreq	r5, r9, pc, asr pc
    57b8:	53555f5f 	cmppl	r5, #380	@ 0x17c
    57bc:	42495f51 	submi	r5, r9, #324	@ 0x144
    57c0:	5f5f5449 	svcpl	0x005f5449
    57c4:	5f003020 	svcpl	0x00003020
    57c8:	554e475f 	strbpl	r4, [lr, #-1887]	@ 0xfffff8a1
    57cc:	494d5f43 	stmdbmi	sp, {r0, r1, r6, r8, r9, sl, fp, ip, lr}^
    57d0:	5f524f4e 	svcpl	0x00524f4e
    57d4:	0033205f 	eorseq	r2, r3, pc, asr r0
    57d8:	49555f5f 	ldmdbmi	r5, {r0, r1, r2, r3, r4, r6, r8, r9, sl, fp, ip, lr}^
    57dc:	4c5f544e 	cfldrdmi	mvd5, [pc], {78}	@ 0x4e
    57e0:	54534145 	ldrbpl	r4, [r3], #-325	@ 0xfffffebb
    57e4:	545f3233 	ldrbpl	r3, [pc], #-563	@ 57ec <_Min_Stack_Size+0x53ec>
    57e8:	5f455059 	svcpl	0x00455059
    57ec:	6f6c205f 	svcvs	0x006c205f
    57f0:	7520676e 	strvc	r6, [r0, #-1902]!	@ 0xfffff892
    57f4:	6769736e 	strbvs	r7, [r9, -lr, ror #6]!
    57f8:	2064656e 	rsbcs	r6, r4, lr, ror #10
    57fc:	00746e69 	rsbseq	r6, r4, r9, ror #28
    5800:	49564e4d 	ldmdbmi	r6, {r0, r2, r3, r6, r9, sl, fp, lr}^
    5804:	4d445f43 	stclmi	15, cr5, [r4, #-268]	@ 0xfffffef4
    5808:	435f3141 	cmpmi	pc, #1073741840	@ 0x40000010
    580c:	6e6e6168 	powvsez	f6, f6, #0.0
    5810:	5f366c65 	svcpl	0x00366c65
    5814:	20515249 	subscs	r5, r1, r9, asr #4
    5818:	5f003631 	svcpl	0x00003631
    581c:	4d52415f 	ldfmie	f4, [r2, #-380]	@ 0xfffffe84
    5820:	4145465f 	cmpmi	r5, pc, asr r6
    5824:	45525554 	ldrbmi	r5, [r2, #-1364]	@ 0xfffffaac
    5828:	4d554e5f 	ldclmi	14, cr4, [r5, #-380]	@ 0xfffffe84
    582c:	43495245 	movtmi	r5, #37445	@ 0x9245
    5830:	58414d5f 	stmdapl	r1, {r0, r1, r2, r3, r4, r6, r8, sl, fp, lr}^
    5834:	004e494d 	subeq	r4, lr, sp, asr #18
    5838:	4e495f5f 	mcrmi	15, 2, r5, cr9, cr15, {2}
    583c:	58414d54 	stmdapl	r1, {r2, r4, r6, r8, sl, fp, lr}^
    5840:	5059545f 	subspl	r5, r9, pc, asr r4
    5844:	205f5f45 	subscs	r5, pc, r5, asr #30
    5848:	676e6f6c 	strbvs	r6, [lr, -ip, ror #30]!
    584c:	6e6f6c20 	cdpvs	12, 6, cr6, cr15, cr0, {1}
    5850:	6e692067 	cdpvs	0, 6, cr2, cr9, cr7, {3}
    5854:	4e4d0074 	mcrmi	0, 2, r0, cr13, cr4, {3}
    5858:	5f434956 	svcpl	0x00434956
    585c:	31414d44 	cmpcc	r1, r4, asr #26
    5860:	6168435f 	cmnvs	r8, pc, asr r3
    5864:	6c656e6e 	stclvs	14, cr6, [r5], #-440	@ 0xfffffe48
    5868:	52495f37 	subpl	r5, r9, #55, 30	@ 0xdc
    586c:	37312051 			@ <UNDEFINED> instruction: 0x37312051
    5870:	475f5f00 	ldrbmi	r5, [pc, -r0, lsl #30]
    5874:	415f4343 	cmpmi	pc, r3, asr #6
    5878:	494d4f54 	stmdbmi	sp, {r2, r4, r6, r8, r9, sl, fp, lr}^
    587c:	4e495f43 	cdpmi	15, 4, cr5, cr9, cr3, {2}
    5880:	4f4c5f54 	svcmi	0x004c5f54
    5884:	465f4b43 	ldrbmi	r4, [pc], -r3, asr #22
    5888:	20454552 	subcs	r4, r5, r2, asr r5
    588c:	434d0032 	movtmi	r0, #53298	@ 0xd032
    5890:	475f4c41 	ldrbmi	r4, [pc, -r1, asr #24]
    5894:	5f4f4950 	svcpl	0x004f4950
    5898:	4f495047 	svcmi	0x00495047
    589c:	205f485f 	subscs	r4, pc, pc, asr r8	@ <UNPREDICTABLE>
    58a0:	49504700 	ldmdbmi	r0, {r8, r9, sl, lr}^
    58a4:	425f424f 	subsmi	r4, pc, #-268435452	@ 0xf0000004
    58a8:	20455341 	subcs	r5, r5, r1, asr #6
    58ac:	30347830 	eorscc	r7, r4, r0, lsr r8
    58b0:	43303130 	teqmi	r0, #48, 2
    58b4:	4c553030 	mrrcmi	0, 3, r3, r5, cr0
    58b8:	415f5f00 	cmpmi	pc, r0, lsl #30
    58bc:	465f4d52 			@ <UNDEFINED> instruction: 0x465f4d52
    58c0:	55544145 	ldrbpl	r4, [r4, #-325]	@ 0xfffffebb
    58c4:	465f4552 			@ <UNDEFINED> instruction: 0x465f4552
    58c8:	5f363150 	svcpl	0x00363150
    58cc:	4c414353 	mcrrmi	3, 5, r4, r1, cr3
    58d0:	415f5241 	cmpmi	pc, r1, asr #4
    58d4:	48544952 	ldmdami	r4, {r1, r4, r6, r8, fp, lr}^
    58d8:	4954454d 	ldmdbmi	r4, {r0, r2, r3, r6, r8, sl, lr}^
    58dc:	5f5f0043 	svcpl	0x005f0043
    58e0:	43415355 	movtmi	r5, #4949	@ 0x1355
    58e4:	5f4d5543 	svcpl	0x004d5543
    58e8:	49535045 	ldmdbmi	r3, {r0, r2, r6, ip, lr}^
    58ec:	5f4e4f4c 	svcpl	0x004e4f4c
    58f0:	7830205f 	ldmdavc	r0!, {r0, r1, r2, r3, r4, r6, sp}
    58f4:	382d5031 	stmdacc	sp!, {r0, r4, r5, ip, lr}
    58f8:	004b4855 	subeq	r4, fp, r5, asr r8
    58fc:	42445f5f 	submi	r5, r4, #380	@ 0x17c
    5900:	41485f4c 	cmpmi	r8, ip, asr #30
    5904:	55515f53 	ldrbpl	r5, [r1, #-3923]	@ 0xfffff0ad
    5908:	5f544549 	svcpl	0x00544549
    590c:	5f4e414e 	svcpl	0x004e414e
    5910:	0031205f 	eorseq	r2, r1, pc, asr r0
    5914:	495f5047 	ldmdbmi	pc, {r0, r1, r2, r6, ip, lr}^	@ <UNPREDICTABLE>
    5918:	435f5152 	cmpmi	pc, #-2147483628	@ 0x80000014
    591c:	626c6c61 	rsbvs	r6, ip, #24832	@ 0x6100
    5920:	006b6361 	rsbeq	r6, fp, r1, ror #6
    5924:	33544e49 	cmpcc	r4, #1168	@ 0x490
    5928:	28435f32 	stmdacs	r3, {r1, r4, r5, r8, r9, sl, fp, ip, lr}^
    592c:	5f202978 	svcpl	0x00202978
    5930:	544e495f 	strbpl	r4, [lr], #-2399	@ 0xfffff6a1
    5934:	435f3233 	cmpmi	pc, #805306371	@ 0x30000003
    5938:	00297828 	eoreq	r7, r9, r8, lsr #16
    593c:	544e4955 	strbpl	r4, [lr], #-2389	@ 0xfffff6ab
    5940:	5341465f 	movtpl	r4, #5727	@ 0x165f
    5944:	5f363154 	svcpl	0x00363154
    5948:	2058414d 	subscs	r4, r8, sp, asr #2
    594c:	555f5f28 	ldrbpl	r5, [pc, #-3880]	@ 4a2c <_Min_Stack_Size+0x462c>
    5950:	5f544e49 	svcpl	0x00544e49
    5954:	54534146 	ldrbpl	r4, [r3], #-326	@ 0xfffffeba
    5958:	4d5f3631 	ldclmi	6, cr3, [pc, #-196]	@ 589c <_Min_Stack_Size+0x549c>
    595c:	5f5f5841 	svcpl	0x005f5841
    5960:	65670029 	strbvs	r0, [r7, #-41]!	@ 0xffffffd7
    5964:	51524974 	cmppl	r2, r4, ror r9
    5968:	28676552 	stmdacs	r7!, {r1, r4, r6, r8, sl, sp, lr}^
    596c:	4e515249 	cdpmi	2, 5, cr5, cr1, cr9, {2}
    5970:	65626d75 	strbvs	r6, [r2, #-3445]!	@ 0xfffff28b
    5974:	28202972 	stmdacs	r0!, {r1, r4, r5, r6, r8, fp, sp}
    5978:	4e515249 	cdpmi	2, 5, cr5, cr1, cr9, {2}
    597c:	65626d75 	strbvs	r6, [r2, #-3445]!	@ 0xfffff28b
    5980:	202f2072 	eorcs	r2, pc, r2, ror r0	@ <UNPREDICTABLE>
    5984:	00293233 	eoreq	r3, r9, r3, lsr r2
    5988:	4c4c5f5f 	mcrrmi	15, 5, r5, ip, cr15
    598c:	43415246 	movtmi	r5, #4678	@ 0x1246
    5990:	414d5f54 	cmpmi	sp, r4, asr pc
    5994:	205f5f58 	subscs	r5, pc, r8, asr pc	@ <UNPREDICTABLE>
    5998:	46375830 			@ <UNDEFINED> instruction: 0x46375830
    599c:	46464646 	strbmi	r4, [r6], -r6, asr #12
    59a0:	46464646 	strbmi	r4, [r6], -r6, asr #12
    59a4:	46464646 	strbmi	r4, [r6], -r6, asr #12
    59a8:	2d504646 	ldclcs	6, cr4, [r0, #-280]	@ 0xfffffee8
    59ac:	4c4c3336 	mcrrmi	3, 3, r3, ip, cr6
    59b0:	32490052 	subcc	r0, r9, #82	@ 0x52
    59b4:	52435f43 	subpl	r5, r3, #268	@ 0x10c
    59b8:	4e455f31 	mcrmi	15, 2, r5, cr5, cr1, {1}
    59bc:	5f434550 	svcpl	0x00434550
    59c0:	20736f50 	rsbscs	r6, r3, r0, asr pc
    59c4:	29553528 	ldmdbcs	r5, {r3, r5, r8, sl, ip, sp}^
    59c8:	4e495500 	cdpmi	5, 4, cr5, cr9, cr0, {0}
    59cc:	454c5f54 	strbmi	r5, [ip, #-3924]	@ 0xfffff0ac
    59d0:	33545341 	cmpcc	r4, #67108865	@ 0x4000001
    59d4:	414d5f32 	cmpmi	sp, r2, lsr pc
    59d8:	5f282058 	svcpl	0x00282058
    59dc:	4e49555f 	mcrmi	5, 2, r5, cr9, cr15, {2}
    59e0:	454c5f54 	strbmi	r5, [ip, #-3924]	@ 0xfffff0ac
    59e4:	33545341 	cmpcc	r4, #67108865	@ 0x4000001
    59e8:	414d5f32 	cmpmi	sp, r2, lsr pc
    59ec:	295f5f58 	ldmdbcs	pc, {r3, r4, r6, r8, r9, sl, fp, ip, lr}^	@ <UNPREDICTABLE>
    59f0:	564e4d00 	strbpl	r4, [lr], -r0, lsl #26
    59f4:	555f4349 	ldrbpl	r4, [pc, #-841]	@ 56b3 <_Min_Stack_Size+0x52b3>
    59f8:	54524153 	ldrbpl	r4, [r2], #-339	@ 0xfffffead
    59fc:	52495f31 	subpl	r5, r9, #49, 30	@ 0xc4
    5a00:	37332051 			@ <UNDEFINED> instruction: 0x37332051
    5a04:	475f5f00 	ldrbmi	r5, [pc, -r0, lsl #30]
    5a08:	5f43554e 	svcpl	0x0043554e
    5a0c:	52455250 	subpl	r5, r5, #80, 4
    5a10:	5f5f5145 	svcpl	0x005f5145
    5a14:	2c616d28 	stclcs	13, cr6, [r1], #-160	@ 0xffffff60
    5a18:	2029696d 	eorcs	r6, r9, sp, ror #18
    5a1c:	4e475f5f 	mcrmi	15, 2, r5, cr7, cr15, {2}
    5a20:	505f4355 	subspl	r4, pc, r5, asr r3	@ <UNPREDICTABLE>
    5a24:	45524552 	ldrbmi	r4, [r2, #-1362]	@ 0xfffffaae
    5a28:	616d2851 	cmnvs	sp, r1, asr r8
    5a2c:	696d202c 	stmdbvs	sp!, {r2, r3, r5, sp}^
    5a30:	50530029 	subspl	r0, r3, r9, lsr #32
    5a34:	28203149 	stmdacs	r0!, {r0, r3, r6, r8, ip, sp}
    5a38:	49505328 	ldmdbmi	r0, {r3, r5, r8, r9, ip, lr}^
    5a3c:	6765725f 			@ <UNDEFINED> instruction: 0x6765725f
    5a40:	65747369 	ldrbvs	r7, [r4, #-873]!	@ 0xfffffc97
    5a44:	70614d72 	rsbvc	r4, r1, r2, ror sp
    5a48:	292a745f 	stmdbcs	sl!, {r0, r1, r2, r3, r4, r6, sl, ip, sp, lr}
    5a4c:	31495053 	qdaddcc	r5, r3, r9
    5a50:	5341425f 	movtpl	r4, #4703	@ 0x125f
    5a54:	5f002945 	svcpl	0x00002945
    5a58:	4341535f 	movtmi	r5, #4959	@ 0x135f
    5a5c:	5f4d5543 	svcpl	0x004d5543
    5a60:	5f58414d 	svcpl	0x0058414d
    5a64:	5830205f 	ldmdapl	r0!, {r0, r1, r2, r3, r4, r6, sp}
    5a68:	46464637 			@ <UNDEFINED> instruction: 0x46464637
    5a6c:	48372d50 	ldmdami	r7!, {r4, r6, r8, sl, fp, sp}
    5a70:	5f5f004b 	svcpl	0x005f004b
    5a74:	50544e49 	subspl	r4, r4, r9, asr #28
    5a78:	545f5254 	ldrbpl	r5, [pc], #-596	@ 5a80 <_Min_Stack_Size+0x5680>
    5a7c:	5f455059 	svcpl	0x00455059
    5a80:	6e69205f 	mcrvs	0, 3, r2, cr9, cr15, {2}
    5a84:	5f5f0074 	svcpl	0x005f0074
    5a88:	544e4955 	strbpl	r4, [lr], #-2389	@ 0xfffff6ab
    5a8c:	5f525450 	svcpl	0x00525450
    5a90:	45505954 	ldrbmi	r5, [r0, #-2388]	@ 0xfffff6ac
    5a94:	75205f5f 	strvc	r5, [r0, #-3935]!	@ 0xfffff0a1
    5a98:	6769736e 	strbvs	r7, [r9, -lr, ror #6]!
    5a9c:	2064656e 	rsbcs	r6, r4, lr, ror #10
    5aa0:	00746e69 	rsbseq	r6, r4, r9, ror #28
    5aa4:	4c41434d 	mcrrmi	3, 4, r4, r1, cr13
    5aa8:	434e495f 	movtmi	r4, #59743	@ 0xe95f
    5aac:	5458455f 	ldrbpl	r4, [r8], #-1375	@ 0xfffffaa1
    5ab0:	5f485f49 	svcpl	0x00485f49
    5ab4:	5f5f0020 	svcpl	0x005f0020
    5ab8:	49474552 	stmdbmi	r7, {r1, r4, r6, r8, sl, lr}^
    5abc:	52455453 	subpl	r5, r5, #1392508928	@ 0x53000000
    5ac0:	4552505f 	ldrbmi	r5, [r2, #-95]	@ 0xffffffa1
    5ac4:	5f584946 	svcpl	0x00584946
    5ac8:	5f00205f 	svcpl	0x0000205f
    5acc:	544c465f 	strbpl	r4, [ip], #-1631	@ 0xfffff9a1
    5ad0:	4d5f3233 	lfmmi	f3, 2, [pc, #-204]	@ 5a0c <_Min_Stack_Size+0x560c>
    5ad4:	5f5f5841 	svcpl	0x005f5841
    5ad8:	342e3320 	strtcc	r3, [lr], #-800	@ 0xfffffce0
    5adc:	32383230 	eorscc	r3, r8, #48, 4
    5ae0:	36363433 			@ <UNDEFINED> instruction: 0x36363433
    5ae4:	32353833 	eorscc	r3, r5, #3342336	@ 0x330000
    5ae8:	65363838 	ldrvs	r3, [r6, #-2104]!	@ 0xfffff7c8
    5aec:	4638332b 	ldrtmi	r3, [r8], -fp, lsr #6
    5af0:	5f003233 	svcpl	0x00003233
    5af4:	4c42445f 	cfstrdmi	mvd4, [r2], {95}	@ 0x5f
    5af8:	4749445f 	smlsldmi	r4, r9, pc, r4	@ <UNPREDICTABLE>
    5afc:	31205f5f 			@ <UNDEFINED> instruction: 0x31205f5f
    5b00:	5f5f0035 	svcpl	0x005f0035
    5b04:	52464c55 	subpl	r4, r6, #21760	@ 0x5500
    5b08:	5f544341 	svcpl	0x00544341
    5b0c:	49535045 	ldmdbmi	r3, {r0, r2, r6, ip, lr}^
    5b10:	5f4e4f4c 	svcpl	0x004e4f4c
    5b14:	7830205f 	ldmdavc	r0!, {r0, r1, r2, r3, r4, r6, sp}
    5b18:	332d5031 			@ <UNDEFINED> instruction: 0x332d5031
    5b1c:	524c5532 	subpl	r5, ip, #209715200	@ 0xc800000
    5b20:	58454d00 	stmdapl	r5, {r8, sl, fp, lr}^
    5b24:	4d5f4954 	vldrmi.16	s9, [pc, #-168]	@ 5a84 <_Min_Stack_Size+0x5684>	@ <UNPREDICTABLE>
    5b28:	454b5341 	strbmi	r5, [fp, #-833]	@ 0xfffffcbf
    5b2c:	00302044 	eorseq	r2, r0, r4, asr #32
    5b30:	5f544f4e 	svcpl	0x00544f4e
    5b34:	444e4550 	strbmi	r4, [lr], #-1360	@ 0xfffffab0
    5b38:	20474e49 	subcs	r4, r7, r9, asr #28
    5b3c:	5f5f0030 	svcpl	0x005f0030
    5b40:	455a4953 	ldrbmi	r4, [sl, #-2387]	@ 0xfffff6ad
    5b44:	535f464f 	cmppl	pc, #82837504	@ 0x4f00000
    5b48:	5f455a49 	svcpl	0x00455a49
    5b4c:	205f5f54 	subscs	r5, pc, r4, asr pc	@ <UNPREDICTABLE>
    5b50:	50530034 	subspl	r0, r3, r4, lsr r0
    5b54:	425f3149 	subsmi	r3, pc, #1073741842	@ 0x40000012
    5b58:	20455341 	subcs	r5, r5, r1, asr #6
    5b5c:	30347830 	eorscc	r7, r4, r0, lsr r8
    5b60:	30333130 	eorscc	r3, r3, r0, lsr r1
    5b64:	4c553030 	mrrcmi	0, 3, r3, r5, cr0
    5b68:	555f5f00 	ldrbpl	r5, [pc, #-3840]	@ 4c70 <_Min_Stack_Size+0x4870>
    5b6c:	36544e49 	ldrbcc	r4, [r4], -r9, asr #28
    5b70:	59545f34 	ldmdbpl	r4, {r2, r4, r5, r8, r9, sl, fp, ip, lr}^
    5b74:	5f5f4550 	svcpl	0x005f4550
    5b78:	6e6f6c20 	cdpvs	12, 6, cr6, cr15, cr0, {1}
    5b7c:	6f6c2067 	svcvs	0x006c2067
    5b80:	7520676e 	strvc	r6, [r0, #-1902]!	@ 0xfffff892
    5b84:	6769736e 	strbvs	r7, [r9, -lr, ror #6]!
    5b88:	2064656e 	rsbcs	r6, r4, lr, ror #10
    5b8c:	00746e69 	rsbseq	r6, r4, r9, ror #28
    5b90:	4e495f5f 	mcrmi	15, 2, r5, cr9, cr15, {2}
    5b94:	5f343654 	svcpl	0x00343654
    5b98:	29632843 	stmdbcs	r3!, {r0, r1, r6, fp, sp}^
    5b9c:	23206320 			@ <UNDEFINED> instruction: 0x23206320
    5ba0:	4c4c2023 	mcrrmi	0, 2, r2, ip, cr3
    5ba4:	54584500 	ldrbpl	r4, [r8], #-1280	@ 0xfffffb00
    5ba8:	50323149 	eorspl	r3, r2, r9, asr #2
    5bac:	20323141 	eorscs	r3, r2, r1, asr #2
    5bb0:	58454d28 	stmdapl	r5, {r3, r5, r8, sl, fp, lr}^
    5bb4:	755f4954 	ldrbvc	r4, [pc, #-2388]	@ 5268 <_Min_Stack_Size+0x4e68>
    5bb8:	47746464 	ldrbmi	r6, [r4, -r4, ror #8]!
    5bbc:	506f6970 	rsbpl	r6, pc, r0, ror r9	@ <UNPREDICTABLE>
    5bc0:	745f6e69 	ldrbvc	r6, [pc], #-3689	@ 5bc8 <_Min_Stack_Size+0x57c8>
    5bc4:	454d7b29 	strbmi	r7, [sp, #-2857]	@ 0xfffff4d7
    5bc8:	5f495458 	svcpl	0x00495458
    5bcc:	454e494c 	strbmi	r4, [lr, #-2380]	@ 0xfffff6b4
    5bd0:	202c3231 	eorcs	r3, ip, r1, lsr r2
    5bd4:	4f495047 	svcmi	0x00495047
    5bd8:	4d202c41 	stcmi	12, cr2, [r0, #-260]!	@ 0xfffffefc
    5bdc:	4f495047 	svcmi	0x00495047
    5be0:	4e49505f 	mcrmi	0, 2, r5, cr9, cr15, {2}
    5be4:	202c3231 	eorcs	r3, ip, r1, lsr r2
    5be8:	49564e4d 	ldmdbmi	r6, {r0, r2, r3, r6, r9, sl, fp, lr}^
    5bec:	58455f43 	stmdapl	r5, {r0, r1, r6, r8, r9, sl, fp, ip, lr}^
    5bf0:	35314954 	ldrcc	r4, [r1, #-2388]!	@ 0xfffff6ac
    5bf4:	5f30315f 	svcpl	0x0030315f
    5bf8:	7d515249 	lfmvc	f5, 2, [r1, #-292]	@ 0xfffffedc
    5bfc:	4c5f5f00 	mrrcmi	15, 0, r5, pc, cr0	@ <UNPREDICTABLE>
    5c00:	5f4c4244 	svcpl	0x004c4244
    5c04:	5f4e494d 	svcpl	0x004e494d
    5c08:	455f3031 	ldrbmi	r3, [pc, #-49]	@ 5bdf <_Min_Stack_Size+0x57df>
    5c0c:	5f5f5058 	svcpl	0x005f5058
    5c10:	332d2820 			@ <UNDEFINED> instruction: 0x332d2820
    5c14:	00293730 	eoreq	r3, r9, r0, lsr r7
    5c18:	4f4c5f5f 	svcmi	0x004c5f5f
    5c1c:	4d5f474e 	ldclmi	7, cr4, [pc, #-312]	@ 5aec <_Min_Stack_Size+0x56ec>
    5c20:	5f5f5841 	svcpl	0x005f5841
    5c24:	37783020 	ldrbcc	r3, [r8, -r0, lsr #32]!
    5c28:	66666666 	strbtvs	r6, [r6], -r6, ror #12
    5c2c:	4c666666 	stclmi	6, cr6, [r6], #-408	@ 0xfffffe68
    5c30:	415f5f00 	cmpmi	pc, r0, lsl #30
    5c34:	465f4d52 			@ <UNDEFINED> instruction: 0x465f4d52
    5c38:	55544145 	ldrbpl	r4, [r4, #-325]	@ 0xfffffebb
    5c3c:	435f4552 	cmpmi	pc, #343932928	@ 0x14800000
    5c40:	5f004544 	svcpl	0x00004544
    5c44:	4343415f 	movtmi	r4, #12639	@ 0x315f
    5c48:	495f4d55 	ldmdbmi	pc, {r0, r2, r4, r6, r8, sl, fp, lr}^	@ <UNPREDICTABLE>
    5c4c:	5f544942 	svcpl	0x00544942
    5c50:	3631205f 			@ <UNDEFINED> instruction: 0x3631205f
    5c54:	43324900 	teqmi	r2, #0, 18
    5c58:	3152535f 	cmpcc	r2, pc, asr r3
    5c5c:	4444415f 	strbmi	r4, [r4], #-351	@ 0xfffffea1
    5c60:	6f505f52 	svcvs	0x00505f52
    5c64:	31282073 			@ <UNDEFINED> instruction: 0x31282073
    5c68:	75002955 	strvc	r2, [r0, #-2389]	@ 0xfffff6ab
    5c6c:	6769736e 	strbvs	r7, [r9, -lr, ror #6]!
    5c70:	0064656e 	rsbeq	r6, r4, lr, ror #10
    5c74:	43475f5f 	movtmi	r5, #32607	@ 0x7f5f
    5c78:	45445f43 	strbmi	r5, [r4, #-3907]	@ 0xfffff0bd
    5c7c:	55525453 	ldrbpl	r5, [r2, #-1107]	@ 0xfffffbad
    5c80:	56495443 	strbpl	r5, [r9], -r3, asr #8
    5c84:	49535f45 	ldmdbmi	r3, {r0, r2, r6, r8, r9, sl, fp, ip, lr}^
    5c88:	3620455a 			@ <UNDEFINED> instruction: 0x3620455a
    5c8c:	4e4d0034 	mcrmi	0, 2, r0, cr13, cr4, {1}
    5c90:	5f434956 	svcpl	0x00434956
    5c94:	5f4e4143 	svcpl	0x004e4143
    5c98:	5f315852 	svcpl	0x00315852
    5c9c:	20515249 	subscs	r5, r1, r9, asr #4
    5ca0:	45003132 	strmi	r3, [r0, #-306]	@ 0xfffffece
    5ca4:	31495458 	cmpcc	r9, r8, asr r4
    5ca8:	31425031 	cmpcc	r2, r1, lsr r0
    5cac:	4d282031 	stcmi	0, cr2, [r8, #-196]!	@ 0xffffff3c
    5cb0:	49545845 	ldmdbmi	r4, {r0, r2, r6, fp, ip, lr}^
    5cb4:	6464755f 	strbtvs	r7, [r4], #-1375	@ 0xfffffaa1
    5cb8:	69704774 	ldmdbvs	r0!, {r2, r4, r5, r6, r8, r9, sl, lr}^
    5cbc:	6e69506f 	cdpvs	0, 6, cr5, cr9, cr15, {3}
    5cc0:	7b29745f 	blvc	a62e44 <_Min_Stack_Size+0xa62a44>
    5cc4:	5458454d 	ldrbpl	r4, [r8], #-1357	@ 0xfffffab3
    5cc8:	494c5f49 	stmdbmi	ip, {r0, r3, r6, r8, r9, sl, fp, ip, lr}^
    5ccc:	3131454e 	teqcc	r1, lr, asr #10
    5cd0:	5047202c 	subpl	r2, r7, ip, lsr #32
    5cd4:	2c424f49 	mcrrcs	15, 4, r4, r2, cr9
    5cd8:	50474d20 	subpl	r4, r7, r0, lsr #26
    5cdc:	505f4f49 	subspl	r4, pc, r9, asr #30
    5ce0:	31314e49 	teqcc	r1, r9, asr #28
    5ce4:	4e4d202c 	cdpmi	0, 4, cr2, cr13, cr12, {1}
    5ce8:	5f434956 	svcpl	0x00434956
    5cec:	49545845 	ldmdbmi	r4, {r0, r2, r6, fp, ip, lr}^
    5cf0:	315f3531 	cmpcc	pc, r1, lsr r5	@ <UNPREDICTABLE>
    5cf4:	52495f30 	subpl	r5, r9, #48, 30	@ 0xc0
    5cf8:	5f007d51 	svcpl	0x00007d51
    5cfc:	4e49555f 	mcrmi	5, 2, r5, cr9, cr15, {2}
    5d00:	5f363154 	svcpl	0x00363154
    5d04:	29632843 	stmdbcs	r3!, {r0, r1, r6, fp, sp}^
    5d08:	4d006320 	stcmi	3, cr6, [r0, #-128]	@ 0xffffff80
    5d0c:	4f495047 	svcmi	0x00495047
    5d10:	6464755f 	strbtvs	r7, [r4], #-1375	@ 0xfffffaa1
    5d14:	6e695074 	mcrvs	0, 3, r5, cr9, cr4, {3}
    5d18:	65646f4d 	strbvs	r6, [r4, #-3917]!	@ 0xfffff0b3
    5d1c:	5f00745f 	svcpl	0x0000745f
    5d20:	4144555f 	cmpmi	r4, pc, asr r5
    5d24:	4942495f 	stmdbmi	r2, {r0, r1, r2, r3, r4, r6, r8, fp, lr}^
    5d28:	205f5f54 	subscs	r5, pc, r4, asr pc	@ <UNPREDICTABLE>
    5d2c:	5f003233 	svcpl	0x00003233
    5d30:	41454c5f 	cmpmi	r5, pc, asr ip
    5d34:	36315453 			@ <UNDEFINED> instruction: 0x36315453
    5d38:	22682220 	rsbcs	r2, r8, #32, 4
    5d3c:	4e5f5f00 	cdpmi	15, 5, cr5, cr15, cr0, {0}
    5d40:	4e495f4f 	cdpmi	15, 4, cr5, cr9, cr15, {2}
    5d44:	454e494c 	strbmi	r4, [lr, #-2380]	@ 0xfffff6b4
    5d48:	31205f5f 			@ <UNDEFINED> instruction: 0x31205f5f
    5d4c:	544e4900 	strbpl	r4, [lr], #-2304	@ 0xfffff700
    5d50:	4d5f3436 	cfldrdmi	mvd3, [pc, #-216]	@ 5c80 <_Min_Stack_Size+0x5880>
    5d54:	28204e49 	stmdacs	r0!, {r0, r3, r6, r9, sl, fp, lr}
    5d58:	495f5f2d 	ldmdbmi	pc, {r0, r2, r3, r5, r8, r9, sl, fp, ip, lr}^	@ <UNPREDICTABLE>
    5d5c:	3436544e 	ldrtcc	r5, [r6], #-1102	@ 0xfffffbb2
    5d60:	58414d5f 	stmdapl	r1, {r0, r1, r2, r3, r4, r6, r8, sl, fp, lr}^
    5d64:	2d205f5f 	stccs	15, cr5, [r0, #-380]!	@ 0xfffffe84
    5d68:	00293120 	eoreq	r3, r9, r0, lsr #2
    5d6c:	5f433249 	svcpl	0x00433249
    5d70:	5f315253 	svcpl	0x00315253
    5d74:	505f4253 	subspl	r4, pc, r3, asr r2	@ <UNPREDICTABLE>
    5d78:	2820736f 	stmdacs	r0!, {r0, r1, r2, r3, r5, r6, r8, r9, ip, sp, lr}
    5d7c:	00295530 	eoreq	r5, r9, r0, lsr r5
    5d80:	54415f5f 	strbpl	r5, [r1], #-3935	@ 0xfffff0a1
    5d84:	43494d4f 	movtmi	r4, #40271	@ 0x9d4f
    5d88:	4c45525f 	sfmmi	f5, 2, [r5], {95}	@ 0x5f
    5d8c:	44455841 	strbmi	r5, [r5], #-2113	@ 0xfffff7bf
    5d90:	5f003020 	svcpl	0x00003020
    5d94:	4d52415f 	ldfmie	f4, [r2, #-380]	@ 0xfffffe84
    5d98:	4145465f 	cmpmi	r5, pc, asr r6
    5d9c:	45525554 	ldrbmi	r5, [r2, #-1364]	@ 0xfffffaac
    5da0:	504f435f 	subpl	r4, pc, pc, asr r3	@ <UNPREDICTABLE>
    5da4:	00434f52 	subeq	r4, r3, r2, asr pc
    5da8:	4c4c554e 	cfstr64mi	mvdx5, [ip], {78}	@ 0x4e
    5dac:	5254535f 	subspl	r5, r4, #2080374785	@ 0x7c000001
    5db0:	305c2720 	subscc	r2, ip, r0, lsr #14
    5db4:	58450027 	stmdapl	r5, {r0, r1, r2, r5}^
    5db8:	50334954 	eorspl	r4, r3, r4, asr r9
    5dbc:	28203342 	stmdacs	r0!, {r1, r6, r8, r9, ip, sp}
    5dc0:	5458454d 	ldrbpl	r4, [r8], #-1357	@ 0xfffffab3
    5dc4:	64755f49 	ldrbtvs	r5, [r5], #-3913	@ 0xfffff0b7
    5dc8:	70477464 	subvc	r7, r7, r4, ror #8
    5dcc:	69506f69 	ldmdbvs	r0, {r0, r3, r5, r6, r8, r9, sl, fp, sp, lr}^
    5dd0:	29745f6e 	ldmdbcs	r4!, {r1, r2, r3, r5, r6, r8, r9, sl, fp, ip, lr}^
    5dd4:	58454d7b 	stmdapl	r5, {r0, r1, r3, r4, r5, r6, r8, sl, fp, lr}^
    5dd8:	4c5f4954 	mrrcmi	9, 5, r4, pc, cr4	@ <UNPREDICTABLE>
    5ddc:	33454e49 	movtcc	r4, #24137	@ 0x5e49
    5de0:	5047202c 	subpl	r2, r7, ip, lsr #32
    5de4:	2c424f49 	mcrrcs	15, 4, r4, r2, cr9
    5de8:	50474d20 	subpl	r4, r7, r0, lsr #26
    5dec:	505f4f49 	subspl	r4, pc, r9, asr #30
    5df0:	2c334e49 	ldccs	14, cr4, [r3], #-292	@ 0xfffffedc
    5df4:	564e4d20 	strbpl	r4, [lr], -r0, lsr #26
    5df8:	455f4349 	ldrbmi	r4, [pc, #-841]	@ 5ab7 <_Min_Stack_Size+0x56b7>
    5dfc:	33495458 	movtcc	r5, #37976	@ 0x9458
    5e00:	5152495f 	cmppl	r2, pc, asr r9
    5e04:	5f5f007d 	svcpl	0x005f007d
    5e08:	5f4c4244 	svcpl	0x004c4244
    5e0c:	5f534148 	svcpl	0x00534148
    5e10:	49464e49 	stmdbmi	r6, {r0, r3, r6, r9, sl, fp, lr}^
    5e14:	5954494e 	ldmdbpl	r4, {r1, r2, r3, r6, r8, fp, lr}^
    5e18:	31205f5f 			@ <UNDEFINED> instruction: 0x31205f5f
    5e1c:	535f5f00 	cmppl	pc, #0, 30
    5e20:	415f4749 	cmpmi	pc, r9, asr #14
    5e24:	494d4f54 	stmdbmi	sp, {r2, r4, r6, r8, r9, sl, fp, lr}^
    5e28:	414d5f43 	cmpmi	sp, r3, asr #30
    5e2c:	205f5f58 	subscs	r5, pc, r8, asr pc	@ <UNPREDICTABLE>
    5e30:	66377830 			@ <UNDEFINED> instruction: 0x66377830
    5e34:	66666666 	strbtvs	r6, [r6], -r6, ror #12
    5e38:	55006666 	strpl	r6, [r0, #-1638]	@ 0xfffff99a
    5e3c:	36544e49 	ldrbcc	r4, [r4], -r9, asr #28
    5e40:	414d5f34 	cmpmi	sp, r4, lsr pc
    5e44:	5f282058 	svcpl	0x00282058
    5e48:	4e49555f 	mcrmi	5, 2, r5, cr9, cr15, {2}
    5e4c:	5f343654 	svcpl	0x00343654
    5e50:	5f58414d 	svcpl	0x0058414d
    5e54:	4900295f 	stmdbmi	r0, {r0, r1, r2, r3, r4, r6, r8, fp, sp}
    5e58:	535f4332 	cmppl	pc, #-939524096	@ 0xc8000000
    5e5c:	505f3152 	subspl	r3, pc, r2, asr r1	@ <UNPREDICTABLE>
    5e60:	52454345 	subpl	r4, r5, #335544321	@ 0x14000001
    5e64:	734d5f52 	movtvc	r5, #57170	@ 0xdf52
    5e68:	3028206b 	eorcc	r2, r8, fp, rrx
    5e6c:	4c553178 	ldfmie	f3, [r5], {120}	@ 0x78
    5e70:	203c3c20 	eorscs	r3, ip, r0, lsr #24
    5e74:	5f433249 	svcpl	0x00433249
    5e78:	5f315253 	svcpl	0x00315253
    5e7c:	45434550 	strbmi	r4, [r3, #-1360]	@ 0xfffffab0
    5e80:	505f5252 	subspl	r5, pc, r2, asr r2	@ <UNPREDICTABLE>
    5e84:	0029736f 	eoreq	r7, r9, pc, ror #6
    5e88:	49545845 	ldmdbmi	r4, {r0, r2, r6, fp, ip, lr}^
    5e8c:	52495f33 	subpl	r5, r9, #51, 30	@ 0xcc
    5e90:	6e614851 	mcrvs	8, 3, r4, cr1, cr1, {2}
    5e94:	72656c64 	rsbvc	r6, r5, #100, 24	@ 0x6400
    5e98:	415f5f00 	cmpmi	pc, r0, lsl #30
    5e9c:	415f4d52 	cmpmi	pc, r2, asr sp	@ <UNPREDICTABLE>
    5ea0:	5f484352 	svcpl	0x00484352
    5ea4:	5f545845 	svcpl	0x00545845
    5ea8:	56494449 	strbpl	r4, [r9], -r9, asr #8
    5eac:	31205f5f 			@ <UNDEFINED> instruction: 0x31205f5f
    5eb0:	42435300 	submi	r5, r3, #0, 6
    5eb4:	53282820 			@ <UNDEFINED> instruction: 0x53282820
    5eb8:	725f4243 	subsvc	r4, pc, #805306372	@ 0x30000004
    5ebc:	73696765 	cmnvc	r9, #26476544	@ 0x1940000
    5ec0:	4d726574 	cfldr64mi	mvdx6, [r2, #-464]!	@ 0xfffffe30
    5ec4:	745f7061 	ldrbvc	r7, [pc], #-97	@ 5ecc <_Min_Stack_Size+0x5acc>
    5ec8:	4353292a 	cmpmi	r3, #688128	@ 0xa8000
    5ecc:	41425f42 	cmpmi	r2, r2, asr #30
    5ed0:	00294553 	eoreq	r4, r9, r3, asr r5
    5ed4:	544e4955 	strbpl	r4, [lr], #-2389	@ 0xfffff6ab
    5ed8:	28435f38 	stmdacs	r3, {r3, r4, r5, r8, r9, sl, fp, ip, lr}^
    5edc:	5f202978 	svcpl	0x00202978
    5ee0:	4e49555f 	mcrmi	5, 2, r5, cr9, cr15, {2}
    5ee4:	435f3854 	cmpmi	pc, #84, 16	@ 0x540000
    5ee8:	00297828 	eoreq	r7, r9, r8, lsr #16
    5eec:	5f433249 	svcpl	0x00433249
    5ef0:	5f315253 	svcpl	0x00315253
    5ef4:	454e5852 	strbmi	r5, [lr, #-2130]	@ 0xfffff7ae
    5ef8:	43324920 	teqmi	r2, #32, 18	@ 0x80000
    5efc:	3152535f 	cmpcc	r2, pc, asr r3
    5f00:	4e58525f 	mrcmi	2, 2, r5, cr8, cr15, {2}
    5f04:	734d5f45 	movtvc	r5, #57157	@ 0xdf45
    5f08:	3249006b 	subcc	r0, r9, #107	@ 0x6b
    5f0c:	52535f43 	subspl	r5, r3, #268	@ 0x10c
    5f10:	55445f32 	strbpl	r5, [r4, #-3890]	@ 0xfffff0ce
    5f14:	20464c41 	subcs	r4, r6, r1, asr #24
    5f18:	5f433249 	svcpl	0x00433249
    5f1c:	5f325253 	svcpl	0x00325253
    5f20:	4c415544 	cfstr64mi	mvdx5, [r1], {68}	@ 0x44
    5f24:	734d5f46 	movtvc	r5, #57158	@ 0xdf46
    5f28:	5f5f006b 	svcpl	0x005f006b
    5f2c:	5f4c4244 	svcpl	0x004c4244
    5f30:	49434544 	stmdbmi	r3, {r2, r6, r8, sl, lr}^
    5f34:	5f4c414d 	svcpl	0x004c414d
    5f38:	5f474944 	svcpl	0x00474944
    5f3c:	3731205f 			@ <UNDEFINED> instruction: 0x3731205f
    5f40:	564e4d00 	strbpl	r4, [lr], -r0, lsl #26
    5f44:	555f4349 	ldrbpl	r4, [pc, #-841]	@ 5c03 <_Min_Stack_Size+0x5803>
    5f48:	54524153 	ldrbpl	r4, [r2], #-339	@ 0xfffffead
    5f4c:	52495f32 	subpl	r5, r9, #50, 30	@ 0xc8
    5f50:	38332051 	ldmdacc	r3!, {r0, r4, r6, sp}
    5f54:	685f5f00 	ldmdavs	pc, {r8, r9, sl, fp, ip, lr}^	@ <UNPREDICTABLE>
    5f58:	5f657661 	svcpl	0x00657661
    5f5c:	676e6f6c 	strbvs	r6, [lr, -ip, ror #30]!
    5f60:	31203233 			@ <UNDEFINED> instruction: 0x31203233
    5f64:	544e4900 	strbpl	r4, [lr], #-2304	@ 0xfffff700
    5f68:	41454c5f 	cmpmi	r5, pc, asr ip
    5f6c:	5f385453 	svcpl	0x00385453
    5f70:	204e494d 	subcs	r4, lr, sp, asr #18
    5f74:	5f5f2d28 	svcpl	0x005f2d28
    5f78:	5f544e49 	svcpl	0x00544e49
    5f7c:	5341454c 	movtpl	r4, #5452	@ 0x154c
    5f80:	4d5f3854 	ldclmi	8, cr3, [pc, #-336]	@ 5e38 <_Min_Stack_Size+0x5a38>
    5f84:	5f5f5841 	svcpl	0x005f5841
    5f88:	31202d20 			@ <UNDEFINED> instruction: 0x31202d20
    5f8c:	53550029 	cmppl	r5, #41	@ 0x29
    5f90:	31545241 	cmpcc	r4, r1, asr #4
    5f94:	5341425f 	movtpl	r4, #4703	@ 0x125f
    5f98:	78302045 	ldmdavc	r0!, {r0, r2, r6, sp}
    5f9c:	31303034 	teqcc	r0, r4, lsr r0
    5fa0:	30303833 	eorscc	r3, r0, r3, lsr r8
    5fa4:	67004c55 	smlsdvs	r0, r5, ip, r4
    5fa8:	52497465 	subpl	r7, r9, #1694498816	@ 0x65000000
    5fac:	736f5051 	cmnvc	pc, #81	@ 0x51
    5fb0:	51524928 	cmppl	r2, r8, lsr #18
    5fb4:	626d754e 	rsbvs	r7, sp, #327155712	@ 0x13800000
    5fb8:	20297265 	eorcs	r7, r9, r5, ror #4
    5fbc:	51524928 	cmppl	r2, r8, lsr #18
    5fc0:	626d754e 	rsbvs	r7, sp, #327155712	@ 0x13800000
    5fc4:	25207265 	strcs	r7, [r0, #-613]!	@ 0xfffffd9b
    5fc8:	29323320 	ldmdbcs	r2!, {r5, r8, r9, ip, sp}
    5fcc:	43324900 	teqmi	r2, #0, 18
    5fd0:	3252535f 	subscc	r5, r2, #2080374785	@ 0x7c000001
    5fd4:	424d535f 	submi	r5, sp, #2080374785	@ 0x7c000001
    5fd8:	41464544 	cmpmi	r6, r4, asr #10
    5fdc:	20544c55 	subscs	r4, r4, r5, asr ip
    5fe0:	5f433249 	svcpl	0x00433249
    5fe4:	5f325253 	svcpl	0x00325253
    5fe8:	44424d53 	strbmi	r4, [r2], #-3411	@ 0xfffff2ad
    5fec:	55414645 	strbpl	r4, [r1, #-1605]	@ 0xfffff9bb
    5ff0:	4d5f544c 	cfldrdmi	mvd5, [pc, #-304]	@ 5ec8 <_Min_Stack_Size+0x5ac8>
    5ff4:	75006b73 	strvc	r6, [r0, #-2931]	@ 0xfffff48d
    5ff8:	50746464 	rsbspl	r6, r4, r4, ror #8
    5ffc:	70536e69 	subsvc	r6, r3, r9, ror #28
    6000:	00646565 	rsbeq	r6, r4, r5, ror #10
    6004:	5f433249 	svcpl	0x00433249
    6008:	5f315243 	svcpl	0x00315243
    600c:	54534f4e 	ldrbpl	r4, [r3], #-3918	@ 0xfffff0b2
    6010:	43544552 	cmpmi	r4, #343932928	@ 0x14800000
    6014:	32492048 	subcc	r2, r9, #72	@ 0x48
    6018:	52435f43 	subpl	r5, r3, #268	@ 0x10c
    601c:	4f4e5f31 	svcmi	0x004e5f31
    6020:	45525453 	ldrbmi	r5, [r2, #-1107]	@ 0xfffffbad
    6024:	5f484354 	svcpl	0x00484354
    6028:	006b734d 	rsbeq	r7, fp, sp, asr #6
    602c:	4e495f5f 	mcrmi	15, 2, r5, cr9, cr15, {2}
    6030:	5f363154 	svcpl	0x00363154
    6034:	5f58414d 	svcpl	0x0058414d
    6038:	7830205f 	ldmdavc	r0!, {r0, r1, r2, r3, r4, r6, sp}
    603c:	66666637 			@ <UNDEFINED> instruction: 0x66666637
    6040:	475f5f00 	ldrbmi	r5, [pc, -r0, lsl #30]
    6044:	415f4343 	cmpmi	pc, r3, asr #6
    6048:	494d4f54 	stmdbmi	sp, {r2, r4, r6, r8, r9, sl, fp, lr}^
    604c:	48435f43 	stmdami	r3, {r0, r1, r6, r8, r9, sl, fp, ip, lr}^
    6050:	4c5f5241 	lfmmi	f5, 2, [pc], {65}	@ 0x41
    6054:	5f4b434f 	svcpl	0x004b434f
    6058:	45455246 	strbmi	r5, [r5, #-582]	@ 0xfffffdba
    605c:	49003220 	stmdbmi	r0, {r5, r9, ip, sp}
    6060:	535f4332 	cmppl	pc, #-939524096	@ 0xc8000000
    6064:	415f3152 	cmpmi	pc, r2, asr r1	@ <UNPREDICTABLE>
    6068:	5f4f4c52 	svcpl	0x004f4c52
    606c:	20736f50 	rsbscs	r6, r3, r0, asr pc
    6070:	29553928 	ldmdbcs	r5, {r3, r5, r8, fp, ip, sp}^
    6074:	565f5f00 	ldrbpl	r5, [pc], -r0, lsl #30
    6078:	49535245 	ldmdbmi	r3, {r0, r2, r6, r9, ip, lr}^
    607c:	5f5f4e4f 	svcpl	0x005f4e4f
    6080:	32312220 	eorscc	r2, r1, #32, 4
    6084:	312e332e 			@ <UNDEFINED> instruction: 0x312e332e
    6088:	32303220 	eorscc	r3, r0, #32, 4
    608c:	32363033 	eorscc	r3, r6, #51	@ 0x33
    6090:	4d002236 	sfmmi	f2, 4, [r0, #-216]	@ 0xffffff28
    6094:	4349564e 	movtmi	r5, #38478	@ 0x964e
    6098:	5241555f 	subpl	r5, r1, #398458880	@ 0x17c00000
    609c:	495f3554 	ldmdbmi	pc, {r2, r4, r6, r8, sl, ip, sp}^	@ <UNPREDICTABLE>
    60a0:	35205152 	strcc	r5, [r0, #-338]!	@ 0xfffffeae
    60a4:	5f5f0033 	svcpl	0x005f0033
    60a8:	5f505353 	svcpl	0x00505353
    60ac:	54524f46 	ldrbpl	r4, [r2], #-3910	@ 0xfffff0ba
    60b0:	5f594649 	svcpl	0x00594649
    60b4:	4556454c 	ldrbmi	r4, [r6, #-1356]	@ 0xfffffab4
    60b8:	0030204c 	eorseq	r2, r0, ip, asr #32
    60bc:	5f433249 	svcpl	0x00433249
    60c0:	5f315243 	svcpl	0x00315243
    60c4:	5f534f50 	svcpl	0x00534f50
    60c8:	206b734d 	rsbcs	r7, fp, sp, asr #6
    60cc:	31783028 	cmncc	r8, r8, lsr #32
    60d0:	3c204c55 	stccc	12, cr4, [r0], #-340	@ 0xfffffeac
    60d4:	3249203c 	subcc	r2, r9, #60	@ 0x3c
    60d8:	52435f43 	subpl	r5, r3, #268	@ 0x10c
    60dc:	4f505f31 	svcmi	0x00505f31
    60e0:	6f505f53 	svcvs	0x00505f53
    60e4:	5f002973 	svcpl	0x00002973
    60e8:	4953585f 	ldmdbmi	r3, {r0, r1, r2, r3, r4, r6, fp, ip, lr}^
    60ec:	5349565f 	movtpl	r5, #38495	@ 0x965f
    60f0:	454c4249 	strbmi	r4, [ip, #-585]	@ 0xfffffdb7
    60f4:	45003020 	strmi	r3, [r0, #-32]	@ 0xffffffe0
    60f8:	43495458 	movtmi	r5, #37976	@ 0x9458
    60fc:	41007852 	tstmi	r0, r2, asr r8
    6100:	5f4f4946 	svcpl	0x004f4946
    6104:	49545845 	ldmdbmi	r4, {r0, r2, r6, fp, ip, lr}^
    6108:	695f5243 	ldmdbvs	pc, {r0, r1, r6, r9, ip, lr}^	@ <UNPREDICTABLE>
    610c:	7865646e 	stmdavc	r5!, {r1, r2, r3, r5, r6, sl, sp, lr}^
    6110:	43324900 	teqmi	r2, #0, 18
    6114:	3252435f 	subscc	r4, r2, #2080374785	@ 0x7c000001
    6118:	4552465f 	ldrbmi	r4, [r2, #-1631]	@ 0xfffff9a1
    611c:	734d5f51 	movtvc	r5, #57169	@ 0xdf51
    6120:	3028206b 	eorcc	r2, r8, fp, rrx
    6124:	55463378 	strbpl	r3, [r6, #-888]	@ 0xfffffc88
    6128:	3c3c204c 	ldccc	0, cr2, [ip], #-304	@ 0xfffffed0
    612c:	43324920 	teqmi	r2, #32, 18	@ 0x80000
    6130:	3252435f 	subscc	r4, r2, #2080374785	@ 0x7c000001
    6134:	4552465f 	ldrbmi	r4, [r2, #-1631]	@ 0xfffff9a1
    6138:	6f505f51 	svcvs	0x00505f51
    613c:	42002973 	andmi	r2, r0, #1884160	@ 0x1cc000
    6140:	00525253 	subseq	r5, r2, r3, asr r2
    6144:	5f433249 	svcpl	0x00433249
    6148:	5f325253 	svcpl	0x00325253
    614c:	48424d53 	stmdami	r2, {r0, r1, r4, r6, r8, sl, fp, lr}^
    6150:	2054534f 	subscs	r5, r4, pc, asr #6
    6154:	5f433249 	svcpl	0x00433249
    6158:	5f325253 	svcpl	0x00325253
    615c:	48424d53 	stmdami	r2, {r0, r1, r4, r6, r8, sl, fp, lr}^
    6160:	5f54534f 	svcpl	0x0054534f
    6164:	006b734d 	rsbeq	r7, fp, sp, asr #6
    6168:	49535f5f 	ldmdbmi	r3, {r0, r1, r2, r3, r4, r6, r8, r9, sl, fp, ip, lr}^
    616c:	54415f47 	strbpl	r5, [r1], #-3911	@ 0xfffff0b9
    6170:	43494d4f 	movtmi	r4, #40271	@ 0x9d4f
    6174:	4449575f 	strbmi	r5, [r9], #-1887	@ 0xfffff8a1
    6178:	5f5f4854 	svcpl	0x005f4854
    617c:	00323320 	eorseq	r3, r2, r0, lsr #6
    6180:	49564e4d 	ldmdbmi	r6, {r0, r2, r3, r6, r9, sl, fp, lr}^
    6184:	44415f43 	strbmi	r5, [r1], #-3907	@ 0xfffff0bd
    6188:	325f3143 	subscc	r3, pc, #-1073741808	@ 0xc0000010
    618c:	5152495f 	cmppl	r2, pc, asr r9
    6190:	00383120 	eorseq	r3, r8, r0, lsr #2
    6194:	4c465f5f 	mcrrmi	15, 5, r5, r6, cr15
    6198:	5f343654 	svcpl	0x00343654
    619c:	49535045 	ldmdbmi	r3, {r0, r2, r6, ip, lr}^
    61a0:	5f4e4f4c 	svcpl	0x004e4f4c
    61a4:	2e32205f 	mrccs	0, 1, r2, cr2, cr15, {2}
    61a8:	34303232 	ldrtcc	r3, [r0], #-562	@ 0xfffffdce
    61ac:	34303634 	ldrtcc	r3, [r0], #-1588	@ 0xfffff9cc
    61b0:	30353239 	eorscc	r3, r5, r9, lsr r2
    61b4:	31333133 	teqcc	r3, r3, lsr r1
    61b8:	36312d65 	ldrtcc	r2, [r1], -r5, ror #26
    61bc:	00343646 	eorseq	r3, r4, r6, asr #12
    61c0:	5f433249 	svcpl	0x00433249
    61c4:	5f315253 	svcpl	0x00315253
    61c8:	31444441 	cmpcc	r4, r1, asr #8
    61cc:	6f505f30 	svcvs	0x00505f30
    61d0:	33282073 			@ <UNDEFINED> instruction: 0x33282073
    61d4:	45002955 	strmi	r2, [r0, #-2389]	@ 0xfffff6ab
    61d8:	30495458 	subcc	r5, r9, r8, asr r4
    61dc:	5152495f 	cmppl	r2, pc, asr r9
    61e0:	646e6148 	strbtvs	r6, [lr], #-328	@ 0xfffffeb8
    61e4:	0072656c 	rsbseq	r6, r2, ip, ror #10
    61e8:	54555f5f 	ldrbpl	r5, [r5], #-3935	@ 0xfffff0a1
    61ec:	42495f41 	submi	r5, r9, #260	@ 0x104
    61f0:	5f5f5449 	svcpl	0x005f5449
    61f4:	00343620 	eorseq	r3, r4, r0, lsr #12
    61f8:	4c555f5f 	mrrcmi	15, 5, r5, r5, cr15	@ <UNPREDICTABLE>
    61fc:	4343414c 	movtmi	r4, #12620	@ 0x314c
    6200:	495f4d55 	ldmdbmi	pc, {r0, r2, r4, r6, r8, sl, fp, lr}^	@ <UNPREDICTABLE>
    6204:	5f544942 	svcpl	0x00544942
    6208:	3233205f 	eorscc	r2, r3, #95	@ 0x5f
    620c:	415f5f00 	cmpmi	pc, r0, lsl #30
    6210:	465f4d52 			@ <UNDEFINED> instruction: 0x465f4d52
    6214:	55544145 	ldrbpl	r4, [r4, #-325]	@ 0xfffffebb
    6218:	435f4552 	cmpmi	pc, #343932928	@ 0x14800000
    621c:	32334352 	eorscc	r4, r3, #1207959553	@ 0x48000001
    6220:	555f5f00 	ldrbpl	r5, [pc, #-3840]	@ 5328 <_Min_Stack_Size+0x4f28>
    6224:	52464c4c 	subpl	r4, r6, #76, 24	@ 0x4c00
    6228:	5f544341 	svcpl	0x00544341
    622c:	49535045 	ldmdbmi	r3, {r0, r2, r6, ip, lr}^
    6230:	5f4e4f4c 	svcpl	0x004e4f4c
    6234:	7830205f 	ldmdavc	r0!, {r0, r1, r2, r3, r4, r6, sp}
    6238:	362d5031 			@ <UNDEFINED> instruction: 0x362d5031
    623c:	4c4c5534 	cfstr64mi	mvdx5, [ip], {52}	@ 0x34
    6240:	5f5f0052 	svcpl	0x005f0052
    6244:	43445453 	movtmi	r5, #17491	@ 0x4453
    6248:	534f485f 	movtpl	r4, #63583	@ 0xf85f
    624c:	5f444554 	svcpl	0x00444554
    6250:	0031205f 	eorseq	r2, r1, pc, asr r0
    6254:	49555f5f 	ldmdbmi	r5, {r0, r1, r2, r3, r4, r6, r8, r9, sl, fp, ip, lr}^
    6258:	4c5f544e 	cfldrdmi	mvd5, [pc], {78}	@ 0x4e
    625c:	54534145 	ldrbpl	r4, [r3], #-325	@ 0xfffffebb
    6260:	4d5f3233 	lfmmi	f3, 2, [pc, #-204]	@ 619c <_Min_Stack_Size+0x5d9c>
    6264:	5f5f5841 	svcpl	0x005f5841
    6268:	66783020 	ldrbtvs	r3, [r8], -r0, lsr #32
    626c:	66666666 	strbtvs	r6, [r6], -r6, ror #12
    6270:	55666666 	strbpl	r6, [r6, #-1638]!	@ 0xfffff99a
    6274:	5f5f004c 	svcpl	0x005f004c
    6278:	455a4953 	ldrbmi	r4, [sl, #-2387]	@ 0xfffff6ad
    627c:	575f464f 	ldrbpl	r4, [pc, -pc, asr #12]
    6280:	5f544e49 	svcpl	0x00544e49
    6284:	205f5f54 	subscs	r5, pc, r4, asr pc	@ <UNPREDICTABLE>
    6288:	32490034 	subcc	r0, r9, #52	@ 0x34
    628c:	52535f43 	subspl	r5, r3, #268	@ 0x10c
    6290:	44415f31 	strbmi	r5, [r1], #-3889	@ 0xfffff0cf
    6294:	49205244 	stmdbmi	r0!, {r2, r6, r9, ip, lr}
    6298:	535f4332 	cmppl	pc, #-939524096	@ 0xc8000000
    629c:	415f3152 	cmpmi	pc, r2, asr r1	@ <UNPREDICTABLE>
    62a0:	5f524444 	svcpl	0x00524444
    62a4:	006b734d 	rsbeq	r7, fp, sp, asr #6
    62a8:	52415f5f 	subpl	r5, r1, #380	@ 0x17c
    62ac:	45465f4d 	strbmi	r5, [r6, #-3917]	@ 0xfffff0b3
    62b0:	52555441 	subspl	r5, r5, #1090519040	@ 0x41000000
    62b4:	4e555f45 	cdpmi	15, 5, cr5, cr5, cr5, {2}
    62b8:	47494c41 	strbmi	r4, [r9, -r1, asr #24]
    62bc:	2044454e 	subcs	r4, r4, lr, asr #10
    62c0:	5f5f0031 	svcpl	0x005f0031
    62c4:	5f585847 	svcpl	0x00585847
    62c8:	45505954 	ldrbmi	r5, [r0, #-2388]	@ 0xfffff6ac
    62cc:	4f464e49 	svcmi	0x00464e49
    62d0:	5551455f 	ldrbpl	r4, [r1, #-1375]	@ 0xfffffaa1
    62d4:	54494c41 	strbpl	r4, [r9], #-3137	@ 0xfffff3bf
    62d8:	4e495f59 	mcrmi	15, 2, r5, cr9, cr9, {2}
    62dc:	454e494c 	strbmi	r4, [lr, #-2380]	@ 0xfffff6b4
    62e0:	5f003020 	svcpl	0x00003020
    62e4:	42444c5f 	submi	r4, r4, #24320	@ 0x5f00
    62e8:	45445f4c 	strbmi	r5, [r4, #-3916]	@ 0xfffff0b4
    62ec:	414d4943 	cmpmi	sp, r3, asr #18
    62f0:	49445f4c 	stmdbmi	r4, {r2, r3, r6, r8, r9, sl, fp, ip, lr}^
    62f4:	205f5f47 	subscs	r5, pc, r7, asr #30
    62f8:	47003731 	smladxmi	r0, r1, r7, r3
    62fc:	444f4950 	strbmi	r4, [pc], #-2384	@ 6304 <_Min_Stack_Size+0x5f04>
    6300:	47282820 	strmi	r2, [r8, -r0, lsr #16]!
    6304:	5f4f4950 	svcpl	0x004f4950
    6308:	69676572 	stmdbvs	r7!, {r1, r4, r5, r6, r8, sl, sp, lr}^
    630c:	72657473 	rsbvc	r7, r5, #1929379840	@ 0x73000000
    6310:	5f70614d 	svcpl	0x0070614d
    6314:	47292a74 			@ <UNDEFINED> instruction: 0x47292a74
    6318:	444f4950 	strbmi	r4, [pc], #-2384	@ 6320 <_Min_Stack_Size+0x5f20>
    631c:	5341425f 	movtpl	r4, #4703	@ 0x125f
    6320:	5f002945 	svcpl	0x00002945
    6324:	43414c5f 	movtmi	r4, #7263	@ 0x1c5f
    6328:	5f4d5543 	svcpl	0x004d5543
    632c:	5f4e494d 	svcpl	0x004e494d
    6330:	2d28205f 	stccs	0, cr2, [r8, #-380]!	@ 0xfffffe84
    6334:	50315830 	eorspl	r5, r1, r0, lsr r8
    6338:	4b4c3133 	blmi	131280c <_Min_Stack_Size+0x131240c>
    633c:	3158302d 	cmpcc	r8, sp, lsr #32
    6340:	4c313350 	ldcmi	3, cr3, [r1], #-320	@ 0xfffffec0
    6344:	5f00294b 	svcpl	0x0000294b
    6348:	544e495f 	strbpl	r4, [lr], #-2399	@ 0xfffff6a1
    634c:	5341465f 	movtpl	r4, #5727	@ 0x165f
    6350:	4d5f3854 	ldclmi	8, cr3, [pc, #-336]	@ 6208 <_Min_Stack_Size+0x5e08>
    6354:	5f5f5841 	svcpl	0x005f5841
    6358:	37783020 	ldrbcc	r3, [r8, -r0, lsr #32]!
    635c:	66666666 	strbtvs	r6, [r6], -r6, ror #12
    6360:	00666666 	rsbeq	r6, r6, r6, ror #12
    6364:	4c465f5f 	mcrrmi	15, 5, r5, r6, cr15
    6368:	5f323354 	svcpl	0x00323354
    636c:	5f534148 	svcpl	0x00534148
    6370:	4f4e4544 	svcmi	0x004e4544
    6374:	5f5f4d52 	svcpl	0x005f4d52
    6378:	5f003120 	svcpl	0x00003120
    637c:	5341465f 	movtpl	r4, #5727	@ 0x165f
    6380:	00203854 	eoreq	r3, r0, r4, asr r8
    6384:	4c555f5f 	mrrcmi	15, 5, r5, r5, cr15	@ <UNPREDICTABLE>
    6388:	4343414c 	movtmi	r4, #12620	@ 0x314c
    638c:	4d5f4d55 	ldclmi	13, cr4, [pc, #-340]	@ 6240 <_Min_Stack_Size+0x5e40>
    6390:	5f5f4e49 	svcpl	0x005f4e49
    6394:	302e3020 	eorcc	r3, lr, r0, lsr #32
    6398:	4b4c4c55 	blmi	13194f4 <_Min_Stack_Size+0x13190f4>
    639c:	50474d00 	subpl	r4, r7, r0, lsl #26
    63a0:	755f4f49 	ldrbvc	r4, [pc, #-3913]	@ 545f <_Min_Stack_Size+0x505f>
    63a4:	50746464 	rsbspl	r6, r4, r4, ror #8
    63a8:	6f4c6e69 	svcvs	0x004c6e69
    63ac:	5f636967 	svcpl	0x00636967
    63b0:	454d0074 	strbmi	r0, [sp, #-116]	@ 0xffffff8c
    63b4:	5f495458 	svcpl	0x00495458
    63b8:	454e494c 	strbmi	r4, [lr, #-2380]	@ 0xfffff6b4
    63bc:	4d003131 	stfmis	f3, [r0, #-196]	@ 0xffffff3c
    63c0:	4349564e 	movtmi	r5, #38478	@ 0x964e
    63c4:	4d49545f 	cfstrdmi	mvd5, [r9, #-380]	@ 0xfffffe84
    63c8:	52425f38 	subpl	r5, r2, #56, 30	@ 0xe0
    63cc:	52495f4b 	subpl	r5, r9, #300	@ 0x12c
    63d0:	33342051 	teqcc	r4, #81	@ 0x51
    63d4:	58454d00 	stmdapl	r5, {r8, sl, fp, lr}^
    63d8:	4c5f4954 	mrrcmi	9, 5, r4, pc, cr4	@ <UNPREDICTABLE>
    63dc:	31454e49 	cmpcc	r5, r9, asr #28
    63e0:	56450032 			@ <UNDEFINED> instruction: 0x56450032
    63e4:	4d005243 	sfmmi	f5, 4, [r0, #-268]	@ 0xfffffef4
    63e8:	49545845 	ldmdbmi	r4, {r0, r2, r6, fp, ip, lr}^
    63ec:	4e494c5f 	mcrmi	12, 2, r4, cr9, cr15, {2}
    63f0:	00333145 	eorseq	r3, r3, r5, asr #2
    63f4:	49564e4d 	ldmdbmi	r6, {r0, r2, r3, r6, r9, sl, fp, lr}^
    63f8:	4d445f43 	stclmi	15, cr5, [r4, #-268]	@ 0xfffffef4
    63fc:	435f3141 	cmpmi	pc, #1073741840	@ 0x40000010
    6400:	6e6e6168 	powvsez	f6, f6, #0.0
    6404:	5f326c65 	svcpl	0x00326c65
    6408:	20515249 	subscs	r5, r1, r9, asr #4
    640c:	4d003231 	sfmmi	f3, 4, [r0, #-196]	@ 0xffffff3c
    6410:	49545845 	ldmdbmi	r4, {r0, r2, r6, fp, ip, lr}^
    6414:	4e494c5f 	mcrmi	12, 2, r4, cr9, cr15, {2}
    6418:	00343145 	eorseq	r3, r4, r5, asr #2
    641c:	5458454d 	ldrbpl	r4, [r8], #-1357	@ 0xfffffab3
    6420:	494c5f49 	stmdbmi	ip, {r0, r3, r6, r8, r9, sl, fp, ip, lr}^
    6424:	3531454e 	ldrcc	r4, [r1, #-1358]!	@ 0xfffffab2
    6428:	415f5f00 	cmpmi	pc, r0, lsl #30
    642c:	415f4d52 	cmpmi	pc, r2, asr sp	@ <UNPREDICTABLE>
    6430:	535f4d53 	cmppl	pc, #5312	@ 0x14c0
    6434:	41544e59 	cmpmi	r4, r9, asr lr
    6438:	4e555f58 	mrcmi	15, 2, r5, cr5, cr8, {2}
    643c:	45494649 	strbmi	r4, [r9, #-1609]	@ 0xfffff9b7
    6440:	205f5f44 	subscs	r5, pc, r4, asr #30
    6444:	41550031 	cmpmi	r5, r1, lsr r0
    6448:	4e5f4950 			@ <UNDEFINED> instruction: 0x4e5f4950
    644c:	49004b4f 	stmdbmi	r0, {r0, r1, r2, r3, r6, r8, r9, fp, lr}
    6450:	535f4332 	cmppl	pc, #-939524096	@ 0xc8000000
    6454:	415f3152 	cmpmi	pc, r2, asr r1	@ <UNPREDICTABLE>
    6458:	32492046 	subcc	r2, r9, #70	@ 0x46
    645c:	52535f43 	subspl	r5, r3, #268	@ 0x10c
    6460:	46415f31 			@ <UNDEFINED> instruction: 0x46415f31
    6464:	6b734d5f 	blvs	1cd99e8 <_Min_Stack_Size+0x1cd95e8>
    6468:	555f5f00 	ldrbpl	r5, [pc, #-3840]	@ 5570 <_Min_Stack_Size+0x5170>
    646c:	33544e49 	cmpcc	r4, #1168	@ 0x490
    6470:	59545f32 	ldmdbpl	r4, {r1, r4, r5, r8, r9, sl, fp, ip, lr}^
    6474:	5f5f4550 	svcpl	0x005f4550
    6478:	6e6f6c20 	cdpvs	12, 6, cr6, cr15, cr0, {1}
    647c:	6e752067 	cdpvs	0, 7, cr2, cr5, cr7, {3}
    6480:	6e676973 			@ <UNDEFINED> instruction: 0x6e676973
    6484:	69206465 	stmdbvs	r0!, {r0, r2, r5, r6, sl, sp, lr}
    6488:	4d00746e 	cfstrsmi	mvf7, [r0, #-440]	@ 0xfffffe48
    648c:	4349564e 	movtmi	r5, #38478	@ 0x964e
    6490:	4d49545f 	cfstrdmi	mvd5, [r9, #-380]	@ 0xfffffe84
    6494:	52545f31 	subspl	r5, r4, #49, 30	@ 0xc4
    6498:	4f435f47 	svcmi	0x00435f47
    649c:	52495f4d 	subpl	r5, r9, #308	@ 0x134
    64a0:	36322051 			@ <UNDEFINED> instruction: 0x36322051
    64a4:	415f5f00 	cmpmi	pc, r0, lsl #30
    64a8:	465f4d52 			@ <UNDEFINED> instruction: 0x465f4d52
    64ac:	55544145 	ldrbpl	r4, [r4, #-325]	@ 0xfffffebb
    64b0:	445f4552 	ldrbmi	r4, [pc], #-1362	@ 64b8 <_Min_Stack_Size+0x60b8>
    64b4:	5250544f 	subspl	r5, r0, #1325400064	@ 0x4f000000
    64b8:	5f00444f 	svcpl	0x0000444f
    64bc:	7568745f 	strbvc	r7, [r8, #-1119]!	@ 0xfffffba1
    64c0:	5f32626d 	svcpl	0x0032626d
    64c4:	0031205f 	eorseq	r2, r1, pc, asr r0
    64c8:	5458454d 	ldrbpl	r4, [r8], #-1357	@ 0xfffffab3
    64cc:	52545f49 	subspl	r5, r4, #292	@ 0x124
    64d0:	45474749 	strbmi	r4, [r7, #-1865]	@ 0xfffff8b7
    64d4:	4f425f52 	svcmi	0x00425f52
    64d8:	5f004854 	svcpl	0x00004854
    64dc:	41464544 	cmpmi	r6, r4, asr #10
    64e0:	5f544c55 	svcpl	0x00544c55
    64e4:	52554f53 	subspl	r4, r5, #332	@ 0x14c
    64e8:	4d004543 	cfstr32mi	mvfx4, [r0, #-268]	@ 0xfffffef4
    64ec:	4349564e 	movtmi	r5, #38478	@ 0x964e
    64f0:	5458455f 	ldrbpl	r4, [r8], #-1375	@ 0xfffffaa1
    64f4:	495f3449 	ldmdbmi	pc, {r0, r3, r6, sl, ip, sp}^	@ <UNPREDICTABLE>
    64f8:	31205152 			@ <UNDEFINED> instruction: 0x31205152
    64fc:	58450030 	stmdapl	r5, {r4, r5}^
    6500:	35314954 	ldrcc	r4, [r1, #-2388]!	@ 0xfffff6ac
    6504:	5f30315f 	svcpl	0x0030315f
    6508:	48515249 	ldmdami	r1, {r0, r3, r6, r9, ip, lr}^
    650c:	6c646e61 	stclvs	14, cr6, [r4], #-388	@ 0xfffffe7c
    6510:	5f007265 	svcpl	0x00007265
    6514:	4e49575f 	mcrmi	7, 2, r5, cr9, cr15, {2}
    6518:	49575f54 	ldmdbmi	r7, {r2, r4, r6, r8, r9, sl, fp, ip, lr}^
    651c:	5f485444 	svcpl	0x00485444
    6520:	3233205f 	eorscc	r2, r3, #95	@ 0x5f
    6524:	555f5f00 	ldrbpl	r5, [pc, #-3840]	@ 562c <_Min_Stack_Size+0x522c>
    6528:	52464c4c 	subpl	r4, r6, #76, 24	@ 0x4c00
    652c:	5f544341 	svcpl	0x00544341
    6530:	5f4e494d 	svcpl	0x004e494d
    6534:	2e30205f 	mrccs	0, 1, r2, cr0, cr15, {2}
    6538:	4c4c5530 	cfstr64mi	mvdx5, [ip], {48}	@ 0x30
    653c:	32490052 	subcc	r0, r9, #82	@ 0x52
    6540:	52535f43 	subspl	r5, r3, #268	@ 0x10c
    6544:	55425f32 	strbpl	r5, [r2, #-3890]	@ 0xfffff0ce
    6548:	505f5953 	subspl	r5, pc, r3, asr r9	@ <UNPREDICTABLE>
    654c:	2820736f 	stmdacs	r0!, {r0, r1, r2, r3, r5, r6, r8, r9, ip, sp, lr}
    6550:	00295531 	eoreq	r5, r9, r1, lsr r5
    6554:	544e495f 	strbpl	r4, [lr], #-2399	@ 0xfffff6a1
    6558:	5f545f38 	svcpl	0x00545f38
    655c:	4c434544 	cfstr64mi	mvdx4, [r3], {68}	@ 0x44
    6560:	44455241 	strbmi	r5, [r5], #-577	@ 0xfffffdbf
    6564:	5f5f0020 	svcpl	0x005f0020
    6568:	5f434347 	svcpl	0x00434347
    656c:	534e4f43 	movtpl	r4, #61251	@ 0xef43
    6570:	43555254 	cmpmi	r5, #84, 4	@ 0x40000005
    6574:	45564954 	ldrbmi	r4, [r6, #-2388]	@ 0xfffff6ac
    6578:	5a49535f 	bpl	125b2fc <_Min_Stack_Size+0x125aefc>
    657c:	34362045 	ldrtcc	r2, [r6], #-69	@ 0xffffffbb
    6580:	58454d00 	stmdapl	r5, {r8, sl, fp, lr}^
    6584:	4c5f4954 	mrrcmi	9, 5, r4, pc, cr4	@ <UNPREDICTABLE>
    6588:	32454e49 	subcc	r4, r5, #1168	@ 0x490
    658c:	4c5f5f00 	mrrcmi	15, 0, r5, pc, cr0	@ <UNPREDICTABLE>
    6590:	4152464c 	cmpmi	r2, ip, asr #12
    6594:	495f5443 	ldmdbmi	pc, {r0, r1, r6, sl, ip, lr}^	@ <UNPREDICTABLE>
    6598:	5f544942 	svcpl	0x00544942
    659c:	0030205f 	eorseq	r2, r0, pc, asr r0
    65a0:	544e4955 	strbpl	r4, [lr], #-2389	@ 0xfffff6ab
    65a4:	435f3631 	cmpmi	pc, #51380224	@ 0x3100000
    65a8:	20297828 	eorcs	r7, r9, r8, lsr #16
    65ac:	49555f5f 	ldmdbmi	r5, {r0, r1, r2, r3, r4, r6, r8, r9, sl, fp, ip, lr}^
    65b0:	3631544e 	ldrtcc	r5, [r1], -lr, asr #8
    65b4:	7828435f 	stmdavc	r8!, {r0, r1, r2, r3, r4, r6, r8, r9, lr}
    65b8:	5f5f0029 	svcpl	0x005f0029
    65bc:	52464c4c 	subpl	r4, r6, #76, 24	@ 0x4c00
    65c0:	5f544341 	svcpl	0x00544341
    65c4:	5f4e494d 	svcpl	0x004e494d
    65c8:	2d28205f 	stccs	0, cr2, [r8, #-380]!	@ 0xfffffe84
    65cc:	4c352e30 	ldcmi	14, cr2, [r5], #-192	@ 0xffffff40
    65d0:	302d524c 	eorcc	r5, sp, ip, asr #4
    65d4:	4c4c352e 	cfstr64mi	mvdx3, [ip], {46}	@ 0x2e
    65d8:	5f002952 	svcpl	0x00002952
    65dc:	5f535953 	svcpl	0x00535953
    65e0:	544e495f 	strbpl	r4, [lr], #-2399	@ 0xfffff6a1
    65e4:	5f505553 	svcpl	0x00505553
    65e8:	5f002048 	svcpl	0x00002048
    65ec:	4341535f 	movtmi	r5, #4959	@ 0x135f
    65f0:	5f4d5543 	svcpl	0x004d5543
    65f4:	49535045 	ldmdbmi	r3, {r0, r2, r6, ip, lr}^
    65f8:	5f4e4f4c 	svcpl	0x004e4f4c
    65fc:	7830205f 	ldmdavc	r0!, {r0, r1, r2, r3, r4, r6, sp}
    6600:	372d5031 			@ <UNDEFINED> instruction: 0x372d5031
    6604:	5f004b48 	svcpl	0x00004b48
    6608:	4343475f 	movtmi	r4, #14175	@ 0x375f
    660c:	4d53415f 	ldfmie	f4, [r3, #-380]	@ 0xfffffe84
    6610:	414c465f 	cmpmi	ip, pc, asr r6
    6614:	554f5f47 	strbpl	r5, [pc, #-3911]	@ 56d5 <_Min_Stack_Size+0x52d5>
    6618:	54555054 	ldrbpl	r5, [r5], #-84	@ 0xffffffac
    661c:	205f5f53 	subscs	r5, pc, r3, asr pc	@ <UNPREDICTABLE>
    6620:	4e490031 	mcrmi	0, 2, r0, cr9, cr1, {1}
    6624:	41465f54 	cmpmi	r6, r4, asr pc
    6628:	34365453 	ldrtcc	r5, [r6], #-1107	@ 0xfffffbad
    662c:	58414d5f 	stmdapl	r1, {r0, r1, r2, r3, r4, r6, r8, sl, fp, lr}^
    6630:	5f5f2820 	svcpl	0x005f2820
    6634:	5f544e49 	svcpl	0x00544e49
    6638:	54534146 	ldrbpl	r4, [r3], #-326	@ 0xfffffeba
    663c:	4d5f3436 	cfldrdmi	mvd3, [pc, #-216]	@ 656c <_Min_Stack_Size+0x616c>
    6640:	5f5f5841 	svcpl	0x005f5841
    6644:	4e4d0029 	cdpmi	0, 4, cr0, cr13, cr9, {1}
    6648:	5f434956 	svcpl	0x00434956
    664c:	354d4954 	strbcc	r4, [sp, #-2388]	@ 0xfffff6ac
    6650:	5152495f 	cmppl	r2, pc, asr r9
    6654:	00303520 	eorseq	r3, r0, r0, lsr #10
    6658:	534f505f 	movtpl	r5, #61535	@ 0xf05f
    665c:	535f5849 	cmppl	pc, #4784128	@ 0x490000
    6660:	4352554f 	cmpmi	r2, #331350016	@ 0x13c00000
    6664:	00312045 	eorseq	r2, r1, r5, asr #32
    6668:	4950474d 	ldmdbmi	r0, {r0, r2, r3, r6, r8, r9, sl, lr}^
    666c:	4f4c5f4f 	svcmi	0x004c5f4f
    6670:	5f434947 	svcpl	0x00434947
    6674:	00574f4c 	subseq	r4, r7, ip, asr #30
    6678:	49555f5f 	ldmdbmi	r5, {r0, r1, r2, r3, r4, r6, r8, r9, sl, fp, ip, lr}^
    667c:	465f544e 	ldrbmi	r5, [pc], -lr, asr #8
    6680:	31545341 	cmpcc	r4, r1, asr #6
    6684:	59545f36 	ldmdbpl	r4, {r1, r2, r4, r5, r8, r9, sl, fp, ip, lr}^
    6688:	5f5f4550 	svcpl	0x005f4550
    668c:	736e7520 	cmnvc	lr, #32, 10	@ 0x8000000
    6690:	656e6769 	strbvs	r6, [lr, #-1897]!	@ 0xfffff897
    6694:	6e692064 	cdpvs	0, 6, cr2, cr9, cr4, {3}
    6698:	32490074 	subcc	r0, r9, #116	@ 0x74
    669c:	414f5f43 	cmpmi	pc, r3, asr #30
    66a0:	455f3252 	ldrbmi	r3, [pc, #-594]	@ 6456 <_Min_Stack_Size+0x6056>
    66a4:	4155444e 	cmpmi	r5, lr, asr #8
    66a8:	6f505f4c 	svcvs	0x00505f4c
    66ac:	30282073 	eorcc	r2, r8, r3, ror r0
    66b0:	5f002955 	svcpl	0x00002955
    66b4:	4148555f 	cmpmi	r8, pc, asr r5
    66b8:	4942495f 	stmdbmi	r2, {r0, r1, r2, r3, r4, r6, r8, fp, lr}^
    66bc:	205f5f54 	subscs	r5, pc, r4, asr pc	@ <UNPREDICTABLE>
    66c0:	454d0038 	strbmi	r0, [sp, #-56]	@ 0xffffffc8
    66c4:	5f495458 	svcpl	0x00495458
    66c8:	47495254 	smlsldmi	r5, r9, r4, r2
    66cc:	5f524547 	svcpl	0x00524547
    66d0:	4c4c4146 	stfmie	f4, [ip], {70}	@ 0x46
    66d4:	00474e49 	subeq	r4, r7, r9, asr #28
    66d8:	43415f5f 	movtmi	r5, #8031	@ 0x1f5f
    66dc:	5f4d5543 	svcpl	0x004d5543
    66e0:	49535045 	ldmdbmi	r3, {r0, r2, r6, ip, lr}^
    66e4:	5f4e4f4c 	svcpl	0x004e4f4c
    66e8:	7830205f 	ldmdavc	r0!, {r0, r1, r2, r3, r4, r6, sp}
    66ec:	312d5031 			@ <UNDEFINED> instruction: 0x312d5031
    66f0:	5f004b35 	svcpl	0x00004b35
    66f4:	414c555f 	cmpmi	ip, pc, asr r5
    66f8:	4d554343 	ldclmi	3, cr4, [r5, #-268]	@ 0xfffffef4
    66fc:	5350455f 	cmppl	r0, #398458880	@ 0x17c00000
    6700:	4e4f4c49 	cdpmi	12, 4, cr4, cr15, cr9, {2}
    6704:	30205f5f 	eorcc	r5, r0, pc, asr pc
    6708:	2d503178 	ldfcse	f3, [r0, #-480]	@ 0xfffffe20
    670c:	4c553233 	lfmmi	f3, 2, [r5], {51}	@ 0x33
    6710:	5f5f004b 	svcpl	0x005f004b
    6714:	4c42444c 	cfstrdmi	mvd4, [r2], {76}	@ 0x4c
    6718:	4749445f 	smlsldmi	r4, r9, pc, r4	@ <UNPREDICTABLE>
    671c:	31205f5f 			@ <UNDEFINED> instruction: 0x31205f5f
    6720:	43530035 	cmpmi	r3, #53	@ 0x35
    6724:	45565f42 	ldrbmi	r5, [r6, #-3906]	@ 0xfffff0be
    6728:	454b5443 	strbmi	r5, [fp, #-1091]	@ 0xfffffbbd
    672c:	78302059 	ldmdavc	r0!, {r0, r3, r4, r6, sp}
    6730:	41463530 	cmpmi	r6, r0, lsr r5
    6734:	30303030 	eorscc	r3, r0, r0, lsr r0
    6738:	49004c55 	stmdbmi	r0, {r0, r2, r4, r6, sl, fp, lr}
    673c:	535f4332 	cmppl	pc, #-939524096	@ 0xc8000000
    6740:	445f3252 	ldrbmi	r3, [pc], #-594	@ 6748 <_Min_Stack_Size+0x6348>
    6744:	464c4155 			@ <UNDEFINED> instruction: 0x464c4155
    6748:	736f505f 	cmnvc	pc, #95	@ 0x5f
    674c:	55372820 	ldrpl	r2, [r7, #-2080]!	@ 0xfffff7e0
    6750:	5f5f0029 	svcpl	0x005f0029
    6754:	455a4953 	ldrbmi	r4, [sl, #-2387]	@ 0xfffff6ad
    6758:	4449575f 	strbmi	r5, [r9], #-1887	@ 0xfffff8a1
    675c:	5f5f4854 	svcpl	0x005f4854
    6760:	00323320 	eorseq	r3, r2, r0, lsr #6
    6764:	49575f5f 	ldmdbmi	r7, {r0, r1, r2, r3, r4, r6, r8, r9, sl, fp, ip, lr}^
    6768:	4d5f544e 	cfldrdmi	mvd5, [pc, #-312]	@ 6638 <_Min_Stack_Size+0x6238>
    676c:	5f5f4e49 	svcpl	0x005f4e49
    6770:	00553020 	subseq	r3, r5, r0, lsr #32
    6774:	415f5349 	cmpmi	pc, r9, asr #6
    6778:	56495443 	strbpl	r5, [r9], -r3, asr #8
    677c:	00312045 	eorseq	r2, r1, r5, asr #32
    6780:	4c465f5f 	mcrrmi	15, 5, r5, r6, cr15
    6784:	5f343654 	svcpl	0x00343654
    6788:	5f474944 	svcpl	0x00474944
    678c:	3531205f 	ldrcc	r2, [r1, #-95]!	@ 0xffffffa1
    6790:	4e495f00 	cdpmi	15, 4, cr5, cr9, cr0, {0}
    6794:	5f323354 	svcpl	0x00323354
    6798:	4c5f5145 	ldfmie	f5, [pc], {69}	@ 0x45
    679c:	20474e4f 	subcs	r4, r7, pc, asr #28
    67a0:	564e4d00 	strbpl	r4, [lr], -r0, lsl #26
    67a4:	445f4349 	ldrbmi	r4, [pc], #-841	@ 67ac <_Min_Stack_Size+0x63ac>
    67a8:	5f31414d 	svcpl	0x0031414d
    67ac:	6e616843 	cdpvs	8, 6, cr6, cr1, cr3, {2}
    67b0:	356c656e 	strbcc	r6, [ip, #-1390]!	@ 0xfffffa92
    67b4:	5152495f 	cmppl	r2, pc, asr r9
    67b8:	00353120 	eorseq	r3, r5, r0, lsr #2
    67bc:	4950474d 	ldmdbmi	r0, {r0, r2, r3, r6, r8, r9, sl, lr}^
    67c0:	64755f4f 	ldrbtvs	r5, [r5], #-3919	@ 0xfffff0b1
    67c4:	69507464 	ldmdbvs	r0, {r2, r5, r6, sl, ip, sp, lr}^
    67c8:	6e6f436e 	cdpvs	3, 6, cr4, cr15, cr14, {3}
    67cc:	5f676966 	svcpl	0x00676966
    67d0:	5f5f0074 	svcpl	0x005f0074
    67d4:	5f544e49 	svcpl	0x00544e49
    67d8:	5341454c 	movtpl	r4, #5452	@ 0x154c
    67dc:	575f3854 			@ <UNDEFINED> instruction: 0x575f3854
    67e0:	48544449 	ldmdami	r4, {r0, r3, r6, sl, lr}^
    67e4:	38205f5f 	stmdacc	r0!, {r0, r1, r2, r3, r4, r6, r8, r9, sl, fp, ip, lr}
    67e8:	564e4d00 	strbpl	r4, [lr], -r0, lsl #26
    67ec:	465f4349 	ldrbmi	r4, [pc], -r9, asr #6
    67f0:	4853414c 	ldmdami	r3, {r2, r3, r6, r8, lr}^
    67f4:	5152495f 	cmppl	r2, pc, asr r9
    67f8:	5f003420 	svcpl	0x00003420
    67fc:	544e495f 	strbpl	r4, [lr], #-2399	@ 0xfffff6a1
    6800:	41454c5f 	cmpmi	r5, pc, asr ip
    6804:	36315453 			@ <UNDEFINED> instruction: 0x36315453
    6808:	5059545f 	subspl	r5, r9, pc, asr r4
    680c:	205f5f45 	subscs	r5, pc, r5, asr #30
    6810:	726f6873 	rsbvc	r6, pc, #7536640	@ 0x730000
    6814:	6e692074 	mcrvs	0, 3, r2, cr9, cr4, {3}
    6818:	53550074 	cmppl	r5, #116	@ 0x74
    681c:	33545241 	cmpcc	r4, #268435460	@ 0x10000004
    6820:	55282820 	strpl	r2, [r8, #-2080]!	@ 0xfffff7e0
    6824:	54524153 	ldrbpl	r4, [r2], #-339	@ 0xfffffead
    6828:	6765725f 			@ <UNDEFINED> instruction: 0x6765725f
    682c:	65747369 	ldrbvs	r7, [r4, #-873]!	@ 0xfffffc97
    6830:	70614d72 	rsbvc	r4, r1, r2, ror sp
    6834:	292a745f 	stmdbcs	sl!, {r0, r1, r2, r3, r4, r6, sl, ip, sp, lr}
    6838:	52415355 	subpl	r5, r1, #1409286145	@ 0x54000001
    683c:	425f3354 	subsmi	r3, pc, #84, 6	@ 0x50000001
    6840:	29455341 	stmdbcs	r5, {r0, r6, r8, r9, ip, lr}^
    6844:	515f5f00 	cmppl	pc, r0, lsl #30
    6848:	42465f51 	submi	r5, r6, #324	@ 0x144
    684c:	5f5f5449 	svcpl	0x005f5449
    6850:	49003720 	stmdbmi	r0, {r5, r8, r9, sl, ip, sp}
    6854:	535f4332 	cmppl	pc, #-939524096	@ 0xc8000000
    6858:	505f3252 	subspl	r3, pc, r2, asr r2	@ <UNPREDICTABLE>
    685c:	4d5f4345 	ldclmi	3, cr4, [pc, #-276]	@ 6750 <_Min_Stack_Size+0x6350>
    6860:	28206b73 	stmdacs	r0!, {r0, r1, r4, r5, r6, r8, r9, fp, sp, lr}
    6864:	46467830 			@ <UNDEFINED> instruction: 0x46467830
    6868:	3c204c55 	stccc	12, cr4, [r0], #-340	@ 0xfffffeac
    686c:	3249203c 	subcc	r2, r9, #60	@ 0x3c
    6870:	52535f43 	subspl	r5, r3, #268	@ 0x10c
    6874:	45505f32 	ldrbmi	r5, [r0, #-3890]	@ 0xfffff0ce
    6878:	6f505f43 	svcvs	0x00505f43
    687c:	5f002973 	svcpl	0x00002973
    6880:	4c42445f 	cfstrdmi	mvd4, [r2], {95}	@ 0x5f
    6884:	58414d5f 	stmdapl	r1, {r0, r1, r2, r3, r4, r6, r8, sl, fp, lr}^
    6888:	28205f5f 	stmdacs	r0!, {r0, r1, r2, r3, r4, r6, r8, r9, sl, fp, ip, lr}
    688c:	756f6428 	strbvc	r6, [pc, #-1064]!	@ 646c <_Min_Stack_Size+0x606c>
    6890:	29656c62 	stmdbcs	r5!, {r1, r5, r6, sl, fp, sp, lr}^
    6894:	39372e31 	ldmdbcc	r7!, {r0, r4, r5, r9, sl, fp, sp}
    6898:	33393637 	teqcc	r9, #57671680	@ 0x3700000
    689c:	38343331 	ldmdacc	r4!, {r0, r4, r5, r8, r9, ip, sp}
    68a0:	31333236 	teqcc	r3, r6, lsr r2
    68a4:	2b653735 	blcs	1954580 <_Min_Stack_Size+0x1954180>
    68a8:	4c383033 	ldcmi	0, cr3, [r8], #-204	@ 0xffffff34
    68ac:	32490029 	subcc	r0, r9, #41	@ 0x29
    68b0:	52435f43 	subpl	r5, r3, #268	@ 0x10c
    68b4:	4e455f31 	mcrmi	15, 2, r5, cr5, cr1, {1}
    68b8:	5f505241 	svcpl	0x00505241
    68bc:	206b734d 	rsbcs	r7, fp, sp, asr #6
    68c0:	31783028 	cmncc	r8, r8, lsr #32
    68c4:	3c204c55 	stccc	12, cr4, [r0], #-340	@ 0xfffffeac
    68c8:	3249203c 	subcc	r2, r9, #60	@ 0x3c
    68cc:	52435f43 	subpl	r5, r3, #268	@ 0x10c
    68d0:	4e455f31 	mcrmi	15, 2, r5, cr5, cr1, {1}
    68d4:	5f505241 	svcpl	0x00505241
    68d8:	29736f50 	ldmdbcs	r3!, {r4, r6, r8, r9, sl, fp, sp, lr}^
    68dc:	6f6c6600 	svcvs	0x006c6600
    68e0:	5f007461 	svcpl	0x00007461
    68e4:	464c4c5f 			@ <UNDEFINED> instruction: 0x464c4c5f
    68e8:	54434152 	strbpl	r4, [r3], #-338	@ 0xfffffeae
    68ec:	4942465f 	stmdbmi	r2, {r0, r1, r2, r3, r4, r6, r9, sl, lr}^
    68f0:	205f5f54 	subscs	r5, pc, r4, asr pc	@ <UNPREDICTABLE>
    68f4:	5f003336 	svcpl	0x00003336
    68f8:	544c465f 	strbpl	r4, [ip], #-1631	@ 0xfffff9a1
    68fc:	485f3233 	ldmdami	pc, {r0, r1, r4, r5, r9, ip, sp}^	@ <UNPREDICTABLE>
    6900:	495f5341 	ldmdbmi	pc, {r0, r6, r8, r9, ip, lr}^	@ <UNPREDICTABLE>
    6904:	4e49464e 	cdpmi	6, 4, cr4, cr9, cr14, {2}
    6908:	5f595449 	svcpl	0x00595449
    690c:	0031205f 	eorseq	r2, r1, pc, asr r0
    6910:	49564e4d 	ldmdbmi	r6, {r0, r2, r3, r6, r9, sl, fp, lr}^
    6914:	53465f43 	movtpl	r5, #28483	@ 0x6f43
    6918:	495f434d 	ldmdbmi	pc, {r0, r2, r3, r6, r8, r9, lr}^	@ <UNPREDICTABLE>
    691c:	34205152 	strtcc	r5, [r0], #-338	@ 0xfffffeae
    6920:	5f5f0038 	svcpl	0x005f0038
    6924:	6d756874 	ldclvs	8, cr6, [r5, #-464]!	@ 0xfffffe30
    6928:	205f5f62 	subscs	r5, pc, r2, ror #30
    692c:	5f5f0031 	svcpl	0x005f0031
    6930:	454d5241 	strbmi	r5, [sp, #-577]	@ 0xfffffdbf
    6934:	205f5f4c 	subscs	r5, pc, ip, asr #30
    6938:	4e4d0031 	mcrmi	0, 2, r0, cr13, cr1, {1}
    693c:	5f434956 	svcpl	0x00434956
    6940:	32414d44 	subcc	r4, r1, #68, 26	@ 0x1100
    6944:	6168435f 	cmnvs	r8, pc, asr r3
    6948:	6c656e6e 	stclvs	14, cr6, [r5], #-440	@ 0xfffffe48
    694c:	5f355f34 	svcpl	0x00355f34
    6950:	20515249 	subscs	r5, r1, r9, asr #4
    6954:	4d003935 	vstrmi.16	s6, [r0, #-106]	@ 0xffffff96	@ <UNPREDICTABLE>
    6958:	4349564e 	movtmi	r5, #38478	@ 0x964e
    695c:	414d445f 	cmpmi	sp, pc, asr r4
    6960:	68435f32 	stmdavs	r3, {r1, r4, r5, r8, r9, sl, fp, ip, lr}^
    6964:	656e6e61 	strbvs	r6, [lr, #-3681]!	@ 0xfffff19f
    6968:	495f336c 	ldmdbmi	pc, {r2, r3, r5, r6, r8, r9, ip, sp}^	@ <UNPREDICTABLE>
    696c:	35205152 	strcc	r5, [r0, #-338]!	@ 0xfffffeae
    6970:	46410038 			@ <UNDEFINED> instruction: 0x46410038
    6974:	455f4f49 	ldrbmi	r4, [pc, #-3913]	@ 5a33 <_Min_Stack_Size+0x5633>
    6978:	43495458 	movtmi	r5, #37976	@ 0x9458
    697c:	6f705f52 	svcvs	0x00705f52
    6980:	69746973 	ldmdbvs	r4!, {r0, r1, r4, r5, r6, r8, fp, sp, lr}^
    6984:	4e006e6f 	cdpmi	14, 0, cr6, cr0, cr15, {3}
    6988:	5f434956 	svcpl	0x00434956
    698c:	45534142 	ldrbmi	r4, [r3, #-322]	@ 0xfffffebe
    6990:	45783020 	ldrbmi	r3, [r8, #-32]!	@ 0xffffffe0
    6994:	45303030 	ldrmi	r3, [r0, #-48]!	@ 0xffffffd0
    6998:	55303031 	ldrpl	r3, [r0, #-49]!	@ 0xffffffcf
    699c:	5f5f004c 	svcpl	0x005f004c
    69a0:	465f5148 	ldrbmi	r5, [pc], -r8, asr #2
    69a4:	5f544942 	svcpl	0x00544942
    69a8:	3531205f 	ldrcc	r2, [r1, #-95]!	@ 0xffffffa1
    69ac:	54584500 	ldrbpl	r4, [r8], #-1280	@ 0xfffffb00
    69b0:	43503149 	cmpmi	r0, #1073741842	@ 0x40000012
    69b4:	4d282031 	stcmi	0, cr2, [r8, #-196]!	@ 0xffffff3c
    69b8:	49545845 	ldmdbmi	r4, {r0, r2, r6, fp, ip, lr}^
    69bc:	6464755f 	strbtvs	r7, [r4], #-1375	@ 0xfffffaa1
    69c0:	69704774 	ldmdbvs	r0!, {r2, r4, r5, r6, r8, r9, sl, lr}^
    69c4:	6e69506f 	cdpvs	0, 6, cr5, cr9, cr15, {3}
    69c8:	7b29745f 	blvc	a63b4c <_Min_Stack_Size+0xa6374c>
    69cc:	5458454d 	ldrbpl	r4, [r8], #-1357	@ 0xfffffab3
    69d0:	494c5f49 	stmdbmi	ip, {r0, r3, r6, r8, r9, sl, fp, ip, lr}^
    69d4:	2c31454e 	cfldr32cs	mvfx4, [r1], #-312	@ 0xfffffec8
    69d8:	49504720 	ldmdbmi	r0, {r5, r8, r9, sl, lr}^
    69dc:	202c434f 	eorcs	r4, ip, pc, asr #6
    69e0:	4950474d 	ldmdbmi	r0, {r0, r2, r3, r6, r8, r9, sl, lr}^
    69e4:	49505f4f 	ldmdbmi	r0, {r0, r1, r2, r3, r6, r8, r9, sl, fp, ip, lr}^
    69e8:	202c314e 	eorcs	r3, ip, lr, asr #2
    69ec:	49564e4d 	ldmdbmi	r6, {r0, r2, r3, r6, r9, sl, fp, lr}^
    69f0:	58455f43 	stmdapl	r5, {r0, r1, r6, r8, r9, sl, fp, ip, lr}^
    69f4:	5f314954 	svcpl	0x00314954
    69f8:	7d515249 	lfmvc	f5, 2, [r1, #-292]	@ 0xfffffedc
    69fc:	43324900 	teqmi	r2, #0, 18
    6a00:	3152435f 	cmpcc	r2, pc, asr r3
    6a04:	5f45505f 	svcpl	0x0045505f
    6a08:	206b734d 	rsbcs	r7, fp, sp, asr #6
    6a0c:	31783028 	cmncc	r8, r8, lsr #32
    6a10:	3c204c55 	stccc	12, cr4, [r0], #-340	@ 0xfffffeac
    6a14:	3249203c 	subcc	r2, r9, #60	@ 0x3c
    6a18:	52435f43 	subpl	r5, r3, #268	@ 0x10c
    6a1c:	45505f31 	ldrbmi	r5, [r0, #-3889]	@ 0xfffff0cf
    6a20:	736f505f 	cmnvc	pc, #95	@ 0x5f
    6a24:	41550029 	cmpmi	r5, r9, lsr #32
    6a28:	4e5f4950 			@ <UNDEFINED> instruction: 0x4e5f4950
    6a2c:	5f4c4c55 	svcpl	0x004c4c55
    6a30:	00525450 	subseq	r5, r2, r0, asr r4
    6a34:	32495053 	subcc	r5, r9, #83	@ 0x53
    6a38:	5341425f 	movtpl	r4, #4703	@ 0x125f
    6a3c:	78302045 	ldmdavc	r0!, {r0, r2, r6, sp}
    6a40:	30303034 	eorscc	r3, r0, r4, lsr r0
    6a44:	30303833 	eorscc	r3, r0, r3, lsr r8
    6a48:	5f004c55 	svcpl	0x00004c55
    6a4c:	5a49535f 	bpl	125b7d0 <_Min_Stack_Size+0x125b3d0>
    6a50:	414d5f45 	cmpmi	sp, r5, asr #30
    6a54:	205f5f58 	subscs	r5, pc, r8, asr pc	@ <UNPREDICTABLE>
    6a58:	66667830 			@ <UNDEFINED> instruction: 0x66667830
    6a5c:	66666666 	strbtvs	r6, [r6], -r6, ror #12
    6a60:	00556666 	subseq	r6, r5, r6, ror #12
    6a64:	5f433249 	svcpl	0x00433249
    6a68:	5f325243 	svcpl	0x00325243
    6a6c:	51455246 	cmppl	r5, r6, asr #4
    6a70:	43324920 	teqmi	r2, #32, 18	@ 0x80000
    6a74:	3252435f 	subscc	r4, r2, #2080374785	@ 0x7c000001
    6a78:	4552465f 	ldrbmi	r4, [r2, #-1631]	@ 0xfffff9a1
    6a7c:	734d5f51 	movtvc	r5, #57169	@ 0xdf51
    6a80:	5253006b 	subspl	r0, r3, #107	@ 0x6b
    6a84:	4d5f4d41 	ldclmi	13, cr4, [pc, #-260]	@ 6988 <_Min_Stack_Size+0x6588>
    6a88:	524f4d45 	subpl	r4, pc, #4416	@ 0x1140
    6a8c:	55425f59 	strbpl	r5, [r2, #-3929]	@ 0xfffff0a7
    6a90:	78302053 	ldmdavc	r0!, {r0, r1, r4, r6, sp}
    6a94:	30303032 	eorscc	r3, r0, r2, lsr r0
    6a98:	30303030 	eorscc	r3, r0, r0, lsr r0
    6a9c:	5f004c55 	svcpl	0x00004c55
    6aa0:	4d52415f 	ldfmie	f4, [r2, #-380]	@ 0xfffffe84
    6aa4:	4352415f 	cmpmi	r2, #-1073741801	@ 0xc0000017
    6aa8:	49550048 	ldmdbmi	r5, {r3, r6}^
    6aac:	5f38544e 	svcpl	0x0038544e
    6ab0:	2058414d 	subscs	r4, r8, sp, asr #2
    6ab4:	555f5f28 	ldrbpl	r5, [pc, #-3880]	@ 5b94 <_Min_Stack_Size+0x5794>
    6ab8:	38544e49 	ldmdacc	r4, {r0, r3, r6, r9, sl, fp, lr}^
    6abc:	58414d5f 	stmdapl	r1, {r0, r1, r2, r3, r4, r6, r8, sl, fp, lr}^
    6ac0:	00295f5f 	eoreq	r5, r9, pc, asr pc
    6ac4:	46535f5f 	usaxmi	r5, r3, pc	@ <UNPREDICTABLE>
    6ac8:	54434152 	strbpl	r4, [r3], #-338	@ 0xfffffeae
    6acc:	4942495f 	stmdbmi	r2, {r0, r1, r2, r3, r4, r6, r8, fp, lr}^
    6ad0:	205f5f54 	subscs	r5, pc, r4, asr pc	@ <UNPREDICTABLE>
    6ad4:	49550030 	ldmdbmi	r5, {r4, r5}^
    6ad8:	465f544e 	ldrbmi	r5, [pc], -lr, asr #8
    6adc:	38545341 	ldmdacc	r4, {r0, r6, r8, r9, ip, lr}^
    6ae0:	58414d5f 	stmdapl	r1, {r0, r1, r2, r3, r4, r6, r8, sl, fp, lr}^
    6ae4:	5f5f2820 	svcpl	0x005f2820
    6ae8:	544e4955 	strbpl	r4, [lr], #-2389	@ 0xfffff6ab
    6aec:	5341465f 	movtpl	r4, #5727	@ 0x165f
    6af0:	4d5f3854 	ldclmi	8, cr3, [pc, #-336]	@ 69a8 <_Min_Stack_Size+0x65a8>
    6af4:	5f5f5841 	svcpl	0x005f5841
    6af8:	32490029 	subcc	r0, r9, #41	@ 0x29
    6afc:	52435f43 	subpl	r5, r3, #268	@ 0x10c
    6b00:	4d535f31 	ldclmi	15, cr5, [r3, #-196]	@ 0xffffff3c
    6b04:	50595442 	subspl	r5, r9, r2, asr #8
    6b08:	6f505f45 	svcvs	0x00505f45
    6b0c:	33282073 			@ <UNDEFINED> instruction: 0x33282073
    6b10:	6c002955 			@ <UNDEFINED> instruction: 0x6c002955
    6b14:	20676e6f 	rsbcs	r6, r7, pc, ror #28
    6b18:	4500342b 	strmi	r3, [r0, #-1067]	@ 0xfffffbd5
    6b1c:	35495458 	strbcc	r5, [r9, #-1112]	@ 0xfffffba8
    6b20:	20354150 	eorscs	r4, r5, r0, asr r1
    6b24:	58454d28 	stmdapl	r5, {r3, r5, r8, sl, fp, lr}^
    6b28:	755f4954 	ldrbvc	r4, [pc, #-2388]	@ 61dc <_Min_Stack_Size+0x5ddc>
    6b2c:	47746464 	ldrbmi	r6, [r4, -r4, ror #8]!
    6b30:	506f6970 	rsbpl	r6, pc, r0, ror r9	@ <UNPREDICTABLE>
    6b34:	745f6e69 	ldrbvc	r6, [pc], #-3689	@ 6b3c <_Min_Stack_Size+0x673c>
    6b38:	454d7b29 	strbmi	r7, [sp, #-2857]	@ 0xfffff4d7
    6b3c:	5f495458 	svcpl	0x00495458
    6b40:	454e494c 	strbmi	r4, [lr, #-2380]	@ 0xfffff6b4
    6b44:	47202c35 			@ <UNDEFINED> instruction: 0x47202c35
    6b48:	414f4950 	cmpmi	pc, r0, asr r9	@ <UNPREDICTABLE>
    6b4c:	474d202c 	strbmi	r2, [sp, -ip, lsr #32]
    6b50:	5f4f4950 	svcpl	0x004f4950
    6b54:	354e4950 	strbcc	r4, [lr, #-2384]	@ 0xfffff6b0
    6b58:	4e4d202c 	cdpmi	0, 4, cr2, cr13, cr12, {1}
    6b5c:	5f434956 	svcpl	0x00434956
    6b60:	49545845 	ldmdbmi	r4, {r0, r2, r6, fp, ip, lr}^
    6b64:	52495f35 	subpl	r5, r9, #53, 30	@ 0xd4
    6b68:	49007d51 	stmdbmi	r0, {r0, r4, r6, r8, sl, fp, ip, sp, lr}
    6b6c:	435f4332 	cmpmi	pc, #-939524096	@ 0xc8000000
    6b70:	495f3252 	ldmdbmi	pc, {r1, r4, r6, r9, ip, sp}^	@ <UNPREDICTABLE>
    6b74:	46554254 			@ <UNDEFINED> instruction: 0x46554254
    6b78:	4d5f4e45 	ldclmi	14, cr4, [pc, #-276]	@ 6a6c <_Min_Stack_Size+0x666c>
    6b7c:	28206b73 	stmdacs	r0!, {r0, r1, r4, r5, r6, r8, r9, fp, sp, lr}
    6b80:	55317830 	ldrpl	r7, [r1, #-2096]!	@ 0xfffff7d0
    6b84:	3c3c204c 	ldccc	0, cr2, [ip], #-304	@ 0xfffffed0
    6b88:	43324920 	teqmi	r2, #32, 18	@ 0x80000
    6b8c:	3252435f 	subscc	r4, r2, #2080374785	@ 0x7c000001
    6b90:	4254495f 	subsmi	r4, r4, #1556480	@ 0x17c000
    6b94:	4e454655 	mcrmi	6, 2, r4, cr5, cr5, {2}
    6b98:	736f505f 	cmnvc	pc, #95	@ 0x5f
    6b9c:	5f5f0029 	svcpl	0x005f0029
    6ba0:	5f4d5241 	svcpl	0x004d5241
    6ba4:	54414546 	strbpl	r4, [r1], #-1350	@ 0xfffffaba
    6ba8:	5f455255 	svcpl	0x00455255
    6bac:	4552444c 	ldrbmi	r4, [r2, #-1100]	@ 0xfffffbb4
    6bb0:	00372058 	eorseq	r2, r7, r8, asr r0
    6bb4:	49535f5f 	ldmdbmi	r3, {r0, r1, r2, r3, r4, r6, r8, r9, sl, fp, ip, lr}^
    6bb8:	545f455a 	ldrbpl	r4, [pc], #-1370	@ 6bc0 <_Min_Stack_Size+0x67c0>
    6bbc:	5f455059 	svcpl	0x00455059
    6bc0:	6e75205f 	mrcvs	0, 3, r2, cr5, cr15, {2}
    6bc4:	6e676973 			@ <UNDEFINED> instruction: 0x6e676973
    6bc8:	69206465 	stmdbvs	r0!, {r0, r2, r5, r6, sl, sp, lr}
    6bcc:	4500746e 	strmi	r7, [r0, #-1134]	@ 0xfffffb92
    6bd0:	35495458 	strbcc	r5, [r9, #-1112]	@ 0xfffffba8
    6bd4:	20354350 	eorscs	r4, r5, r0, asr r3
    6bd8:	58454d28 	stmdapl	r5, {r3, r5, r8, sl, fp, lr}^
    6bdc:	755f4954 	ldrbvc	r4, [pc, #-2388]	@ 6290 <_Min_Stack_Size+0x5e90>
    6be0:	47746464 	ldrbmi	r6, [r4, -r4, ror #8]!
    6be4:	506f6970 	rsbpl	r6, pc, r0, ror r9	@ <UNPREDICTABLE>
    6be8:	745f6e69 	ldrbvc	r6, [pc], #-3689	@ 6bf0 <_Min_Stack_Size+0x67f0>
    6bec:	454d7b29 	strbmi	r7, [sp, #-2857]	@ 0xfffff4d7
    6bf0:	5f495458 	svcpl	0x00495458
    6bf4:	454e494c 	strbmi	r4, [lr, #-2380]	@ 0xfffff6b4
    6bf8:	47202c35 			@ <UNDEFINED> instruction: 0x47202c35
    6bfc:	434f4950 	movtmi	r4, #63824	@ 0xf950
    6c00:	474d202c 	strbmi	r2, [sp, -ip, lsr #32]
    6c04:	5f4f4950 	svcpl	0x004f4950
    6c08:	354e4950 	strbcc	r4, [lr, #-2384]	@ 0xfffff6b0
    6c0c:	4e4d202c 	cdpmi	0, 4, cr2, cr13, cr12, {1}
    6c10:	5f434956 	svcpl	0x00434956
    6c14:	49545845 	ldmdbmi	r4, {r0, r2, r6, fp, ip, lr}^
    6c18:	52495f35 	subpl	r5, r9, #53, 30	@ 0xd4
    6c1c:	4d007d51 	stcmi	13, cr7, [r0, #-324]	@ 0xfffffebc
    6c20:	49545845 	ldmdbmi	r4, {r0, r2, r6, fp, ip, lr}^
    6c24:	6464755f 	strbtvs	r7, [r4], #-1375	@ 0xfffffaa1
    6c28:	67664374 			@ <UNDEFINED> instruction: 0x67664374
    6c2c:	7500745f 	strvc	r7, [r0, #-1119]	@ 0xfffffba1
    6c30:	50746464 	rsbspl	r6, r4, r4, ror #8
    6c34:	6f4c6e69 	svcvs	0x004c6e69
    6c38:	00636967 	rsbeq	r6, r3, r7, ror #18
    6c3c:	4950474d 	ldmdbmi	r0, {r0, r2, r3, r6, r8, r9, sl, lr}^
    6c40:	554f5f4f 	strbpl	r5, [pc, #-3919]	@ 5cf9 <_Min_Stack_Size+0x58f9>
    6c44:	54555054 	ldrbpl	r5, [r5], #-84	@ 0xffffffac
    6c48:	5f46415f 	svcpl	0x0046415f
    6c4c:	4d5f444f 	cfldrdmi	mvd4, [pc, #-316]	@ 6b18 <_Min_Stack_Size+0x6718>
    6c50:	0045444f 	subeq	r4, r5, pc, asr #8
    6c54:	52415f5f 	subpl	r5, r1, #380	@ 0x17c
    6c58:	45465f4d 	strbmi	r5, [r6, #-3917]	@ 0xfffff0b3
    6c5c:	52555441 	subspl	r5, r5, #1090519040	@ 0x41000000
    6c60:	49535f45 	ldmdbmi	r3, {r0, r2, r6, r8, r9, sl, fp, ip, lr}^
    6c64:	3233444d 	eorscc	r4, r3, #1291845632	@ 0x4d000000
    6c68:	465f5f00 	ldrbmi	r5, [pc], -r0, lsl #30
    6c6c:	3233544c 	eorscc	r5, r3, #76, 8	@ 0x4c000000
    6c70:	414d5f58 	cmpmi	sp, r8, asr pc
    6c74:	445f544e 	ldrbmi	r5, [pc], #-1102	@ 6c7c <_Min_Stack_Size+0x687c>
    6c78:	5f5f4749 	svcpl	0x005f4749
    6c7c:	00333520 	eorseq	r3, r3, r0, lsr #10
    6c80:	43575f5f 	cmpmi	r7, #380	@ 0x17c
    6c84:	5f524148 	svcpl	0x00524148
    6c88:	54444957 	strbpl	r4, [r4], #-2391	@ 0xfffff6a9
    6c8c:	205f5f48 	subscs	r5, pc, r8, asr #30
    6c90:	49003233 	stmdbmi	r0, {r0, r1, r4, r5, r9, ip, sp}
    6c94:	435f4332 	cmpmi	pc, #-939524096	@ 0xc8000000
    6c98:	4c5f3252 	lfmmi	f3, 2, [pc], {82}	@ 0x52
    6c9c:	5f545341 	svcpl	0x00545341
    6ca0:	206b734d 	rsbcs	r7, fp, sp, asr #6
    6ca4:	31783028 	cmncc	r8, r8, lsr #32
    6ca8:	3c204c55 	stccc	12, cr4, [r0], #-340	@ 0xfffffeac
    6cac:	3249203c 	subcc	r2, r9, #60	@ 0x3c
    6cb0:	52435f43 	subpl	r5, r3, #268	@ 0x10c
    6cb4:	414c5f32 	cmpmi	ip, r2, lsr pc
    6cb8:	505f5453 	subspl	r5, pc, r3, asr r4	@ <UNPREDICTABLE>
    6cbc:	0029736f 	eoreq	r7, r9, pc, ror #6
    6cc0:	4e495f5f 	mcrmi	15, 2, r5, cr9, cr15, {2}
    6cc4:	5f363154 	svcpl	0x00363154
    6cc8:	29632843 	stmdbcs	r3!, {r0, r1, r6, fp, sp}^
    6ccc:	45006320 	strmi	r6, [r0, #-800]	@ 0xfffffce0
    6cd0:	31495458 	cmpcc	r9, r8, asr r4
    6cd4:	31425032 	cmpcc	r2, r2, lsr r0
    6cd8:	4d282032 	stcmi	0, cr2, [r8, #-200]!	@ 0xffffff38
    6cdc:	49545845 	ldmdbmi	r4, {r0, r2, r6, fp, ip, lr}^
    6ce0:	6464755f 	strbtvs	r7, [r4], #-1375	@ 0xfffffaa1
    6ce4:	69704774 	ldmdbvs	r0!, {r2, r4, r5, r6, r8, r9, sl, lr}^
    6ce8:	6e69506f 	cdpvs	0, 6, cr5, cr9, cr15, {3}
    6cec:	7b29745f 	blvc	a63e70 <_Min_Stack_Size+0xa63a70>
    6cf0:	5458454d 	ldrbpl	r4, [r8], #-1357	@ 0xfffffab3
    6cf4:	494c5f49 	stmdbmi	ip, {r0, r3, r6, r8, r9, sl, fp, ip, lr}^
    6cf8:	3231454e 	eorscc	r4, r1, #327155712	@ 0x13800000
    6cfc:	5047202c 	subpl	r2, r7, ip, lsr #32
    6d00:	2c424f49 	mcrrcs	15, 4, r4, r2, cr9
    6d04:	50474d20 	subpl	r4, r7, r0, lsr #26
    6d08:	505f4f49 	subspl	r4, pc, r9, asr #30
    6d0c:	32314e49 	eorscc	r4, r1, #1168	@ 0x490
    6d10:	4e4d202c 	cdpmi	0, 4, cr2, cr13, cr12, {1}
    6d14:	5f434956 	svcpl	0x00434956
    6d18:	49545845 	ldmdbmi	r4, {r0, r2, r6, fp, ip, lr}^
    6d1c:	315f3531 	cmpcc	pc, r1, lsr r5	@ <UNPREDICTABLE>
    6d20:	52495f30 	subpl	r5, r9, #48, 30	@ 0xc0
    6d24:	5f007d51 	svcpl	0x00007d51
    6d28:	5f41445f 	svcpl	0x0041445f
    6d2c:	54494249 	strbpl	r4, [r9], #-585	@ 0xfffffdb7
    6d30:	33205f5f 			@ <UNDEFINED> instruction: 0x33205f5f
    6d34:	50470032 	subpl	r0, r7, r2, lsr r0
    6d38:	5f454f49 	svcpl	0x00454f49
    6d3c:	45534142 	ldrbmi	r4, [r3, #-322]	@ 0xfffffebe
    6d40:	34783020 	ldrbtcc	r3, [r8], #-32	@ 0xffffffe0
    6d44:	31313030 	teqcc	r1, r0, lsr r0
    6d48:	55303038 	ldrpl	r3, [r0, #-56]!	@ 0xffffffc8
    6d4c:	5f5f004c 	svcpl	0x005f004c
    6d50:	52465355 	subpl	r5, r6, #1409286145	@ 0x54000001
    6d54:	5f544341 	svcpl	0x00544341
    6d58:	54494249 	strbpl	r4, [r9], #-585	@ 0xfffffdb7
    6d5c:	30205f5f 	eorcc	r5, r0, pc, asr pc
    6d60:	6f687300 	svcvs	0x00687300
    6d64:	2b207472 	blcs	823f34 <_Min_Stack_Size+0x823b34>
    6d68:	58450031 	stmdapl	r5, {r0, r4, r5}^
    6d6c:	5f314954 	svcpl	0x00314954
    6d70:	48515249 	ldmdami	r1, {r0, r3, r6, r9, ip, lr}^
    6d74:	6c646e61 	stclvs	14, cr6, [r4], #-388	@ 0xfffffe7c
    6d78:	49007265 	stmdbmi	r0, {r0, r2, r5, r6, r9, ip, sp, lr}
    6d7c:	535f4332 	cmppl	pc, #-939524096	@ 0xc8000000
    6d80:	505f3252 	subspl	r3, pc, r2, asr r2	@ <UNPREDICTABLE>
    6d84:	49204345 	stmdbmi	r0!, {r0, r2, r6, r8, r9, lr}
    6d88:	535f4332 	cmppl	pc, #-939524096	@ 0xc8000000
    6d8c:	505f3252 	subspl	r3, pc, r2, asr r2	@ <UNPREDICTABLE>
    6d90:	4d5f4345 	ldclmi	3, cr4, [pc, #-276]	@ 6c84 <_Min_Stack_Size+0x6884>
    6d94:	4e006b73 	vmovmi.16	d0[1], r6
    6d98:	415f544f 	cmpmi	pc, pc, asr #8
    6d9c:	56495443 	strbpl	r5, [r9], -r3, asr #8
    6da0:	00302045 	eorseq	r2, r0, r5, asr #32
    6da4:	54415f5f 	strbpl	r5, [r1], #-3935	@ 0xfffff0a1
    6da8:	43494d4f 	movtmi	r4, #40271	@ 0x9d4f
    6dac:	5143415f 	cmppl	r3, pc, asr r1
    6db0:	4c45525f 	sfmmi	f5, 2, [r5], {95}	@ 0x5f
    6db4:	5f003420 	svcpl	0x00003420
    6db8:	5f51485f 	svcpl	0x0051485f
    6dbc:	54494249 	strbpl	r4, [r9], #-585	@ 0xfffffdb7
    6dc0:	30205f5f 	eorcc	r5, r0, pc, asr pc
    6dc4:	54455300 	strbpl	r5, [r5], #-768	@ 0xfffffd00
    6dc8:	5449425f 	strbpl	r4, [r9], #-607	@ 0xfffffda1
    6dcc:	47455228 	strbmi	r5, [r5, -r8, lsr #4]
    6dd0:	5449422c 	strbpl	r4, [r9], #-556	@ 0xfffffdd4
    6dd4:	4d554e5f 	ldclmi	14, cr4, [r5, #-380]	@ 0xfffffe84
    6dd8:	29524542 	ldmdbcs	r2, {r1, r6, r8, sl, lr}^
    6ddc:	45522820 	ldrbmi	r2, [r2, #-2080]	@ 0xfffff7e0
    6de0:	3d7c2047 	ldclcc	0, cr2, [ip, #-284]!	@ 0xfffffee4
    6de4:	20312820 	eorscs	r2, r1, r0, lsr #16
    6de8:	42203c3c 	eormi	r3, r0, #60, 24	@ 0x3c00
    6dec:	4e5f5449 	cdpmi	4, 5, cr5, cr15, cr9, {2}
    6df0:	45424d55 	strbmi	r4, [r2, #-3413]	@ 0xfffff2ab
    6df4:	00292952 	eoreq	r2, r9, r2, asr r9
    6df8:	334d5453 	movtcc	r5, #54355	@ 0xd453
    6dfc:	20314632 	eorscs	r4, r1, r2, lsr r6
    6e00:	50470031 	subpl	r0, r7, r1, lsr r0
    6e04:	20434f49 	subcs	r4, r3, r9, asr #30
    6e08:	50472828 	subpl	r2, r7, r8, lsr #16
    6e0c:	725f4f49 	subsvc	r4, pc, #292	@ 0x124
    6e10:	73696765 	cmnvc	r9, #26476544	@ 0x1940000
    6e14:	4d726574 	cfldr64mi	mvdx6, [r2, #-464]!	@ 0xfffffe30
    6e18:	745f7061 	ldrbvc	r7, [pc], #-97	@ 6e20 <_Min_Stack_Size+0x6a20>
    6e1c:	5047292a 	subpl	r2, r7, sl, lsr #18
    6e20:	5f434f49 	svcpl	0x00434f49
    6e24:	45534142 	ldrbmi	r4, [r3, #-322]	@ 0xfffffebe
    6e28:	32490029 	subcc	r0, r9, #41	@ 0x29
    6e2c:	52435f43 	subpl	r5, r3, #268	@ 0x10c
    6e30:	4e455f31 	mcrmi	15, 2, r5, cr5, cr1, {1}
    6e34:	5f434550 	svcpl	0x00434550
    6e38:	206b734d 	rsbcs	r7, fp, sp, asr #6
    6e3c:	31783028 	cmncc	r8, r8, lsr #32
    6e40:	3c204c55 	stccc	12, cr4, [r0], #-340	@ 0xfffffeac
    6e44:	3249203c 	subcc	r2, r9, #60	@ 0x3c
    6e48:	52435f43 	subpl	r5, r3, #268	@ 0x10c
    6e4c:	4e455f31 	mcrmi	15, 2, r5, cr5, cr1, {1}
    6e50:	5f434550 	svcpl	0x00434550
    6e54:	29736f50 	ldmdbcs	r3!, {r4, r6, r8, r9, sl, fp, sp, lr}^
    6e58:	50474d00 	subpl	r4, r7, r0, lsl #26
    6e5c:	4c5f4f49 	mrrcmi	15, 4, r4, pc, cr9	@ <UNPREDICTABLE>
    6e60:	4349474f 	movtmi	r4, #38735	@ 0x974f
    6e64:	4749485f 	smlsldmi	r4, r9, pc, r8	@ <UNPREDICTABLE>
    6e68:	5f5f0048 	svcpl	0x005f0048
    6e6c:	32746e69 	rsbscc	r6, r4, #1680	@ 0x690
    6e70:	32490030 	subcc	r0, r9, #48	@ 0x30
    6e74:	52435f43 	subpl	r5, r3, #268	@ 0x10c
    6e78:	54495f32 	strbpl	r5, [r9], #-3890	@ 0xfffff0ce
    6e7c:	45525245 	ldrbmi	r5, [r2, #-581]	@ 0xfffffdbb
    6e80:	3249204e 	subcc	r2, r9, #78	@ 0x4e
    6e84:	52435f43 	subpl	r5, r3, #268	@ 0x10c
    6e88:	54495f32 	strbpl	r5, [r9], #-3890	@ 0xfffff0ce
    6e8c:	45525245 	ldrbmi	r5, [r2, #-581]	@ 0xfffffdbb
    6e90:	734d5f4e 	movtvc	r5, #57166	@ 0xdf4e
    6e94:	4e49006b 	cdpmi	0, 4, cr0, cr9, cr11, {3}
    6e98:	41465f54 	cmpmi	r6, r4, asr pc
    6e9c:	32335453 	eorscc	r5, r3, #1392508928	@ 0x53000000
    6ea0:	58414d5f 	stmdapl	r1, {r0, r1, r2, r3, r4, r6, r8, sl, fp, lr}^
    6ea4:	5f5f2820 	svcpl	0x005f2820
    6ea8:	5f544e49 	svcpl	0x00544e49
    6eac:	54534146 	ldrbpl	r4, [r3], #-326	@ 0xfffffeba
    6eb0:	4d5f3233 	lfmmi	f3, 2, [pc, #-204]	@ 6dec <_Min_Stack_Size+0x69ec>
    6eb4:	5f5f5841 	svcpl	0x005f5841
    6eb8:	5f5f0029 	svcpl	0x005f0029
    6ebc:	33544c46 	cmpcc	r4, #17920	@ 0x4600
    6ec0:	4f4e5f32 	svcmi	0x004e5f32
    6ec4:	4d5f4d52 	ldclmi	13, cr4, [pc, #-328]	@ 6d84 <_Min_Stack_Size+0x6984>
    6ec8:	5f5f5841 	svcpl	0x005f5841
    6ecc:	342e3320 	strtcc	r3, [lr], #-800	@ 0xfffffce0
    6ed0:	32383230 	eorscc	r3, r8, #48, 4
    6ed4:	36363433 			@ <UNDEFINED> instruction: 0x36363433
    6ed8:	32353833 	eorscc	r3, r5, #3342336	@ 0x330000
    6edc:	65363838 	ldrvs	r3, [r6, #-2104]!	@ 0xfffff7c8
    6ee0:	4638332b 	ldrtmi	r3, [r8], -fp, lsr #6
    6ee4:	55003233 	strpl	r3, [r0, #-563]	@ 0xfffffdcd
    6ee8:	54524153 	ldrbpl	r4, [r2], #-339	@ 0xfffffead
    6eec:	41425f32 	cmpmi	r2, r2, lsr pc
    6ef0:	30204553 	eorcc	r4, r0, r3, asr r5
    6ef4:	30303478 	eorscc	r3, r0, r8, ror r4
    6ef8:	30343430 	eorscc	r3, r4, r0, lsr r4
    6efc:	004c5530 	subeq	r5, ip, r0, lsr r5
    6f00:	534f505f 	movtpl	r5, #61535	@ 0xf05f
    6f04:	435f5849 	cmpmi	pc, #4784128	@ 0x490000
    6f08:	554f535f 	strbpl	r5, [pc, #-863]	@ 6bb1 <_Min_Stack_Size+0x67b1>
    6f0c:	00454352 	subeq	r4, r5, r2, asr r3
    6f10:	49555f5f 	ldmdbmi	r5, {r0, r1, r2, r3, r4, r6, r8, r9, sl, fp, ip, lr}^
    6f14:	414d544e 	cmpmi	sp, lr, asr #8
    6f18:	414d5f58 	cmpmi	sp, r8, asr pc
    6f1c:	205f5f58 	subscs	r5, pc, r8, asr pc	@ <UNPREDICTABLE>
    6f20:	66667830 			@ <UNDEFINED> instruction: 0x66667830
    6f24:	66666666 	strbtvs	r6, [r6], -r6, ror #12
    6f28:	66666666 	strbtvs	r6, [r6], -r6, ror #12
    6f2c:	66666666 	strbtvs	r6, [r6], -r6, ror #12
    6f30:	4c556666 	mrrcmi	6, 6, r6, r5, cr6
    6f34:	5f5f004c 	svcpl	0x005f004c
    6f38:	5f4c4244 	svcpl	0x004c4244
    6f3c:	544e414d 	strbpl	r4, [lr], #-333	@ 0xfffffeb3
    6f40:	4749445f 	smlsldmi	r4, r9, pc, r4	@ <UNPREDICTABLE>
    6f44:	35205f5f 	strcc	r5, [r0, #-3935]!	@ 0xfffff0a1
    6f48:	4e4d0033 	mcrmi	0, 2, r0, cr13, cr3, {1}
    6f4c:	5f434956 	svcpl	0x00434956
    6f50:	49545845 	ldmdbmi	r4, {r0, r2, r6, fp, ip, lr}^
    6f54:	315f3531 	cmpcc	pc, r1, lsr r5	@ <UNPREDICTABLE>
    6f58:	52495f30 	subpl	r5, r9, #48, 30	@ 0xc0
    6f5c:	30342051 	eorscc	r2, r4, r1, asr r0
    6f60:	555f5f00 	ldrbpl	r5, [pc, #-3840]	@ 6068 <_Min_Stack_Size+0x5c68>
    6f64:	4152464c 	cmpmi	r2, ip, asr #12
    6f68:	495f5443 	ldmdbmi	pc, {r0, r1, r6, sl, ip, lr}^	@ <UNPREDICTABLE>
    6f6c:	5f544942 	svcpl	0x00544942
    6f70:	0030205f 	eorseq	r2, r0, pc, asr r0
    6f74:	4d544e49 	ldclmi	14, cr4, [r4, #-292]	@ 0xfffffedc
    6f78:	435f5841 	cmpmi	pc, #4259840	@ 0x410000
    6f7c:	20297828 	eorcs	r7, r9, r8, lsr #16
    6f80:	4e495f5f 	mcrmi	15, 2, r5, cr9, cr15, {2}
    6f84:	58414d54 	stmdapl	r1, {r2, r4, r6, r8, sl, fp, lr}^
    6f88:	7828435f 	stmdavc	r8!, {r0, r1, r2, r3, r4, r6, r8, r9, lr}
    6f8c:	5f5f0029 	svcpl	0x005f0029
    6f90:	5f4d5241 	svcpl	0x004d5241
    6f94:	49424145 	stmdbmi	r2, {r0, r2, r6, r8, lr}^
    6f98:	31205f5f 			@ <UNDEFINED> instruction: 0x31205f5f
    6f9c:	495f5f00 	ldmdbmi	pc, {r8, r9, sl, fp, ip, lr}^	@ <UNPREDICTABLE>
    6fa0:	4c5f544e 	cfldrdmi	mvd5, [pc], {78}	@ 0x4e
    6fa4:	54534145 	ldrbpl	r4, [r3], #-325	@ 0xfffffebb
    6fa8:	545f3436 	ldrbpl	r3, [pc], #-1078	@ 6fb0 <_Min_Stack_Size+0x6bb0>
    6fac:	5f455059 	svcpl	0x00455059
    6fb0:	6f6c205f 	svcvs	0x006c205f
    6fb4:	6c20676e 	stcvs	7, cr6, [r0], #-440	@ 0xfffffe48
    6fb8:	20676e6f 	rsbcs	r6, r7, pc, ror #28
    6fbc:	00746e69 	rsbseq	r6, r4, r9, ror #28
    6fc0:	49555f5f 	ldmdbmi	r5, {r0, r1, r2, r3, r4, r6, r8, r9, sl, fp, ip, lr}^
    6fc4:	3631544e 	ldrtcc	r5, [r1], -lr, asr #8
    6fc8:	58414d5f 	stmdapl	r1, {r0, r1, r2, r3, r4, r6, r8, sl, fp, lr}^
    6fcc:	30205f5f 	eorcc	r5, r0, pc, asr pc
    6fd0:	66666678 			@ <UNDEFINED> instruction: 0x66666678
    6fd4:	32490066 	subcc	r0, r9, #102	@ 0x66
    6fd8:	52435f43 	subpl	r5, r3, #268	@ 0x10c
    6fdc:	45505f31 	ldrbmi	r5, [r0, #-3889]	@ 0xfffff0cf
    6fe0:	6f505f43 	svcvs	0x00505f43
    6fe4:	31282073 			@ <UNDEFINED> instruction: 0x31282073
    6fe8:	00295532 	eoreq	r5, r9, r2, lsr r5
    6fec:	52415f5f 	subpl	r5, r1, #380	@ 0x17c
    6ff0:	45465f4d 	strbmi	r5, [r6, #-3917]	@ 0xfffff0b3
    6ff4:	52555441 	subspl	r5, r5, #1090519040	@ 0x41000000
    6ff8:	44435f45 	strbmi	r5, [r3], #-3909	@ 0xfffff0bb
    6ffc:	4f435f45 	svcmi	0x00435f45
    7000:	434f5250 	movtmi	r5, #62032	@ 0xf250
    7004:	33757600 	cmncc	r5, #0, 12
    7008:	6e6f4332 	mcrvs	3, 3, r4, cr15, cr2, {1}
    700c:	52676966 	rsbpl	r6, r7, #1671168	@ 0x198000
    7010:	75006765 	strvc	r6, [r0, #-1893]	@ 0xfffff89b
    7014:	70746464 	rsbsvc	r6, r4, r4, ror #8
    7018:	6f436e69 	svcvs	0x00436e69
    701c:	6769666e 	strbvs	r6, [r9, -lr, ror #12]!
    7020:	50474d00 	subpl	r4, r7, r0, lsl #26
    7024:	755f4f49 	ldrbvc	r4, [pc, #-3913]	@ 60e3 <_Min_Stack_Size+0x5ce3>
    7028:	49746464 	ldmdbmi	r4!, {r2, r5, r6, sl, sp, lr}^
    702c:	6e695073 	mcrvs	0, 3, r5, cr9, cr3, {3}
    7030:	6b636f4c 	blvs	18e2d68 <_Min_Stack_Size+0x18e2968>
    7034:	64647500 	strbtvs	r7, [r4], #-1280	@ 0xfffffb00
    7038:	74655274 	strbtvc	r5, [r5], #-628	@ 0xfffffd8c
    703c:	6f4c664f 	svcvs	0x004c664f
    7040:	00636967 	rsbeq	r6, r3, r7, ror #18
    7044:	5f746547 	svcpl	0x00746547
    7048:	484c5243 	stmdami	ip, {r0, r1, r6, r9, ip, lr}^
    704c:	736f505f 	cmnvc	pc, #95	@ 0x5f
    7050:	6f697469 	svcvs	0x00697469
    7054:	2e2e006e 	cdpcs	0, 2, cr0, cr14, cr14, {3}
    7058:	6372532f 	cmnvs	r2, #-1140850688	@ 0xbc000000
    705c:	41434d2f 	cmpmi	r3, pc, lsr #26
    7060:	50472f4c 	subpl	r2, r7, ip, asr #30
    7064:	632e4f49 			@ <UNDEFINED> instruction: 0x632e4f49
    7068:	50474d00 	subpl	r4, r7, r0, lsl #26
    706c:	495f4f49 	ldmdbmi	pc, {r0, r3, r6, r8, r9, sl, fp, lr}^	@ <UNPREDICTABLE>
    7070:	4f4c5f53 	svcmi	0x004c5f53
    7074:	44454b43 	strbmi	r4, [r5], #-2883	@ 0xfffff4bd
    7078:	755f5f00 	ldrbvc	r5, [pc, #-3840]	@ 6180 <_Min_Stack_Size+0x5d80>
    707c:	31746e69 	cmncc	r4, r9, ror #28
    7080:	00745f36 	rsbseq	r5, r4, r6, lsr pc
    7084:	4950474d 	ldmdbmi	r0, {r0, r2, r3, r6, r8, r9, sl, lr}^
    7088:	64755f4f 	ldrbtvs	r5, [r5], #-3919	@ 0xfffff0b1
    708c:	65477464 	strbvs	r7, [r7, #-1124]	@ 0xfffffb9c
    7090:	726f5074 	rsbvc	r5, pc, #116	@ 0x74
    7094:	64750074 	ldrbtvs	r0, [r5], #-116	@ 0xffffff8c
    7098:	61567464 	cmpvs	r6, r4, ror #8
    709c:	4c664f6c 	stclmi	15, cr4, [r6], #-432	@ 0xfffffe50
    70a0:	6369676f 	cmnvs	r9, #29097984	@ 0x1bc0000
    70a4:	54387500 	ldrtpl	r7, [r8], #-1280	@ 0xfffffb00
    70a8:	4f706d65 	svcmi	0x00706d65
    70ac:	67655266 	strbvs	r5, [r5, -r6, ror #4]!
    70b0:	50474d00 	subpl	r4, r7, r0, lsl #26
    70b4:	755f4f49 	ldrbvc	r4, [pc, #-3913]	@ 6173 <_Min_Stack_Size+0x5d73>
    70b8:	53746464 	cmnpl	r4, #100, 8	@ 0x64000000
    70bc:	6f507465 	svcvs	0x00507465
    70c0:	4d007472 	cfstrsmi	mvf7, [r0, #-456]	@ 0xfffffe38
    70c4:	4f495047 	svcmi	0x00495047
    70c8:	6464755f 	strbtvs	r7, [r4], #-1375	@ 0xfffffaa1
    70cc:	74654774 	strbtvc	r4, [r5], #-1908	@ 0xfffff88c
    70d0:	006e6950 	rsbeq	r6, lr, r0, asr r9
    70d4:	4950474d 	ldmdbmi	r0, {r0, r2, r3, r6, r8, r9, sl, lr}^
    70d8:	64755f4f 	ldrbtvs	r5, [r5], #-3919	@ 0xfffff0b1
    70dc:	65537464 	ldrbvs	r7, [r3, #-1124]	@ 0xfffffb9c
    70e0:	736f4d74 	cmnvc	pc, #116, 26	@ 0x1d00
    70e4:	69503874 	ldmdbvs	r0, {r2, r4, r5, r6, fp, ip, sp}^
    70e8:	4d00736e 	stcmi	3, cr7, [r0, #-440]	@ 0xfffffe48
    70ec:	4f495047 	svcmi	0x00495047
    70f0:	544f4e5f 	strbpl	r4, [pc], #-3679	@ 70f8 <_Min_Stack_Size+0x6cf8>
    70f4:	434f4c5f 	movtmi	r4, #64607	@ 0xfc5f
    70f8:	0044454b 	subeq	r4, r4, fp, asr #10
    70fc:	74646475 	strbtvc	r6, [r4], #-1141	@ 0xfffffb8b
    7100:	4f746552 	svcmi	0x00746552
    7104:	636f4c66 	cmnvs	pc, #26112	@ 0x6600
    7108:	3875006b 	ldmdacc	r5!, {r0, r1, r3, r5, r6}^
    710c:	4f6c6156 	svcmi	0x006c6156
    7110:	676f4c66 	strbvs	r4, [pc, -r6, ror #24]!
    7114:	4d006369 	stcmi	3, cr6, [r0, #-420]	@ 0xfffffe5c
    7118:	4f495047 	svcmi	0x00495047
    711c:	6464755f 	strbtvs	r7, [r4], #-1375	@ 0xfffffaa1
    7120:	6e695074 	mcrvs	0, 3, r5, cr9, cr4, {3}
    7124:	6b636f4c 	blvs	18e2e5c <_Min_Stack_Size+0x18e2a5c>
    7128:	4d00745f 	cfstrsmi	mvf7, [r0, #-380]	@ 0xfffffe84
    712c:	4f495047 	svcmi	0x00495047
    7130:	6464755f 	strbtvs	r7, [r4], #-1375	@ 0xfffffaa1
    7134:	676f5474 			@ <UNDEFINED> instruction: 0x676f5474
    7138:	006e6950 	rsbeq	r6, lr, r0, asr r9
    713c:	56363175 			@ <UNDEFINED> instruction: 0x56363175
    7140:	664f6c61 	strbvs	r6, [pc], -r1, ror #24
    7144:	69676f4c 	stmdbvs	r7!, {r2, r3, r6, r8, r9, sl, fp, sp, lr}^
    7148:	38750063 	ldmdacc	r5!, {r0, r1, r5, r6}^
    714c:	4f746552 	svcmi	0x00746552
    7150:	736f5066 	cmnvc	pc, #102	@ 0x66
    7154:	6f697469 	svcvs	0x00697469
    7158:	3875006e 	ldmdacc	r5!, {r1, r2, r3, r5, r6}^
    715c:	436e6950 	cmnmi	lr, #80, 18	@ 0x140000
    7160:	69666e6f 	stmdbvs	r6!, {r0, r1, r2, r3, r5, r6, r9, sl, fp, sp, lr}^
    7164:	6c615667 	stclvs	6, cr5, [r1], #-412	@ 0xfffffe64
    7168:	50474d00 	subpl	r4, r7, r0, lsl #26
    716c:	755f4f49 	ldrbvc	r4, [pc, #-3913]	@ 622b <_Min_Stack_Size+0x5e2b>
    7170:	52746464 	rsbspl	r6, r4, #100, 8	@ 0x64000000
    7174:	74657365 	strbtvc	r7, [r5], #-869	@ 0xfffffc9b
    7178:	74726f50 	ldrbtvc	r6, [r2], #-3920	@ 0xfffff0b0
    717c:	50474d00 	subpl	r4, r7, r0, lsl #26
    7180:	755f4f49 	ldrbvc	r4, [pc, #-3913]	@ 623f <_Min_Stack_Size+0x5e3f>
    7184:	53746464 	cmnpl	r4, #100, 8	@ 0x64000000
    7188:	69507465 	ldmdbvs	r0, {r0, r2, r5, r6, sl, ip, sp, lr}^
    718c:	3875006e 	ldmdacc	r5!, {r1, r2, r3, r5, r6}^
    7190:	506e6950 	rsbpl	r6, lr, r0, asr r9
    7194:	7461736f 	strbtvc	r7, [r1], #-879	@ 0xfffffc91
    7198:	566e6f69 	strbtpl	r6, [lr], -r9, ror #30
    719c:	4d006c61 	stcmi	12, cr6, [r0, #-388]	@ 0xfffffe7c
    71a0:	4f495047 	svcmi	0x00495047
    71a4:	6464755f 	strbtvs	r7, [r4], #-1375	@ 0xfffffaa1
    71a8:	74655374 	strbtvc	r5, [r5], #-884	@ 0xfffffc8c
    71ac:	7361654c 	cmnvc	r1, #76, 10	@ 0x13000000
    71b0:	69503874 	ldmdbvs	r0, {r2, r4, r5, r6, fp, ip, sp}^
    71b4:	4d00736e 	stcmi	3, cr7, [r0, #-440]	@ 0xfffffe48
    71b8:	4f495047 	svcmi	0x00495047
    71bc:	6464755f 	strbtvs	r7, [r4], #-1375	@ 0xfffffaa1
    71c0:	636f4c74 	cmnvs	pc, #116, 24	@ 0x7400
    71c4:	6e69506b 	cdpvs	0, 6, cr5, cr9, cr11, {3}
    71c8:	36317500 	ldrtcc	r7, [r1], -r0, lsl #10
    71cc:	4f746552 	svcmi	0x00746552
    71d0:	676f4c66 	strbvs	r4, [pc, -r6, ror #24]!
    71d4:	75006369 	strvc	r6, [r0, #-873]	@ 0xfffffc97
    71d8:	31746e69 	cmncc	r4, r9, ror #28
    71dc:	54560036 	ldrbpl	r0, [r6], #-54	@ 0xffffffca
    71e0:	4300524f 	movwmi	r5, #591	@ 0x24f
    71e4:	44495550 	strbmi	r5, [r9], #-1360	@ 0xfffffab0
    71e8:	52387500 	eorspl	r7, r8, #0, 10
    71ec:	664f7465 	strbvs	r7, [pc], -r5, ror #8
    71f0:	74617453 	strbtvc	r7, [r1], #-1107	@ 0xfffffbad
    71f4:	49007375 	stmdbmi	r0, {r0, r2, r4, r5, r6, r8, r9, ip, sp, lr}
    71f8:	00525343 	subseq	r5, r2, r3, asr #6
    71fc:	6e697576 	mcrvs	5, 3, r7, cr9, cr6, {3}
    7200:	52003874 	andpl	r3, r0, #116, 16	@ 0x740000
    7204:	52455345 	subpl	r5, r5, #335544321	@ 0x14000001
    7208:	31444556 	cmpcc	r4, r6, asr r5
    720c:	53455200 	movtpl	r5, #20992	@ 0x5200
    7210:	45565245 	ldrbmi	r5, [r6, #-581]	@ 0xfffffdbb
    7214:	75003244 	strvc	r3, [r0, #-580]	@ 0xfffffdbc
    7218:	47746464 	ldrbmi	r6, [r4, -r4, ror #8]!
    721c:	70756f72 	rsbsvc	r6, r5, r2, ror pc
    7220:	656c6553 	strbvs	r6, [ip, #-1363]!	@ 0xfffffaad
    7224:	6f697463 	svcvs	0x00697463
    7228:	4149006e 	cmpmi	r9, lr, rrx
    722c:	00785242 	rsbseq	r5, r8, r2, asr #4
    7230:	52455349 	subpl	r5, r5, #603979777	@ 0x24000001
    7234:	45520078 	ldrbmi	r0, [r2, #-120]	@ 0xffffff88
    7238:	56524553 			@ <UNDEFINED> instruction: 0x56524553
    723c:	00334445 	eorseq	r4, r3, r5, asr #8
    7240:	45534552 	ldrbmi	r4, [r3, #-1362]	@ 0xfffffaae
    7244:	44455652 	strbmi	r5, [r5], #-1618	@ 0xfffff9ae
    7248:	45520034 	ldrbmi	r0, [r2, #-52]	@ 0xffffffcc
    724c:	56524553 			@ <UNDEFINED> instruction: 0x56524553
    7250:	00354445 	eorseq	r4, r5, r5, asr #8
    7254:	52534648 	subspl	r4, r3, #72, 12	@ 0x4800000
    7258:	43485300 	movtmi	r5, #33536	@ 0x8300
    725c:	53005352 	movwpl	r5, #850	@ 0x352
    7260:	00524954 	subseq	r4, r2, r4, asr r9
    7264:	45534552 	ldrbmi	r4, [r3, #-1362]	@ 0xfffffaae
    7268:	44455652 	strbmi	r5, [r5], #-1618	@ 0xfffff9ae
    726c:	564e4d00 	strbpl	r4, [lr], -r0, lsl #26
    7270:	475f4349 	ldrbmi	r4, [pc, -r9, asr #6]
    7274:	36315f50 	shsaxcc	r5, r1, r0
    7278:	5f50535f 	svcpl	0x0050535f
    727c:	75003030 	strvc	r3, [r0, #-48]	@ 0xffffffd0
    7280:	51524938 	cmppl	r2, r8, lsr r9
    7284:	564e4d00 	strbpl	r4, [lr], -r0, lsl #26
    7288:	475f4349 	ldrbmi	r4, [pc, -r9, asr #6]
    728c:	30305f50 	eorscc	r5, r0, r0, asr pc
    7290:	5f50535f 	svcpl	0x0050535f
    7294:	4d003631 	stcmi	6, cr3, [r0, #-196]	@ 0xffffff3c
    7298:	4349564e 	movtmi	r5, #38478	@ 0x964e
    729c:	6464755f 	strbtvs	r7, [r4], #-1375	@ 0xfffffaa1
    72a0:	41734974 	cmnmi	r3, r4, ror r9
    72a4:	76697463 	strbtvc	r7, [r9], -r3, ror #8
    72a8:	51524965 	cmppl	r2, r5, ror #18
    72ac:	564e4d00 	strbpl	r4, [lr], -r0, lsl #26
    72b0:	755f4349 	ldrbvc	r4, [pc, #-841]	@ 6f6f <_Min_Stack_Size+0x6b6f>
    72b4:	47746464 	ldrbmi	r6, [r4, -r4, ror #8]!
    72b8:	70756f72 	rsbsvc	r6, r5, r2, ror pc
    72bc:	00745f73 	rsbseq	r5, r4, r3, ror pc
    72c0:	49564e4d 	ldmdbmi	r6, {r0, r2, r3, r6, r9, sl, fp, lr}^
    72c4:	50475f43 	subpl	r5, r7, r3, asr #30
    72c8:	5f32305f 	svcpl	0x0032305f
    72cc:	305f5053 	subscc	r5, pc, r3, asr r0	@ <UNPREDICTABLE>
    72d0:	4d4d0038 	stclmi	0, cr0, [sp, #-224]	@ 0xffffff20
    72d4:	4d005241 	sfmmi	f5, 4, [r0, #-260]	@ 0xfffffefc
    72d8:	4349564e 	movtmi	r5, #38478	@ 0x964e
    72dc:	6464755f 	strbtvs	r7, [r4], #-1375	@ 0xfffffaa1
    72e0:	74654774 	strbtvc	r4, [r5], #-1908	@ 0xfffff88c
    72e4:	646e6550 	strbtvs	r6, [lr], #-1360	@ 0xfffffab0
    72e8:	49676e69 	stmdbmi	r7!, {r0, r3, r5, r6, r9, sl, fp, sp, lr}^
    72ec:	4d005152 	stfmis	f5, [r0, #-328]	@ 0xfffffeb8
    72f0:	4349564e 	movtmi	r5, #38478	@ 0x964e
    72f4:	5f50475f 	svcpl	0x0050475f
    72f8:	535f3430 	cmppl	pc, #48, 8	@ 0x30000000
    72fc:	34305f50 	ldrtcc	r5, [r0], #-3920	@ 0xfffff0b0
    7300:	41464200 	mrsmi	r4, (UNDEF: 102)
    7304:	53490052 	movtpl	r0, #36946	@ 0x9052
    7308:	00785250 	rsbseq	r5, r8, r0, asr r2
    730c:	75533875 	ldrbvc	r3, [r3, #-2165]	@ 0xfffff78b
    7310:	69725062 	ldmdbvs	r2!, {r1, r5, r6, ip, lr}^
    7314:	7469726f 	strbtvc	r7, [r9], #-623	@ 0xfffffd91
    7318:	43490079 	movtmi	r0, #36985	@ 0x9079
    731c:	00785245 	rsbseq	r5, r8, r5, asr #4
    7320:	52534643 	subspl	r4, r3, #70254592	@ 0x4300000
    7324:	2f2e2e00 	svccs	0x002e2e00
    7328:	2f637253 	svccs	0x00637253
    732c:	4c41434d 	mcrrmi	3, 4, r4, r1, cr13
    7330:	49564e2f 	ldmdbmi	r6, {r0, r1, r2, r3, r5, r9, sl, fp, lr}^
    7334:	00632e43 	rsbeq	r2, r3, r3, asr #28
    7338:	43524941 	cmpmi	r2, #1064960	@ 0x104000
    733c:	50490052 	subpl	r0, r9, r2, asr r0
    7340:	4d007852 	stcmi	8, cr7, [r0, #-328]	@ 0xfffffeb8
    7344:	4349564e 	movtmi	r5, #38478	@ 0x964e
    7348:	6464755f 	strbtvs	r7, [r4], #-1375	@ 0xfffffaa1
    734c:	74655374 	strbtvc	r5, [r5], #-884	@ 0xfffffc8c
    7350:	646e6550 	strbtvs	r6, [lr], #-1360	@ 0xfffffab0
    7354:	49676e69 	stmdbmi	r7!, {r0, r3, r5, r6, r9, sl, fp, sp, lr}^
    7358:	53005152 	movwpl	r5, #338	@ 0x152
    735c:	725f4243 	subsvc	r4, pc, #805306372	@ 0x30000004
    7360:	73696765 	cmnvc	r9, #26476544	@ 0x1940000
    7364:	4d726574 	cfldr64mi	mvdx6, [r2, #-464]!	@ 0xfffffe30
    7368:	745f7061 	ldrbvc	r7, [pc], #-97	@ 7370 <_Min_Stack_Size+0x6f70>
    736c:	50387500 	eorspl	r7, r8, r0, lsl #10
    7370:	726f6972 	rsbvc	r6, pc, #1867776	@ 0x1c8000
    7374:	00797469 	rsbseq	r7, r9, r9, ror #8
    7378:	4349564e 	movtmi	r5, #38478	@ 0x964e
    737c:	6765725f 			@ <UNDEFINED> instruction: 0x6765725f
    7380:	65747369 	ldrbvs	r7, [r4, #-873]!	@ 0xfffffc97
    7384:	70614d72 	rsbvc	r4, r1, r2, ror sp
    7388:	4d00745f 	cfstrsmi	mvf7, [r0, #-380]	@ 0xfffffe84
    738c:	4349564e 	movtmi	r5, #38478	@ 0x964e
    7390:	6464755f 	strbtvs	r7, [r4], #-1375	@ 0xfffffaa1
    7394:	74655374 	strbtvc	r5, [r5], #-884	@ 0xfffffc8c
    7398:	50515249 	subspl	r5, r1, r9, asr #4
    739c:	726f6972 	rsbvc	r6, pc, #1867776	@ 0x1c8000
    73a0:	00797469 	rsbseq	r7, r9, r9, ror #8
    73a4:	49564e4d 	ldmdbmi	r6, {r0, r2, r3, r6, r9, sl, fp, lr}^
    73a8:	50475f43 	subpl	r5, r7, r3, asr #30
    73ac:	5f38305f 	svcpl	0x0038305f
    73b0:	305f5053 	subscc	r5, pc, r3, asr r0	@ <UNPREDICTABLE>
    73b4:	4e4d0032 	mcrmi	0, 2, r0, cr13, cr2, {1}
    73b8:	5f434956 	svcpl	0x00434956
    73bc:	74646475 	strbtvc	r6, [r4], #-1141	@ 0xfffffb8b
    73c0:	49746553 	ldmdbmi	r4!, {r0, r1, r4, r6, r8, sl, sp, lr}^
    73c4:	72475152 	subvc	r5, r7, #-2147483628	@ 0x80000014
    73c8:	0070756f 	rsbseq	r7, r0, pc, ror #10
    73cc:	49564e4d 	ldmdbmi	r6, {r0, r2, r3, r6, r9, sl, fp, lr}^
    73d0:	64755f43 	ldrbtvs	r5, [r5], #-3907	@ 0xfffff0bd
    73d4:	65527464 	ldrbvs	r7, [r2, #-1124]	@ 0xfffffb9c
    73d8:	50746573 	rsbspl	r6, r4, r3, ror r5
    73dc:	69646e65 	stmdbvs	r4!, {r0, r2, r5, r6, r9, sl, fp, sp, lr}^
    73e0:	5249676e 	subpl	r6, r9, #28835840	@ 0x1b80000
    73e4:	38750051 	ldmdacc	r5!, {r0, r4, r6}^
    73e8:	756f7247 	strbvc	r7, [pc, #-583]!	@ 71a9 <_Min_Stack_Size+0x6da9>
    73ec:	69725070 	ldmdbvs	r2!, {r4, r5, r6, ip, lr}^
    73f0:	7469726f 	strbtvc	r7, [r9], #-623	@ 0xfffffd91
    73f4:	48530079 	ldmdami	r3, {r0, r3, r4, r5, r6}^
    73f8:	00785250 	rsbseq	r5, r8, r0, asr r2
    73fc:	52504349 	subspl	r4, r0, #603979777	@ 0x24000001
    7400:	524d0078 	subpl	r0, sp, #120	@ 0x78
    7404:	545f4343 	ldrbpl	r4, [pc], #-835	@ 740c <_Min_Stack_Size+0x700c>
    7408:	30314d49 	eorscc	r4, r1, r9, asr #26
    740c:	43524d00 	cmpmi	r2, #0, 26
    7410:	49545f43 	ldmdbmi	r4, {r0, r1, r6, r8, r9, sl, fp, ip, lr}^
    7414:	0032314d 	eorseq	r3, r2, sp, asr #2
    7418:	4343524d 	movtmi	r5, #12877	@ 0x324d
    741c:	4344415f 	movtmi	r4, #16735	@ 0x415f
    7420:	43520032 	cmpmi	r2, #50	@ 0x32
    7424:	65725f43 	ldrbvs	r5, [r2, #-3907]!	@ 0xfffff0bd
    7428:	74736967 	ldrbtvc	r6, [r3], #-2407	@ 0xfffff699
    742c:	614d7265 	cmpvs	sp, r5, ror #4
    7430:	00745f70 	rsbseq	r5, r4, r0, ror pc
    7434:	74646475 	strbtvc	r6, [r4], #-1141	@ 0xfffffb8b
    7438:	536c6c50 	cmnpl	ip, #80, 24	@ 0x5000
    743c:	6372756f 	cmnvs	r2, #465567744	@ 0x1bc00000
    7440:	33750065 	cmncc	r5, #101	@ 0x65
    7444:	73795332 	cmnvc	r9, #-939524096	@ 0xc8000000
    7448:	71657246 	cmnvc	r5, r6, asr #4
    744c:	43524d00 	cmpmi	r2, #0, 26
    7450:	46415f43 	strbmi	r5, [r1], -r3, asr #30
    7454:	75004f49 	strvc	r4, [r0, #-3913]	@ 0xfffff0b7
    7458:	65523233 	ldrbvs	r3, [r2, #-563]	@ 0xfffffdcd
    745c:	46664f74 	uqsub16mi	r4, r6, r4
    7460:	00716572 	rsbseq	r6, r1, r2, ror r5
    7464:	74646475 	strbtvc	r6, [r4], #-1141	@ 0xfffffb8b
    7468:	4d6c6c50 	stclmi	12, cr6, [ip, #-320]!	@ 0xfffffec0
    746c:	69746c75 	ldmdbvs	r4!, {r0, r2, r4, r5, r6, sl, fp, sp, lr}^
    7470:	43524d00 	cmpmi	r2, #0, 26
    7474:	64755f43 	ldrbtvs	r5, [r5], #-3907	@ 0xfffff0bd
    7478:	6c507464 	cfldrdvs	mvd7, [r0], {100}	@ 0x64
    747c:	756f536c 	strbvc	r5, [pc, #-876]!	@ 7118 <_Min_Stack_Size+0x6d18>
    7480:	5f656372 	svcpl	0x00656372
    7484:	524d0074 	subpl	r0, sp, #116	@ 0x74
    7488:	505f4343 	subspl	r4, pc, r3, asr #6
    748c:	4d5f4c4c 	ldclmi	12, cr4, [pc, #-304]	@ 7364 <_Min_Stack_Size+0x6f64>
    7490:	49544c55 	ldmdbmi	r4, {r0, r2, r4, r6, sl, fp, lr}^
    7494:	0031315f 	eorseq	r3, r1, pc, asr r1
    7498:	4343524d 	movtmi	r5, #12877	@ 0x324d
    749c:	4c4c505f 	mcrrmi	0, 5, r5, ip, cr15
    74a0:	4553485f 	ldrbmi	r4, [r3, #-2143]	@ 0xfffff7a1
    74a4:	43524d00 	cmpmi	r2, #0, 26
    74a8:	64755f43 	ldrbtvs	r5, [r5], #-3907	@ 0xfffff0bd
    74ac:	65477464 	strbvs	r7, [r7, #-1124]	@ 0xfffffb9c
    74b0:	70624174 	rsbvc	r4, r2, r4, ror r1
    74b4:	65724631 	ldrbvs	r4, [r2, #-1585]!	@ 0xfffff9cf
    74b8:	524d0071 	subpl	r0, sp, #113	@ 0x71
    74bc:	435f4343 	cmpmi	pc, #201326593	@ 0xc000001
    74c0:	4d004352 	stcmi	3, cr4, [r0, #-328]	@ 0xfffffeb8
    74c4:	5f434352 	svcpl	0x00434352
    74c8:	5f424841 	svcpl	0x00424841
    74cc:	53455250 	movtpl	r5, #21072	@ 0x5250
    74d0:	454c4143 	strbmi	r4, [ip, #-323]	@ 0xfffffebd
    74d4:	35325f52 	ldrcc	r5, [r2, #-3922]!	@ 0xfffff0ae
    74d8:	524d0036 	subpl	r0, sp, #54	@ 0x36
    74dc:	415f4343 	cmpmi	pc, r3, asr #6
    74e0:	505f4248 	subspl	r4, pc, r8, asr #4
    74e4:	43534552 	cmpmi	r3, #343932928	@ 0x14800000
    74e8:	52454c41 	subpl	r4, r5, #16640	@ 0x4100
    74ec:	4d00305f 	stcmi	0, cr3, [r0, #-380]	@ 0xfffffe84
    74f0:	5f434352 	svcpl	0x00434352
    74f4:	5f424841 	svcpl	0x00424841
    74f8:	53455250 	movtpl	r5, #21072	@ 0x5250
    74fc:	454c4143 	strbmi	r4, [ip, #-323]	@ 0xfffffebd
    7500:	00325f52 	eorseq	r5, r2, r2, asr pc
    7504:	4343524d 	movtmi	r5, #12877	@ 0x324d
    7508:	4248415f 	submi	r4, r8, #-1073741801	@ 0xc0000017
    750c:	4552505f 	ldrbmi	r5, [r2, #-95]	@ 0xffffffa1
    7510:	4c414353 	mcrrmi	3, 5, r4, r1, cr3
    7514:	345f5245 	ldrbcc	r5, [pc], #-581	@ 751c <_Min_Stack_Size+0x711c>
    7518:	43524d00 	cmpmi	r2, #0, 26
    751c:	48415f43 	stmdami	r1, {r0, r1, r6, r8, r9, sl, fp, ip, lr}^
    7520:	52505f42 	subspl	r5, r0, #264	@ 0x108
    7524:	41435345 	cmpmi	r3, r5, asr #6
    7528:	5f52454c 	svcpl	0x0052454c
    752c:	50410038 	subpl	r0, r1, r8, lsr r0
    7530:	4e453242 	cdpmi	2, 4, cr3, cr5, cr2, {2}
    7534:	524d0052 	subpl	r0, sp, #82	@ 0x52
    7538:	485f4343 	ldmdami	pc, {r0, r1, r6, r8, r9, lr}^	@ <UNPREDICTABLE>
    753c:	4d004553 	cfstr32mi	mvfx4, [r0, #-332]	@ 0xfffffeb4
    7540:	5f434352 	svcpl	0x00434352
    7544:	00495348 	subeq	r5, r9, r8, asr #6
    7548:	4343524d 	movtmi	r5, #12877	@ 0x324d
    754c:	4248415f 	submi	r4, r8, #-1073741801	@ 0xc0000017
    7550:	4552505f 	ldrbmi	r5, [r2, #-95]	@ 0xffffffa1
    7554:	4c414353 	mcrrmi	3, 5, r4, r1, cr3
    7558:	315f5245 	cmpcc	pc, r5, asr #4
    755c:	4d003832 	stcmi	8, cr3, [r0, #-200]	@ 0xffffff38
    7560:	5f434352 	svcpl	0x00434352
    7564:	42504f49 	subsmi	r4, r0, #292	@ 0x124
    7568:	43524d00 	cmpmi	r2, #0, 26
    756c:	4f495f43 	svcmi	0x00495f43
    7570:	4d004350 	stcmi	3, cr4, [r0, #-320]	@ 0xfffffec0
    7574:	5f434352 	svcpl	0x00434352
    7578:	44504f49 	ldrbmi	r4, [r0], #-3913	@ 0xfffff0b7
    757c:	43524d00 	cmpmi	r2, #0, 26
    7580:	4f495f43 	svcmi	0x00495f43
    7584:	4d004550 	cfstr32mi	mvfx4, [r0, #-320]	@ 0xfffffec0
    7588:	5f434352 	svcpl	0x00434352
    758c:	46504f49 	ldrbmi	r4, [r0], -r9, asr #30
    7590:	43524d00 	cmpmi	r2, #0, 26
    7594:	4f495f43 	svcmi	0x00495f43
    7598:	4d004750 	stcmi	7, cr4, [r0, #-320]	@ 0xfffffec0
    759c:	5f434352 	svcpl	0x00434352
    75a0:	74646475 	strbtvc	r6, [r4], #-1141	@ 0xfffffb8b
    75a4:	74696e49 	strbtvc	r6, [r9], #-3657	@ 0xfffff1b7
    75a8:	006b6c43 	rsbeq	r6, fp, r3, asr #24
    75ac:	4343524d 	movtmi	r5, #12877	@ 0x324d
    75b0:	4950535f 	ldmdbmi	r0, {r0, r1, r2, r3, r4, r6, r8, r9, ip, lr}^
    75b4:	524d0031 	subpl	r0, sp, #49	@ 0x31
    75b8:	535f4343 	cmppl	pc, #201326593	@ 0xc000001
    75bc:	00324950 	eorseq	r4, r2, r0, asr r9
    75c0:	4343524d 	movtmi	r5, #12877	@ 0x324d
    75c4:	4950535f 	ldmdbmi	r0, {r0, r1, r2, r3, r4, r6, r8, r9, ip, lr}^
    75c8:	524d0033 	subpl	r0, sp, #51	@ 0x33
    75cc:	535f4343 	cmppl	pc, #201326593	@ 0xc000001
    75d0:	004f4944 	subeq	r4, pc, r4, asr #18
    75d4:	4343524d 	movtmi	r5, #12877	@ 0x324d
    75d8:	414d445f 	cmpmi	sp, pc, asr r4
    75dc:	524d0032 	subpl	r0, sp, #50	@ 0x32
    75e0:	415f4343 	cmpmi	pc, r3, asr #6
    75e4:	505f4250 	subspl	r4, pc, r0, asr r2	@ <UNPREDICTABLE>
    75e8:	43534552 	cmpmi	r3, #343932928	@ 0x14800000
    75ec:	52454c41 	subpl	r4, r5, #16640	@ 0x4100
    75f0:	0036315f 	eorseq	r3, r6, pc, asr r1
    75f4:	4343524d 	movtmi	r5, #12877	@ 0x324d
    75f8:	6464755f 	strbtvs	r7, [r4], #-1375	@ 0xfffffaa1
    75fc:	72655074 	rsbvc	r5, r5, #116	@ 0x74
    7600:	65687069 	strbvs	r7, [r8, #-105]!	@ 0xffffff97
    7604:	5f6c6172 	svcpl	0x006c6172
    7608:	524d0074 	subpl	r0, sp, #116	@ 0x74
    760c:	555f4343 	ldrbpl	r4, [pc, #-835]	@ 72d1 <_Min_Stack_Size+0x6ed1>
    7610:	54524153 	ldrbpl	r4, [r2], #-339	@ 0xfffffead
    7614:	64750034 	ldrbtvs	r0, [r5], #-52	@ 0xffffffcc
    7618:	6c507464 	cfldrdvs	mvd7, [r0], {100}	@ 0x64
    761c:	6c754d6c 	ldclvs	13, cr4, [r5], #-432	@ 0xfffffe50
    7620:	61566974 	cmpvs	r6, r4, ror r9
    7624:	524d006c 	subpl	r0, sp, #108	@ 0x6c
    7628:	545f4343 	ldrbpl	r4, [pc], #-835	@ 7630 <_Min_Stack_Size+0x7230>
    762c:	31314d49 	teqcc	r1, r9, asr #26
    7630:	43524d00 	cmpmi	r2, #0, 26
    7634:	49545f43 	ldmdbmi	r4, {r0, r1, r6, r8, r9, sl, fp, ip, lr}^
    7638:	0033314d 	eorseq	r3, r3, sp, asr #2
    763c:	4343524d 	movtmi	r5, #12877	@ 0x324d
    7640:	4d49545f 	cfstrdmi	mvd5, [r9, #-380]	@ 0xfffffe84
    7644:	42003431 	andmi	r3, r0, #822083584	@ 0x31000000
    7648:	00524344 	subseq	r4, r2, r4, asr #6
    764c:	4343524d 	movtmi	r5, #12877	@ 0x324d
    7650:	4c4c505f 	mcrrmi	0, 5, r5, ip, cr15
    7654:	4c554d5f 	mrrcmi	13, 5, r4, r5, cr15
    7658:	315f4954 	cmpcc	pc, r4, asr r9	@ <UNPREDICTABLE>
    765c:	524d0033 	subpl	r0, sp, #51	@ 0x33
    7660:	505f4343 	subspl	r4, pc, r3, asr #6
    7664:	4d5f4c4c 	ldclmi	12, cr4, [pc, #-304]	@ 753c <_Min_Stack_Size+0x713c>
    7668:	49544c55 	ldmdbmi	r4, {r0, r2, r4, r6, sl, fp, lr}^
    766c:	4d00325f 	sfmmi	f3, 4, [r0, #-380]	@ 0xfffffe84
    7670:	5f434352 	svcpl	0x00434352
    7674:	5f4c4c50 	svcpl	0x004c4c50
    7678:	544c554d 	strbpl	r5, [ip], #-1357	@ 0xfffffab3
    767c:	00335f49 	eorseq	r5, r3, r9, asr #30
    7680:	4343524d 	movtmi	r5, #12877	@ 0x324d
    7684:	4c4c505f 	mcrrmi	0, 5, r5, ip, cr15
    7688:	4c554d5f 	mrrcmi	13, 5, r4, r5, cr15
    768c:	355f4954 	ldrbcc	r4, [pc, #-2388]	@ 6d40 <_Min_Stack_Size+0x6940>
    7690:	43524d00 	cmpmi	r2, #0, 26
    7694:	4c505f43 	mrrcmi	15, 4, r5, r0, cr3
    7698:	554d5f4c 	strbpl	r5, [sp, #-3916]	@ 0xfffff0b4
    769c:	5f49544c 	svcpl	0x0049544c
    76a0:	524d0036 	subpl	r0, sp, #54	@ 0x36
    76a4:	505f4343 	subspl	r4, pc, r3, asr #6
    76a8:	4d5f4c4c 	ldclmi	12, cr4, [pc, #-304]	@ 7580 <_Min_Stack_Size+0x7180>
    76ac:	49544c55 	ldmdbmi	r4, {r0, r2, r4, r6, sl, fp, lr}^
    76b0:	4d00375f 	stcmi	7, cr3, [r0, #-380]	@ 0xfffffe84
    76b4:	5f434352 	svcpl	0x00434352
    76b8:	5f4c4c50 	svcpl	0x004c4c50
    76bc:	544c554d 	strbpl	r5, [ip], #-1357	@ 0xfffffab3
    76c0:	00385f49 	eorseq	r5, r8, r9, asr #30
    76c4:	4343524d 	movtmi	r5, #12877	@ 0x324d
    76c8:	4c4c505f 	mcrrmi	0, 5, r5, ip, cr15
    76cc:	4c554d5f 	mrrcmi	13, 5, r4, r5, cr15
    76d0:	395f4954 	ldmdbcc	pc, {r2, r4, r6, r8, fp, lr}^	@ <UNPREDICTABLE>
    76d4:	43524d00 	cmpmi	r2, #0, 26
    76d8:	52535f43 	subspl	r5, r3, #268	@ 0x10c
    76dc:	4d004d41 	stcmi	13, cr4, [r0, #-260]	@ 0xfffffefc
    76e0:	5f434352 	svcpl	0x00434352
    76e4:	74646475 	strbtvc	r6, [r4], #-1141	@ 0xfffffb8b
    76e8:	65736552 	ldrbvs	r6, [r3, #-1362]!	@ 0xfffffaae
    76ec:	72655074 	rsbvc	r5, r5, #116	@ 0x74
    76f0:	65687069 	strbvs	r7, [r8, #-105]!	@ 0xffffff97
    76f4:	006c6172 	rsbeq	r6, ip, r2, ror r1
    76f8:	50425041 	subpl	r5, r2, r1, asr #32
    76fc:	63736572 	cmnvs	r3, #478150656	@ 0x1c800000
    7700:	72656c61 	rsbvc	r6, r5, #24832	@ 0x6100
    7704:	6c626154 	stfvse	f6, [r2], #-336	@ 0xfffffeb0
    7708:	46430065 	strbmi	r0, [r3], -r5, rrx
    770c:	4d005247 	sfmmi	f5, 4, [r0, #-284]	@ 0xfffffee4
    7710:	5f434352 	svcpl	0x00434352
    7714:	434d5346 	movtmi	r5, #54086	@ 0xd346
    7718:	42504100 	subsmi	r4, r0, #0, 2
    771c:	524e4531 	subpl	r4, lr, #205520896	@ 0xc400000
    7720:	43524d00 	cmpmi	r2, #0, 26
    7724:	48415f43 	stmdami	r1, {r0, r1, r6, r8, r9, sl, fp, ip, lr}^
    7728:	52505f42 	subspl	r5, r0, #264	@ 0x108
    772c:	41435345 	cmpmi	r3, r5, asr #6
    7730:	5f52454c 	svcpl	0x0052454c
    7734:	4d003631 	stcmi	6, cr3, [r0, #-196]	@ 0xffffff3c
    7738:	5f434352 	svcpl	0x00434352
    773c:	74646475 	strbtvc	r6, [r4], #-1141	@ 0xfffffb8b
    7740:	50626841 	rsbpl	r6, r2, r1, asr #16
    7744:	63736572 	cmnvs	r3, #478150656	@ 0x1c800000
    7748:	72656c61 	rsbvc	r6, r5, #24832	@ 0x6100
    774c:	4d00745f 	cfstrsmi	mvf7, [r0, #-380]	@ 0xfffffe84
    7750:	5f434352 	svcpl	0x00434352
    7754:	314d4954 	cmpcc	sp, r4, asr r9
    7758:	43524d00 	cmpmi	r2, #0, 26
    775c:	49545f43 	ldmdbmi	r4, {r0, r1, r6, r8, r9, sl, fp, ip, lr}^
    7760:	4d00324d 	sfmmi	f3, 4, [r0, #-308]	@ 0xfffffecc
    7764:	5f434352 	svcpl	0x00434352
    7768:	334d4954 	movtcc	r4, #55636	@ 0xd954
    776c:	43524d00 	cmpmi	r2, #0, 26
    7770:	49545f43 	ldmdbmi	r4, {r0, r1, r6, r8, r9, sl, fp, ip, lr}^
    7774:	4d00344d 	cfstrsmi	mvf3, [r0, #-308]	@ 0xfffffecc
    7778:	5f434352 	svcpl	0x00434352
    777c:	354d4954 	strbcc	r4, [sp, #-2388]	@ 0xfffff6ac
    7780:	43524d00 	cmpmi	r2, #0, 26
    7784:	49545f43 	ldmdbmi	r4, {r0, r1, r6, r8, r9, sl, fp, ip, lr}^
    7788:	4d00384d 	stcmi	8, cr3, [r0, #-308]	@ 0xfffffecc
    778c:	5f434352 	svcpl	0x00434352
    7790:	394d4954 	stmdbcc	sp, {r2, r4, r6, r8, fp, lr}^
    7794:	43524d00 	cmpmi	r2, #0, 26
    7798:	64755f43 	ldrbtvs	r5, [r5], #-3907	@ 0xfffff0bd
    779c:	4c507464 	cfldrdmi	mvd7, [r0], {100}	@ 0x64
    77a0:	6c754d4c 	ldclvs	13, cr4, [r5], #-304	@ 0xfffffed0
    77a4:	745f6974 	ldrbvc	r6, [pc], #-2420	@ 77ac <_Min_Stack_Size+0x73ac>
    77a8:	43524d00 	cmpmi	r2, #0, 26
    77ac:	57575f43 	ldrbpl	r5, [r7, -r3, asr #30]
    77b0:	4d004744 	stcmi	7, cr4, [r0, #-272]	@ 0xfffffef0
    77b4:	5f434352 	svcpl	0x00434352
    77b8:	31434441 	cmpcc	r3, r1, asr #8
    77bc:	43524d00 	cmpmi	r2, #0, 26
    77c0:	44415f43 	strbmi	r5, [r1], #-3907	@ 0xfffff0bd
    77c4:	2e003343 	cdpcs	3, 0, cr3, cr0, cr3, {2}
    77c8:	72532f2e 	subsvc	r2, r3, #46, 30	@ 0xb8
    77cc:	434d2f63 	movtmi	r2, #57187	@ 0xdf63
    77d0:	522f4c41 	eorpl	r4, pc, #16640	@ 0x4100
    77d4:	632e4343 			@ <UNDEFINED> instruction: 0x632e4343
    77d8:	42504100 	subsmi	r4, r0, #0, 2
    77dc:	54535232 	ldrbpl	r5, [r3], #-562	@ 0xfffffdce
    77e0:	64750052 	ldrbtvs	r0, [r5], #-82	@ 0xffffffae
    77e4:	6c437464 	cfstrdvs	mvd7, [r3], {100}	@ 0x64
    77e8:	6c65536b 	stclvs	3, cr5, [r5], #-428	@ 0xfffffe54
    77ec:	00746365 	rsbseq	r6, r4, r5, ror #6
    77f0:	4343524d 	movtmi	r5, #12877	@ 0x324d
    77f4:	4c4c505f 	mcrrmi	0, 5, r5, ip, cr15
    77f8:	43524d00 	cmpmi	r2, #0, 26
    77fc:	4f495f43 	svcmi	0x00495f43
    7800:	4d004150 	stfmis	f4, [r0, #-320]	@ 0xfffffec0
    7804:	5f434352 	svcpl	0x00434352
    7808:	5f424841 	svcpl	0x00424841
    780c:	53455250 	movtpl	r5, #21072	@ 0x5250
    7810:	454c4143 	strbmi	r4, [ip, #-323]	@ 0xfffffebd
    7814:	34365f52 	ldrtcc	r5, [r6], #-3922	@ 0xfffff0ae
    7818:	43524d00 	cmpmi	r2, #0, 26
    781c:	41435f43 	cmpmi	r3, r3, asr #30
    7820:	6475004e 	ldrbtvs	r0, [r5], #-78	@ 0xffffffb2
    7824:	70417464 	subvc	r7, r1, r4, ror #8
    7828:	72503262 	subsvc	r3, r0, #536870918	@ 0x20000006
    782c:	61637365 	cmnvs	r3, r5, ror #6
    7830:	0072656c 	rsbseq	r6, r2, ip, ror #10
    7834:	4343524d 	movtmi	r5, #12877	@ 0x324d
    7838:	4d49545f 	cfstrdmi	mvd5, [r9, #-380]	@ 0xfffffe84
    783c:	524d0036 	subpl	r0, sp, #54	@ 0x36
    7840:	545f4343 	ldrbpl	r4, [pc], #-835	@ 7848 <_Min_Stack_Size+0x7448>
    7844:	00374d49 	eorseq	r4, r7, r9, asr #26
    7848:	31425041 	cmpcc	r2, r1, asr #32
    784c:	52545352 	subspl	r5, r4, #1207959553	@ 0x48000001
    7850:	43524d00 	cmpmi	r2, #0, 26
    7854:	50415f43 	subpl	r5, r1, r3, asr #30
    7858:	52505f42 	subspl	r5, r0, #264	@ 0x108
    785c:	41435345 	cmpmi	r3, r5, asr #6
    7860:	5f52454c 	svcpl	0x0052454c
    7864:	524d0030 	subpl	r0, sp, #48	@ 0x30
    7868:	415f4343 	cmpmi	pc, r3, asr #6
    786c:	505f4250 	subspl	r4, pc, r0, asr r2	@ <UNPREDICTABLE>
    7870:	43534552 	cmpmi	r3, #343932928	@ 0x14800000
    7874:	52454c41 	subpl	r4, r5, #16640	@ 0x4100
    7878:	4d00325f 	sfmmi	f3, 4, [r0, #-380]	@ 0xfffffe84
    787c:	5f434352 	svcpl	0x00434352
    7880:	5f425041 	svcpl	0x00425041
    7884:	53455250 	movtpl	r5, #21072	@ 0x5250
    7888:	454c4143 	strbmi	r4, [ip, #-323]	@ 0xfffffebd
    788c:	00345f52 	eorseq	r5, r4, r2, asr pc
    7890:	50424841 	subpl	r4, r2, r1, asr #16
    7894:	63736572 	cmnvs	r3, #478150656	@ 0x1c800000
    7898:	72656c61 	rsbvc	r6, r5, #24832	@ 0x6100
    789c:	6c626154 	stfvse	f6, [r2], #-336	@ 0xfffffeb0
    78a0:	524d0065 	subpl	r0, sp, #101	@ 0x65
    78a4:	425f4343 	subsmi	r4, pc, #201326593	@ 0xc000001
    78a8:	4d00504b 	stcmi	0, cr5, [r0, #-300]	@ 0xfffffed4
    78ac:	5f434352 	svcpl	0x00434352
    78b0:	5f455348 	svcpl	0x00455348
    78b4:	51455246 	cmppl	r5, r6, asr #4
    78b8:	30303420 	eorscc	r3, r0, r0, lsr #8
    78bc:	30303030 	eorscc	r3, r0, r0, lsr r0
    78c0:	4d004c55 	stcmi	12, cr4, [r0, #-340]	@ 0xfffffeac
    78c4:	5f434352 	svcpl	0x00434352
    78c8:	5f495348 	svcpl	0x00495348
    78cc:	51455246 	cmppl	r5, r6, asr #4
    78d0:	30303820 	eorscc	r3, r0, r0, lsr #16
    78d4:	30303030 	eorscc	r3, r0, r0, lsr r0
    78d8:	4d004c55 	stcmi	12, cr4, [r0, #-340]	@ 0xfffffeac
    78dc:	5f434352 	svcpl	0x00434352
    78e0:	31414d44 	cmpcc	r1, r4, asr #26
    78e4:	43524d00 	cmpmi	r2, #0, 26
    78e8:	41445f43 	cmpmi	r4, r3, asr #30
    78ec:	64750043 	ldrbtvs	r0, [r5], #-67	@ 0xffffffbd
    78f0:	70417464 	subvc	r7, r1, r4, ror #8
    78f4:	72503162 	subsvc	r3, r0, #-2147483624	@ 0x80000018
    78f8:	61637365 	cmnvs	r3, r5, ror #6
    78fc:	0072656c 	rsbseq	r6, r2, ip, ror #10
    7900:	4343524d 	movtmi	r5, #12877	@ 0x324d
    7904:	6464755f 	strbtvs	r7, [r4], #-1375	@ 0xfffffaa1
    7908:	74654774 	strbtvc	r4, [r5], #-1908	@ 0xfffff88c
    790c:	46737953 			@ <UNDEFINED> instruction: 0x46737953
    7910:	00716572 	rsbseq	r6, r1, r2, ror r5
    7914:	4343524d 	movtmi	r5, #12877	@ 0x324d
    7918:	4253555f 	subsmi	r5, r3, #398458880	@ 0x17c00000
    791c:	43524d00 	cmpmi	r2, #0, 26
    7920:	64755f43 	ldrbtvs	r5, [r5], #-3907	@ 0xfffff0bd
    7924:	65477464 	strbvs	r7, [r7, #-1124]	@ 0xfffffb9c
    7928:	62684174 	rsbvs	r4, r8, #116, 2
    792c:	71657246 	cmnvc	r5, r6, asr #4
    7930:	43524d00 	cmpmi	r2, #0, 26
    7934:	64755f43 	ldrbtvs	r5, [r5], #-3907	@ 0xfffff0bd
    7938:	70417464 	subvc	r7, r1, r4, ror #8
    793c:	65725062 	ldrbvs	r5, [r2, #-98]!	@ 0xffffff9e
    7940:	6c616373 	stclvs	3, cr6, [r1], #-460	@ 0xfffffe34
    7944:	745f7265 	ldrbvc	r7, [pc], #-613	@ 794c <_Min_Stack_Size+0x754c>
    7948:	43524d00 	cmpmi	r2, #0, 26
    794c:	53555f43 	cmppl	r5, #268	@ 0x10c
    7950:	31545241 	cmpcc	r4, r1, asr #4
    7954:	43524d00 	cmpmi	r2, #0, 26
    7958:	53555f43 	cmppl	r5, #268	@ 0x10c
    795c:	32545241 	subscc	r5, r4, #268435460	@ 0x10000004
    7960:	43524d00 	cmpmi	r2, #0, 26
    7964:	53555f43 	cmppl	r5, #268	@ 0x10c
    7968:	33545241 	cmpcc	r4, #268435460	@ 0x10000004
    796c:	43524d00 	cmpmi	r2, #0, 26
    7970:	53555f43 	cmppl	r5, #268	@ 0x10c
    7974:	35545241 	ldrbcc	r5, [r4, #-577]	@ 0xfffffdbf
    7978:	43524d00 	cmpmi	r2, #0, 26
    797c:	64755f43 	ldrbtvs	r5, [r5], #-3907	@ 0xfffff0bd
    7980:	6e497464 	cdpvs	4, 4, cr7, cr9, cr4, {3}
    7984:	6c507469 	cfldrdvs	mvd7, [r0], {105}	@ 0x69
    7988:	524d006c 	subpl	r0, sp, #108	@ 0x6c
    798c:	505f4343 	subspl	r4, pc, r3, asr #6
    7990:	485f4c4c 	ldmdami	pc, {r2, r3, r6, sl, fp, lr}^	@ <UNPREDICTABLE>
    7994:	4d004953 	vstrmi.16	s8, [r0, #-166]	@ 0xffffff5a	@ <UNPREDICTABLE>
    7998:	5f434352 	svcpl	0x00434352
    799c:	00525750 	subseq	r5, r2, r0, asr r7
    79a0:	4343524d 	movtmi	r5, #12877	@ 0x324d
    79a4:	4c4c505f 	mcrrmi	0, 5, r5, ip, cr15
    79a8:	4c554d5f 	mrrcmi	13, 5, r4, r5, cr15
    79ac:	345f4954 	ldrbcc	r4, [pc], #-2388	@ 79b4 <_Min_Stack_Size+0x75b4>
    79b0:	43524d00 	cmpmi	r2, #0, 26
    79b4:	64755f43 	ldrbtvs	r5, [r5], #-3907	@ 0xfffff0bd
    79b8:	6c437464 	cfstrdvs	mvd7, [r3], {100}	@ 0x64
    79bc:	756f536b 	strbvc	r5, [pc, #-875]!	@ 7659 <_Min_Stack_Size+0x7259>
    79c0:	5f656372 	svcpl	0x00656372
    79c4:	64750074 	ldrbtvs	r0, [r5], #-116	@ 0xffffff8c
    79c8:	68417464 	stmdavs	r1, {r2, r5, r6, sl, ip, sp, lr}^
    79cc:	65725062 	ldrbvs	r5, [r2, #-98]!	@ 0xffffff9e
    79d0:	6c616373 	stclvs	3, cr6, [r1], #-460	@ 0xfffffe34
    79d4:	41007265 	tstmi	r0, r5, ror #4
    79d8:	4e454248 	cdpmi	2, 4, cr4, cr5, cr8, {2}
    79dc:	524d0052 	subpl	r0, sp, #82	@ 0x52
    79e0:	755f4343 	ldrbvc	r4, [pc, #-835]	@ 76a5 <_Min_Stack_Size+0x72a5>
    79e4:	45746464 	ldrbmi	r6, [r4, #-1124]!	@ 0xfffffb9c
    79e8:	6c62616e 	stfvse	f6, [r2], #-440	@ 0xfffffe48
    79ec:	72655065 	rsbvc	r5, r5, #101	@ 0x65
    79f0:	65687069 	strbvs	r7, [r8, #-105]!	@ 0xffffff97
    79f4:	006c6172 	rsbeq	r6, ip, r2, ror r1
    79f8:	74646475 	strbtvc	r6, [r4], #-1141	@ 0xfffffb8b
    79fc:	69726550 	ldmdbvs	r2!, {r4, r6, r8, sl, sp, lr}^
    7a00:	72656870 	rsbvc	r6, r5, #112, 16	@ 0x700000
    7a04:	4d006c61 	stcmi	12, cr6, [r0, #-388]	@ 0xfffffe7c
    7a08:	5f434352 	svcpl	0x00434352
    7a0c:	5f4c4c50 	svcpl	0x004c4c50
    7a10:	5f455348 	svcpl	0x00455348
    7a14:	49564944 	ldmdbmi	r6, {r2, r6, r8, fp, lr}^
    7a18:	00444544 	subeq	r4, r4, r4, asr #10
    7a1c:	4343524d 	movtmi	r5, #12877	@ 0x324d
    7a20:	4332495f 	teqmi	r2, #1556480	@ 0x17c000
    7a24:	524d0031 	subpl	r0, sp, #49	@ 0x31
    7a28:	495f4343 	ldmdbmi	pc, {r0, r1, r6, r8, r9, lr}^	@ <UNPREDICTABLE>
    7a2c:	00324332 	eorseq	r4, r2, r2, lsr r3
    7a30:	4343524d 	movtmi	r5, #12877	@ 0x324d
    7a34:	4c4c505f 	mcrrmi	0, 5, r5, ip, cr15
    7a38:	4c554d5f 	mrrcmi	13, 5, r4, r5, cr15
    7a3c:	315f4954 	cmpcc	pc, r4, asr r9	@ <UNPREDICTABLE>
    7a40:	524d0030 	subpl	r0, sp, #48	@ 0x30
    7a44:	505f4343 	subspl	r4, pc, r3, asr #6
    7a48:	4d5f4c4c 	ldclmi	12, cr4, [pc, #-304]	@ 7920 <_Min_Stack_Size+0x7520>
    7a4c:	49544c55 	ldmdbmi	r4, {r0, r2, r4, r6, sl, fp, lr}^
    7a50:	0032315f 	eorseq	r3, r2, pc, asr r1
    7a54:	4343524d 	movtmi	r5, #12877	@ 0x324d
    7a58:	4c4c505f 	mcrrmi	0, 5, r5, ip, cr15
    7a5c:	4c554d5f 	mrrcmi	13, 5, r4, r5, cr15
    7a60:	315f4954 	cmpcc	pc, r4, asr r9	@ <UNPREDICTABLE>
    7a64:	524d0034 	subpl	r0, sp, #52	@ 0x34
    7a68:	505f4343 	subspl	r4, pc, r3, asr #6
    7a6c:	4d5f4c4c 	ldclmi	12, cr4, [pc, #-304]	@ 7944 <_Min_Stack_Size+0x7544>
    7a70:	49544c55 	ldmdbmi	r4, {r0, r2, r4, r6, sl, fp, lr}^
    7a74:	0035315f 	eorseq	r3, r5, pc, asr r1
    7a78:	4343524d 	movtmi	r5, #12877	@ 0x324d
    7a7c:	4c4c505f 	mcrrmi	0, 5, r5, ip, cr15
    7a80:	4c554d5f 	mrrcmi	13, 5, r4, r5, cr15
    7a84:	315f4954 	cmpcc	pc, r4, asr r9	@ <UNPREDICTABLE>
    7a88:	524d0036 	subpl	r0, sp, #54	@ 0x36
    7a8c:	415f4343 	cmpmi	pc, r3, asr #6
    7a90:	505f4250 	subspl	r4, pc, r0, asr r2	@ <UNPREDICTABLE>
    7a94:	43534552 	cmpmi	r3, #343932928	@ 0x14800000
    7a98:	52454c41 	subpl	r4, r5, #16640	@ 0x4100
    7a9c:	4d00385f 	stcmi	8, cr3, [r0, #-380]	@ 0xfffffe84
    7aa0:	5f434352 	svcpl	0x00434352
    7aa4:	54494c46 	strbpl	r4, [r9], #-3142	@ 0xfffff3ba
    7aa8:	434d0046 	movtmi	r0, #53318	@ 0xd046
    7aac:	525f4c41 	subspl	r4, pc, #16640	@ 0x4100
    7ab0:	525f4343 	subspl	r4, pc, #201326593	@ 0xc000001
    7ab4:	485f4343 	ldmdami	pc, {r0, r1, r6, r8, r9, lr}^	@ <UNPREDICTABLE>
    7ab8:	4d00205f 	stcmi	0, cr2, [r0, #-380]	@ 0xfffffe84
    7abc:	5f434352 	svcpl	0x00434352
    7ac0:	5f424841 	svcpl	0x00424841
    7ac4:	53455250 	movtpl	r5, #21072	@ 0x5250
    7ac8:	454c4143 	strbmi	r4, [ip, #-323]	@ 0xfffffebd
    7acc:	31355f52 	teqcc	r5, r2, asr pc
    7ad0:	524d0032 	subpl	r0, sp, #50	@ 0x32
    7ad4:	755f4343 	ldrbvc	r4, [pc, #-835]	@ 7799 <_Min_Stack_Size+0x7399>
    7ad8:	47746464 	ldrbmi	r6, [r4, -r4, ror #8]!
    7adc:	62417465 	subvs	r7, r1, #1694498816	@ 0x65000000
    7ae0:	72463270 	subvc	r3, r6, #112, 4
    7ae4:	56007165 	strpl	r7, [r0], -r5, ror #2
    7ae8:	00314c41 	eorseq	r4, r1, r1, asr #24
    7aec:	324c4156 	subcc	r4, ip, #-2147483627	@ 0x80000015
    7af0:	4c415600 	mcrrmi	6, 0, r5, r1, cr0
    7af4:	616d0033 	cmnvs	sp, r3, lsr r0
    7af8:	45006e69 	strmi	r6, [r0, #-3689]	@ 0xfffff197
    7afc:	39495458 	stmdbcc	r9, {r3, r4, r6, sl, ip, lr}^
    7b00:	4c41435f 	mcrrmi	3, 5, r4, r1, cr15
    7b04:	4341424c 	movtmi	r4, #4684	@ 0x124c
    7b08:	7069004b 	rsbvc	r0, r9, fp, asr #32
    7b0c:	65527273 	ldrbvs	r7, [r2, #-627]	@ 0xfffffd8d
    7b10:	2e2e0067 	cdpcs	0, 2, cr0, cr14, cr7, {3}
    7b14:	6372532f 	cmnvs	r2, #-1140850688	@ 0xbc000000
    7b18:	69616d2f 	stmdbvs	r1!, {r0, r1, r2, r3, r5, r8, sl, fp, sp, lr}^
    7b1c:	00632e6e 	rsbeq	r2, r3, lr, ror #28
    7b20:	746e6f63 	strbtvc	r6, [lr], #-3939	@ 0xfffff09d
    7b24:	526c6f72 	rsbpl	r6, ip, #456	@ 0x1c8
    7b28:	49006765 	stmdbmi	r0, {r0, r2, r5, r6, r8, r9, sl, sp, lr}
    7b2c:	6c465152 	stfvse	f5, [r6], {82}	@ 0x52
    7b30:	45006761 	strmi	r6, [r0, #-1889]	@ 0xfffff89f
    7b34:	50697478 	rsbpl	r7, r9, r8, ror r4
    7b38:	2e004239 	mcrcs	2, 0, r4, cr0, cr9, {1}
    7b3c:	74532f2e 	ldrbvc	r2, [r3], #-3886	@ 0xfffff0d2
    7b40:	75747261 	ldrbvc	r7, [r4, #-609]!	@ 0xfffffd9f
    7b44:	74732f70 	ldrbtvc	r2, [r3], #-3952	@ 0xfffff090
    7b48:	75747261 	ldrbvc	r7, [r4, #-609]!	@ 0xfffffd9f
    7b4c:	74735f70 	ldrbtvc	r5, [r3], #-3952	@ 0xfffff090
    7b50:	6632336d 	ldrtvs	r3, [r2], -sp, ror #6
    7b54:	63333031 	teqvs	r3, #49	@ 0x31
    7b58:	2e787438 	mrccs	4, 3, r7, cr8, cr8, {1}
    7b5c:	4e470073 	mcrmi	0, 2, r0, cr7, cr3, {3}
    7b60:	53412055 	movtpl	r2, #4181	@ 0x1055
    7b64:	342e3220 	strtcc	r3, [lr], #-544	@ 0xfffffde0
    7b68:	00302e30 	eorseq	r2, r0, r0, lsr lr
    7b6c:	65736552 	ldrbvs	r6, [r3, #-1362]!	@ 0xfffffaae
    7b70:	61485f74 	hvcvs	34292	@ 0x85f4
    7b74:	656c646e 	strbvs	r6, [ip, #-1134]!	@ 0xfffffb92
    7b78:	Address 0x7b78 is out of bounds.


Disassembly of section .comment:

00000000 <.comment>:
   0:	3a434347 	bcc	10d0d24 <_Min_Stack_Size+0x10d0924>
   4:	4e472820 	cdpmi	8, 4, cr2, cr7, cr0, {1}
   8:	6f542055 	svcvs	0x00542055
   c:	20736c6f 	rsbscs	r6, r3, pc, ror #24
  10:	20726f66 	rsbscs	r6, r2, r6, ror #30
  14:	334d5453 	movtcc	r5, #54355	@ 0xd453
  18:	32312032 	eorscc	r2, r1, #50	@ 0x32
  1c:	722e332e 	eorvc	r3, lr, #-1207959552	@ 0xb8000000
  20:	2e316c65 	cdpcs	12, 3, cr6, cr1, cr5, {3}
  24:	34323032 	ldrtcc	r3, [r2], #-50	@ 0xffffffce
  28:	36303330 			@ <UNDEFINED> instruction: 0x36303330
  2c:	3337312d 	teqcc	r7, #1073741835	@ 0x4000000b
  30:	31202930 			@ <UNDEFINED> instruction: 0x31202930
  34:	2e332e32 	mrccs	14, 1, r2, cr3, cr2, {1}
  38:	30322031 	eorscc	r2, r2, r1, lsr r0
  3c:	36303332 			@ <UNDEFINED> instruction: 0x36303332
  40:	Address 0x40 is out of bounds.


Disassembly of section .debug_frame:

00000000 <.debug_frame>:
   0:	0000000c 	andeq	r0, r0, ip
   4:	ffffffff 			@ <UNDEFINED> instruction: 0xffffffff
   8:	7c020001 	stcvc	0, cr0, [r2], {1}
   c:	000d0c0e 	andeq	r0, sp, lr, lsl #24
  10:	00000020 	andeq	r0, r0, r0, lsr #32
  14:	00000000 	andeq	r0, r0, r0
  18:	08000170 	stmdaeq	r0, {r4, r5, r6, r8}
  1c:	000001dc 	ldrdeq	r0, [r0], -ip
  20:	87080e41 	strhi	r0, [r8, -r1, asr #28]
  24:	41018e02 	tstmi	r1, r2, lsl #28
  28:	0d41200e 	stcleq	0, cr2, [r1, #-56]	@ 0xffffffc8
  2c:	0edb0207 	cdpeq	2, 13, cr0, cr11, cr7, {0}
  30:	0d0d4108 	stfeqs	f4, [sp, #-32]	@ 0xffffffe0
  34:	00000020 	andeq	r0, r0, r0, lsr #32
  38:	00000000 	andeq	r0, r0, r0
  3c:	0800034c 	stmdaeq	r0, {r2, r3, r6, r8, r9}
  40:	0000002c 	andeq	r0, r0, ip, lsr #32
  44:	87080e41 	strhi	r0, [r8, -r1, asr #28]
  48:	41018e02 	tstmi	r1, r2, lsl #28
  4c:	0d41180e 	stcleq	8, cr1, [r1, #-56]	@ 0xffffffc8
  50:	080e5107 	stmdaeq	lr, {r0, r1, r2, r8, ip, lr}
  54:	000d0d41 	andeq	r0, sp, r1, asr #26
  58:	00000024 	andeq	r0, r0, r4, lsr #32
	...
  64:	00000044 	andeq	r0, r0, r4, asr #32
  68:	87040e41 	strhi	r0, [r4, -r1, asr #28]
  6c:	180e4101 	stmdane	lr, {r0, r8, lr}
  70:	59070d41 	stmdbpl	r7, {r0, r6, r8, sl, fp}
  74:	0d41040e 	cfstrdeq	mvd0, [r1, #-56]	@ 0xffffffc8
  78:	0ec7410d 	poleqs	f4, f7, #5.0
  7c:	00000000 	andeq	r0, r0, r0
  80:	00000020 	andeq	r0, r0, r0, lsr #32
  84:	00000000 	andeq	r0, r0, r0
  88:	08000378 	stmdaeq	r0, {r3, r4, r5, r6, r8, r9}
  8c:	0000004c 	andeq	r0, r0, ip, asr #32
  90:	87080e41 	strhi	r0, [r8, -r1, asr #28]
  94:	41018e02 	tstmi	r1, r2, lsl #28
  98:	0d41180e 	stcleq	8, cr1, [r1, #-56]	@ 0xffffffc8
  9c:	080e5f07 	stmdaeq	lr, {r0, r1, r2, r8, r9, sl, fp, ip, lr}
  a0:	000d0d41 	andeq	r0, sp, r1, asr #26
  a4:	00000020 	andeq	r0, r0, r0, lsr #32
  a8:	00000000 	andeq	r0, r0, r0
  ac:	080003c4 	stmdaeq	r0, {r2, r6, r7, r8, r9}
  b0:	0000004c 	andeq	r0, r0, ip, asr #32
  b4:	87080e41 	strhi	r0, [r8, -r1, asr #28]
  b8:	41018e02 	tstmi	r1, r2, lsl #28
  bc:	0d41180e 	stcleq	8, cr1, [r1, #-56]	@ 0xffffffc8
  c0:	080e5e07 	stmdaeq	lr, {r0, r1, r2, r9, sl, fp, ip, lr}
  c4:	000d0d41 	andeq	r0, sp, r1, asr #26
  c8:	00000020 	andeq	r0, r0, r0, lsr #32
	...
  d4:	00000068 	andeq	r0, r0, r8, rrx
  d8:	87080e41 	strhi	r0, [r8, -r1, asr #28]
  dc:	41018e02 	tstmi	r1, r2, lsl #28
  e0:	0d41100e 	stcleq	0, cr1, [r1, #-56]	@ 0xffffffc8
  e4:	080e6d07 	stmdaeq	lr, {r0, r1, r2, r8, sl, fp, sp, lr}
  e8:	000d0d41 	andeq	r0, sp, r1, asr #26
  ec:	00000018 	andeq	r0, r0, r8, lsl r0
  f0:	00000000 	andeq	r0, r0, r0
  f4:	08000410 	stmdaeq	r0, {r4, sl}
  f8:	00000024 	andeq	r0, r0, r4, lsr #32
  fc:	87080e41 	strhi	r0, [r8, -r1, asr #28]
 100:	41018e02 	tstmi	r1, r2, lsl #28
 104:	0000070d 	andeq	r0, r0, sp, lsl #14
 108:	00000018 	andeq	r0, r0, r8, lsl r0
 10c:	00000000 	andeq	r0, r0, r0
 110:	08000434 	stmdaeq	r0, {r2, r4, r5, sl}
 114:	00000024 	andeq	r0, r0, r4, lsr #32
 118:	87080e41 	strhi	r0, [r8, -r1, asr #28]
 11c:	41018e02 	tstmi	r1, r2, lsl #28
 120:	0000070d 	andeq	r0, r0, sp, lsl #14
 124:	00000018 	andeq	r0, r0, r8, lsl r0
 128:	00000000 	andeq	r0, r0, r0
 12c:	08000458 	stmdaeq	r0, {r3, r4, r6, sl}
 130:	00000024 	andeq	r0, r0, r4, lsr #32
 134:	87080e41 	strhi	r0, [r8, -r1, asr #28]
 138:	41018e02 	tstmi	r1, r2, lsl #28
 13c:	0000070d 	andeq	r0, r0, sp, lsl #14
 140:	00000018 	andeq	r0, r0, r8, lsl r0
 144:	00000000 	andeq	r0, r0, r0
 148:	0800047c 	stmdaeq	r0, {r2, r3, r4, r5, r6, sl}
 14c:	00000024 	andeq	r0, r0, r4, lsr #32
 150:	87080e41 	strhi	r0, [r8, -r1, asr #28]
 154:	41018e02 	tstmi	r1, r2, lsl #28
 158:	0000070d 	andeq	r0, r0, sp, lsl #14
 15c:	00000018 	andeq	r0, r0, r8, lsl r0
 160:	00000000 	andeq	r0, r0, r0
 164:	080004a0 	stmdaeq	r0, {r5, r7, sl}
 168:	00000024 	andeq	r0, r0, r4, lsr #32
 16c:	87080e41 	strhi	r0, [r8, -r1, asr #28]
 170:	41018e02 	tstmi	r1, r2, lsl #28
 174:	0000070d 	andeq	r0, r0, sp, lsl #14
 178:	00000018 	andeq	r0, r0, r8, lsl r0
 17c:	00000000 	andeq	r0, r0, r0
 180:	080004c4 	stmdaeq	r0, {r2, r6, r7, sl}
 184:	000000a8 	andeq	r0, r0, r8, lsr #1
 188:	87080e41 	strhi	r0, [r8, -r1, asr #28]
 18c:	41018e02 	tstmi	r1, r2, lsl #28
 190:	0000070d 	andeq	r0, r0, sp, lsl #14
 194:	00000018 	andeq	r0, r0, r8, lsl r0
 198:	00000000 	andeq	r0, r0, r0
 19c:	0800056c 	stmdaeq	r0, {r2, r3, r5, r6, r8, sl}
 1a0:	000000c4 	andeq	r0, r0, r4, asr #1
 1a4:	87080e41 	strhi	r0, [r8, -r1, asr #28]
 1a8:	41018e02 	tstmi	r1, r2, lsl #28
 1ac:	0000070d 	andeq	r0, r0, sp, lsl #14
 1b0:	0000000c 	andeq	r0, r0, ip
 1b4:	ffffffff 			@ <UNDEFINED> instruction: 0xffffffff
 1b8:	7c020001 	stcvc	0, cr0, [r2], {1}
 1bc:	000d0c0e 	andeq	r0, sp, lr, lsl #24
 1c0:	00000024 	andeq	r0, r0, r4, lsr #32
 1c4:	000001b0 			@ <UNDEFINED> instruction: 0x000001b0
 1c8:	08000630 	stmdaeq	r0, {r4, r5, r9, sl}
 1cc:	000000da 	ldrdeq	r0, [r0], -sl
 1d0:	87040e41 	strhi	r0, [r4, -r1, asr #28]
 1d4:	180e4101 	stmdane	lr, {r0, r8, lr}
 1d8:	02070d41 	andeq	r0, r7, #4160	@ 0x1040
 1dc:	41040e67 	tstmi	r4, r7, ror #28
 1e0:	c7410d0d 	strbgt	r0, [r1, -sp, lsl #26]
 1e4:	0000000e 	andeq	r0, r0, lr
 1e8:	00000020 	andeq	r0, r0, r0, lsr #32
 1ec:	000001b0 			@ <UNDEFINED> instruction: 0x000001b0
 1f0:	0800070c 	stmdaeq	r0, {r2, r3, r8, r9, sl}
 1f4:	000001b0 			@ <UNDEFINED> instruction: 0x000001b0
 1f8:	87080e41 	strhi	r0, [r8, -r1, asr #28]
 1fc:	41018e02 	tstmi	r1, r2, lsl #28
 200:	0d41200e 	stcleq	0, cr2, [r1, #-56]	@ 0xffffffc8
 204:	0ed30207 	cdpeq	2, 13, cr0, cr3, cr7, {0}
 208:	0d0d4108 	stfeqs	f4, [sp, #-32]	@ 0xffffffe0
 20c:	00000024 	andeq	r0, r0, r4, lsr #32
 210:	000001b0 			@ <UNDEFINED> instruction: 0x000001b0
 214:	00000000 	andeq	r0, r0, r0
 218:	00000056 	andeq	r0, r0, r6, asr r0
 21c:	87040e41 	strhi	r0, [r4, -r1, asr #28]
 220:	200e4101 	andcs	r4, lr, r1, lsl #2
 224:	65070d41 	strvs	r0, [r7, #-3393]	@ 0xfffff2bf
 228:	0d41040e 	cfstrdeq	mvd0, [r1, #-56]	@ 0xffffffc8
 22c:	0ec7410d 	poleqs	f4, f7, #5.0
 230:	00000000 	andeq	r0, r0, r0
 234:	00000024 	andeq	r0, r0, r4, lsr #32
 238:	000001b0 			@ <UNDEFINED> instruction: 0x000001b0
 23c:	080008bc 	stmdaeq	r0, {r2, r3, r4, r5, r7, fp}
 240:	00000080 	andeq	r0, r0, r0, lsl #1
 244:	87040e41 	strhi	r0, [r4, -r1, asr #28]
 248:	180e4101 	stmdane	lr, {r0, r8, lr}
 24c:	7a070d41 	bvc	1c3758 <_Min_Stack_Size+0x1c3358>
 250:	0d41040e 	cfstrdeq	mvd0, [r1, #-56]	@ 0xffffffc8
 254:	0ec7410d 	poleqs	f4, f7, #5.0
 258:	00000000 	andeq	r0, r0, r0
 25c:	00000024 	andeq	r0, r0, r4, lsr #32
 260:	000001b0 			@ <UNDEFINED> instruction: 0x000001b0
 264:	00000000 	andeq	r0, r0, r0
 268:	0000004a 	andeq	r0, r0, sl, asr #32
 26c:	87040e41 	strhi	r0, [r4, -r1, asr #28]
 270:	180e4101 	stmdane	lr, {r0, r8, lr}
 274:	5f070d41 	svcpl	0x00070d41
 278:	0d41040e 	cfstrdeq	mvd0, [r1, #-56]	@ 0xffffffc8
 27c:	0ec7410d 	poleqs	f4, f7, #5.0
 280:	00000000 	andeq	r0, r0, r0
 284:	00000024 	andeq	r0, r0, r4, lsr #32
 288:	000001b0 			@ <UNDEFINED> instruction: 0x000001b0
 28c:	00000000 	andeq	r0, r0, r0
 290:	000000a0 	andeq	r0, r0, r0, lsr #1
 294:	87040e41 	strhi	r0, [r4, -r1, asr #28]
 298:	180e4101 	stmdane	lr, {r0, r8, lr}
 29c:	02070d41 	andeq	r0, r7, #4160	@ 0x1040
 2a0:	41040e4a 	tstmi	r4, sl, asr #28
 2a4:	c7410d0d 	strbgt	r0, [r1, -sp, lsl #26]
 2a8:	0000000e 	andeq	r0, r0, lr
 2ac:	00000024 	andeq	r0, r0, r4, lsr #32
 2b0:	000001b0 			@ <UNDEFINED> instruction: 0x000001b0
 2b4:	00000000 	andeq	r0, r0, r0
 2b8:	00000076 	andeq	r0, r0, r6, ror r0
 2bc:	87040e41 	strhi	r0, [r4, -r1, asr #28]
 2c0:	200e4101 	andcs	r4, lr, r1, lsl #2
 2c4:	75070d41 	strvc	r0, [r7, #-3393]	@ 0xfffff2bf
 2c8:	0d41040e 	cfstrdeq	mvd0, [r1, #-56]	@ 0xffffffc8
 2cc:	0ec7410d 	poleqs	f4, f7, #5.0
 2d0:	00000000 	andeq	r0, r0, r0
 2d4:	00000024 	andeq	r0, r0, r4, lsr #32
 2d8:	000001b0 			@ <UNDEFINED> instruction: 0x000001b0
 2dc:	00000000 	andeq	r0, r0, r0
 2e0:	0000003a 	andeq	r0, r0, sl, lsr r0
 2e4:	87040e41 	strhi	r0, [r4, -r1, asr #28]
 2e8:	180e4101 	stmdane	lr, {r0, r8, lr}
 2ec:	57070d41 	strpl	r0, [r7, -r1, asr #26]
 2f0:	0d41040e 	cfstrdeq	mvd0, [r1, #-56]	@ 0xffffffc8
 2f4:	0ec7410d 	poleqs	f4, f7, #5.0
 2f8:	00000000 	andeq	r0, r0, r0
 2fc:	00000024 	andeq	r0, r0, r4, lsr #32
 300:	000001b0 			@ <UNDEFINED> instruction: 0x000001b0
 304:	00000000 	andeq	r0, r0, r0
 308:	00000032 	andeq	r0, r0, r2, lsr r0
 30c:	87040e41 	strhi	r0, [r4, -r1, asr #28]
 310:	180e4101 	stmdane	lr, {r0, r8, lr}
 314:	53070d41 	movwpl	r0, #32065	@ 0x7d41
 318:	0d41040e 	cfstrdeq	mvd0, [r1, #-56]	@ 0xffffffc8
 31c:	0ec7410d 	poleqs	f4, f7, #5.0
 320:	00000000 	andeq	r0, r0, r0
 324:	00000024 	andeq	r0, r0, r4, lsr #32
 328:	000001b0 			@ <UNDEFINED> instruction: 0x000001b0
 32c:	00000000 	andeq	r0, r0, r0
 330:	00000022 	andeq	r0, r0, r2, lsr #32
 334:	87040e41 	strhi	r0, [r4, -r1, asr #28]
 338:	180e4101 	stmdane	lr, {r0, r8, lr}
 33c:	4b070d41 	blmi	1c3848 <_Min_Stack_Size+0x1c3448>
 340:	0d41040e 	cfstrdeq	mvd0, [r1, #-56]	@ 0xffffffc8
 344:	0ec7410d 	poleqs	f4, f7, #5.0
 348:	00000000 	andeq	r0, r0, r0
 34c:	00000024 	andeq	r0, r0, r4, lsr #32
 350:	000001b0 			@ <UNDEFINED> instruction: 0x000001b0
 354:	00000000 	andeq	r0, r0, r0
 358:	0000003c 	andeq	r0, r0, ip, lsr r0
 35c:	87040e41 	strhi	r0, [r4, -r1, asr #28]
 360:	180e4101 	stmdane	lr, {r0, r8, lr}
 364:	58070d41 	stmdapl	r7, {r0, r6, r8, sl, fp}
 368:	0d41040e 	cfstrdeq	mvd0, [r1, #-56]	@ 0xffffffc8
 36c:	0ec7410d 	poleqs	f4, f7, #5.0
 370:	00000000 	andeq	r0, r0, r0
 374:	00000024 	andeq	r0, r0, r4, lsr #32
 378:	000001b0 			@ <UNDEFINED> instruction: 0x000001b0
 37c:	00000000 	andeq	r0, r0, r0
 380:	0000003c 	andeq	r0, r0, ip, lsr r0
 384:	87040e41 	strhi	r0, [r4, -r1, asr #28]
 388:	180e4101 	stmdane	lr, {r0, r8, lr}
 38c:	58070d41 	stmdapl	r7, {r0, r6, r8, sl, fp}
 390:	0d41040e 	cfstrdeq	mvd0, [r1, #-56]	@ 0xffffffc8
 394:	0ec7410d 	poleqs	f4, f7, #5.0
 398:	00000000 	andeq	r0, r0, r0
 39c:	0000000c 	andeq	r0, r0, ip
 3a0:	ffffffff 			@ <UNDEFINED> instruction: 0xffffffff
 3a4:	7c020001 	stcvc	0, cr0, [r2], {1}
 3a8:	000d0c0e 	andeq	r0, sp, lr, lsl #24
 3ac:	00000024 	andeq	r0, r0, r4, lsr #32
 3b0:	0000039c 	muleq	r0, ip, r3
 3b4:	0800093c 	stmdaeq	r0, {r2, r3, r4, r5, r8, fp}
 3b8:	00000048 	andeq	r0, r0, r8, asr #32
 3bc:	87040e41 	strhi	r0, [r4, -r1, asr #28]
 3c0:	180e4101 	stmdane	lr, {r0, r8, lr}
 3c4:	5c070d41 	stcpl	13, cr0, [r7], {65}	@ 0x41
 3c8:	0d41040e 	cfstrdeq	mvd0, [r1, #-56]	@ 0xffffffc8
 3cc:	0ec7410d 	poleqs	f4, f7, #5.0
 3d0:	00000000 	andeq	r0, r0, r0
 3d4:	00000024 	andeq	r0, r0, r4, lsr #32
 3d8:	0000039c 	muleq	r0, ip, r3
 3dc:	08000984 	stmdaeq	r0, {r2, r7, r8, fp}
 3e0:	0000004c 	andeq	r0, r0, ip, asr #32
 3e4:	87040e41 	strhi	r0, [r4, -r1, asr #28]
 3e8:	180e4101 	stmdane	lr, {r0, r8, lr}
 3ec:	5d070d41 	stcpl	13, cr0, [r7, #-260]	@ 0xfffffefc
 3f0:	0d41040e 	cfstrdeq	mvd0, [r1, #-56]	@ 0xffffffc8
 3f4:	0ec7410d 	poleqs	f4, f7, #5.0
 3f8:	00000000 	andeq	r0, r0, r0
 3fc:	00000024 	andeq	r0, r0, r4, lsr #32
 400:	0000039c 	muleq	r0, ip, r3
 404:	00000000 	andeq	r0, r0, r0
 408:	00000060 	andeq	r0, r0, r0, rrx
 40c:	87040e41 	strhi	r0, [r4, -r1, asr #28]
 410:	180e4101 	stmdane	lr, {r0, r8, lr}
 414:	68070d41 	stmdavs	r7, {r0, r6, r8, sl, fp}
 418:	0d41040e 	cfstrdeq	mvd0, [r1, #-56]	@ 0xffffffc8
 41c:	0ec7410d 	poleqs	f4, f7, #5.0
 420:	00000000 	andeq	r0, r0, r0
 424:	00000024 	andeq	r0, r0, r4, lsr #32
 428:	0000039c 	muleq	r0, ip, r3
 42c:	00000000 	andeq	r0, r0, r0
 430:	0000004c 	andeq	r0, r0, ip, asr #32
 434:	87040e41 	strhi	r0, [r4, -r1, asr #28]
 438:	180e4101 	stmdane	lr, {r0, r8, lr}
 43c:	5d070d41 	stcpl	13, cr0, [r7, #-260]	@ 0xfffffefc
 440:	0d41040e 	cfstrdeq	mvd0, [r1, #-56]	@ 0xffffffc8
 444:	0ec7410d 	poleqs	f4, f7, #5.0
 448:	00000000 	andeq	r0, r0, r0
 44c:	00000024 	andeq	r0, r0, r4, lsr #32
 450:	0000039c 	muleq	r0, ip, r3
 454:	00000000 	andeq	r0, r0, r0
 458:	0000004c 	andeq	r0, r0, ip, asr #32
 45c:	87040e41 	strhi	r0, [r4, -r1, asr #28]
 460:	180e4101 	stmdane	lr, {r0, r8, lr}
 464:	5d070d41 	stcpl	13, cr0, [r7, #-260]	@ 0xfffffefc
 468:	0d41040e 	cfstrdeq	mvd0, [r1, #-56]	@ 0xffffffc8
 46c:	0ec7410d 	poleqs	f4, f7, #5.0
 470:	00000000 	andeq	r0, r0, r0
 474:	00000024 	andeq	r0, r0, r4, lsr #32
 478:	0000039c 	muleq	r0, ip, r3
 47c:	00000000 	andeq	r0, r0, r0
 480:	00000060 	andeq	r0, r0, r0, rrx
 484:	87040e41 	strhi	r0, [r4, -r1, asr #28]
 488:	180e4101 	stmdane	lr, {r0, r8, lr}
 48c:	68070d41 	stmdavs	r7, {r0, r6, r8, sl, fp}
 490:	0d41040e 	cfstrdeq	mvd0, [r1, #-56]	@ 0xffffffc8
 494:	0ec7410d 	poleqs	f4, f7, #5.0
 498:	00000000 	andeq	r0, r0, r0
 49c:	00000028 	andeq	r0, r0, r8, lsr #32
 4a0:	0000039c 	muleq	r0, ip, r3
 4a4:	00000000 	andeq	r0, r0, r0
 4a8:	000000c8 	andeq	r0, r0, r8, asr #1
 4ac:	84080e41 	strhi	r0, [r8], #-3649	@ 0xfffff1bf
 4b0:	41018702 	tstmi	r1, r2, lsl #14
 4b4:	0d41180e 	stcleq	8, cr1, [r1, #-56]	@ 0xffffffc8
 4b8:	0e5b0207 	cdpeq	2, 5, cr0, cr11, cr7, {0}
 4bc:	0d0d4108 	stfeqs	f4, [sp, #-32]	@ 0xffffffe0
 4c0:	0ec4c741 	cdpeq	7, 12, cr12, cr4, cr1, {2}
 4c4:	00000000 	andeq	r0, r0, r0
 4c8:	00000024 	andeq	r0, r0, r4, lsr #32
 4cc:	0000039c 	muleq	r0, ip, r3
 4d0:	00000000 	andeq	r0, r0, r0
 4d4:	00000048 	andeq	r0, r0, r8, asr #32
 4d8:	87040e41 	strhi	r0, [r4, -r1, asr #28]
 4dc:	180e4101 	stmdane	lr, {r0, r8, lr}
 4e0:	5a070d41 	bpl	1c39ec <_Min_Stack_Size+0x1c35ec>
 4e4:	0d41040e 	cfstrdeq	mvd0, [r1, #-56]	@ 0xffffffc8
 4e8:	0ec7410d 	poleqs	f4, f7, #5.0
 4ec:	00000000 	andeq	r0, r0, r0
 4f0:	0000000c 	andeq	r0, r0, ip
 4f4:	ffffffff 			@ <UNDEFINED> instruction: 0xffffffff
 4f8:	7c020001 	stcvc	0, cr0, [r2], {1}
 4fc:	000d0c0e 	andeq	r0, sp, lr, lsl #24
 500:	00000028 	andeq	r0, r0, r8, lsr #32
 504:	000004f0 	strdeq	r0, [r0], -r0	@ <UNPREDICTABLE>
 508:	080009d0 	stmdaeq	r0, {r4, r6, r7, r8, fp}
 50c:	00000158 	andeq	r0, r0, r8, asr r1
 510:	84080e41 	strhi	r0, [r8], #-3649	@ 0xfffff1bf
 514:	41018702 	tstmi	r1, r2, lsl #14
 518:	0d41180e 	stcleq	8, cr1, [r1, #-56]	@ 0xffffffc8
 51c:	0ea40207 	cdpeq	2, 10, cr0, cr4, cr7, {0}
 520:	0d0d4108 	stfeqs	f4, [sp, #-32]	@ 0xffffffe0
 524:	0ec4c741 	cdpeq	7, 12, cr12, cr4, cr1, {2}
 528:	00000000 	andeq	r0, r0, r0
 52c:	00000028 	andeq	r0, r0, r8, lsr #32
 530:	000004f0 	strdeq	r0, [r0], -r0	@ <UNPREDICTABLE>
 534:	00000000 	andeq	r0, r0, r0
 538:	00000248 	andeq	r0, r0, r8, asr #4
 53c:	84080e41 	strhi	r0, [r8], #-3649	@ 0xfffff1bf
 540:	41018702 	tstmi	r1, r2, lsl #14
 544:	0d41180e 	stcleq	8, cr1, [r1, #-56]	@ 0xffffffc8
 548:	011c0307 	tsteq	ip, r7, lsl #6
 54c:	0d41080e 	stcleq	8, cr0, [r1, #-56]	@ 0xffffffc8
 550:	c4c7410d 	strbgt	r4, [r7], #269	@ 0x10d
 554:	0000000e 	andeq	r0, r0, lr
 558:	00000024 	andeq	r0, r0, r4, lsr #32
 55c:	000004f0 	strdeq	r0, [r0], -r0	@ <UNPREDICTABLE>
 560:	08000b28 	stmdaeq	r0, {r3, r5, r8, r9, fp}
 564:	00000464 	andeq	r0, r0, r4, ror #8
 568:	87040e41 	strhi	r0, [r4, -r1, asr #28]
 56c:	180e4101 	stmdane	lr, {r0, r8, lr}
 570:	03070d41 	movweq	r0, #32065	@ 0x7d41
 574:	040e0229 	streq	r0, [lr], #-553	@ 0xfffffdd7
 578:	410d0d41 	tstmi	sp, r1, asr #26
 57c:	00000ec7 	andeq	r0, r0, r7, asr #29
 580:	00000024 	andeq	r0, r0, r4, lsr #32
 584:	000004f0 	strdeq	r0, [r0], -r0	@ <UNPREDICTABLE>
 588:	00000000 	andeq	r0, r0, r0
 58c:	000003d8 	ldrdeq	r0, [r0], -r8
 590:	87040e41 	strhi	r0, [r4, -r1, asr #28]
 594:	180e4101 	stmdane	lr, {r0, r8, lr}
 598:	03070d41 	movweq	r0, #32065	@ 0x7d41
 59c:	040e01e3 	streq	r0, [lr], #-483	@ 0xfffffe1d
 5a0:	410d0d41 	tstmi	sp, r1, asr #26
 5a4:	00000ec7 	andeq	r0, r0, r7, asr #29
 5a8:	00000024 	andeq	r0, r0, r4, lsr #32
 5ac:	000004f0 	strdeq	r0, [r0], -r0	@ <UNPREDICTABLE>
 5b0:	00000000 	andeq	r0, r0, r0
 5b4:	000000c8 	andeq	r0, r0, r8, asr #1
 5b8:	87040e41 	strhi	r0, [r4, -r1, asr #28]
 5bc:	180e4101 	stmdane	lr, {r0, r8, lr}
 5c0:	02070d41 	andeq	r0, r7, #4160	@ 0x1040
 5c4:	41040e58 	tstmi	r4, r8, asr lr
 5c8:	c7410d0d 	strbgt	r0, [r1, -sp, lsl #26]
 5cc:	0000000e 	andeq	r0, r0, lr
 5d0:	00000020 	andeq	r0, r0, r0, lsr #32
 5d4:	000004f0 	strdeq	r0, [r0], -r0	@ <UNPREDICTABLE>
 5d8:	00000000 	andeq	r0, r0, r0
 5dc:	00000050 	andeq	r0, r0, r0, asr r0
 5e0:	87080e41 	strhi	r0, [r8, -r1, asr #28]
 5e4:	41018e02 	tstmi	r1, r2, lsl #28
 5e8:	0d41180e 	stcleq	8, cr1, [r1, #-56]	@ 0xffffffc8
 5ec:	080e5f07 	stmdaeq	lr, {r0, r1, r2, r8, r9, sl, fp, ip, lr}
 5f0:	000d0d41 	andeq	r0, sp, r1, asr #26
 5f4:	00000020 	andeq	r0, r0, r0, lsr #32
 5f8:	000004f0 	strdeq	r0, [r0], -r0	@ <UNPREDICTABLE>
 5fc:	00000000 	andeq	r0, r0, r0
 600:	00000050 	andeq	r0, r0, r0, asr r0
 604:	87080e41 	strhi	r0, [r8, -r1, asr #28]
 608:	41018e02 	tstmi	r1, r2, lsl #28
 60c:	0d41180e 	stcleq	8, cr1, [r1, #-56]	@ 0xffffffc8
 610:	080e5f07 	stmdaeq	lr, {r0, r1, r2, r8, r9, sl, fp, ip, lr}
 614:	000d0d41 	andeq	r0, sp, r1, asr #26
 618:	00000020 	andeq	r0, r0, r0, lsr #32
 61c:	000004f0 	strdeq	r0, [r0], -r0	@ <UNPREDICTABLE>
 620:	00000000 	andeq	r0, r0, r0
 624:	00000050 	andeq	r0, r0, r0, asr r0
 628:	87080e41 	strhi	r0, [r8, -r1, asr #28]
 62c:	41018e02 	tstmi	r1, r2, lsl #28
 630:	0d41180e 	stcleq	8, cr1, [r1, #-56]	@ 0xffffffc8
 634:	080e5f07 	stmdaeq	lr, {r0, r1, r2, r8, r9, sl, fp, ip, lr}
 638:	000d0d41 	andeq	r0, sp, r1, asr #26
 63c:	0000000c 	andeq	r0, r0, ip
 640:	ffffffff 			@ <UNDEFINED> instruction: 0xffffffff
 644:	7c020001 	stcvc	0, cr0, [r2], {1}
 648:	000d0c0e 	andeq	r0, sp, lr, lsl #24
 64c:	0000001c 	andeq	r0, r0, ip, lsl r0
 650:	0000063c 	andeq	r0, r0, ip, lsr r6
 654:	08000f8c 	stmdaeq	r0, {r2, r3, r7, r8, r9, sl, fp}
 658:	00000024 	andeq	r0, r0, r4, lsr #32
 65c:	87040e41 	strhi	r0, [r4, -r1, asr #28]
 660:	070d4101 	streq	r4, [sp, -r1, lsl #2]
 664:	410d0d49 	tstmi	sp, r9, asr #26
 668:	00000ec7 	andeq	r0, r0, r7, asr #29
 66c:	0000001c 	andeq	r0, r0, ip, lsl r0
 670:	0000063c 	andeq	r0, r0, ip, lsr r6
 674:	08000fb0 	stmdaeq	r0, {r4, r5, r7, r8, r9, sl, fp}
 678:	000000c4 	andeq	r0, r0, r4, asr #1
 67c:	87080e41 	strhi	r0, [r8, -r1, asr #28]
 680:	41018e02 	tstmi	r1, r2, lsl #28
 684:	0d41280e 	stcleq	8, cr2, [r1, #-56]	@ 0xffffffc8
 688:	00000007 	andeq	r0, r0, r7
 68c:	0000000c 	andeq	r0, r0, ip
 690:	ffffffff 			@ <UNDEFINED> instruction: 0xffffffff
 694:	7c020001 	stcvc	0, cr0, [r2], {1}
 698:	000d0c0e 	andeq	r0, sp, lr, lsl #24
 69c:	00000018 	andeq	r0, r0, r8, lsl r0
 6a0:	0000068c 	andeq	r0, r0, ip, lsl #13
 6a4:	080010c8 	stmdaeq	r0, {r3, r6, r7, ip}
 6a8:	00000048 	andeq	r0, r0, r8, asr #32
 6ac:	84100e41 	ldrhi	r0, [r0], #-3649	@ 0xfffff1bf
 6b0:	86038504 	strhi	r8, [r3], -r4, lsl #10
 6b4:	00018e02 	andeq	r8, r1, r2, lsl #28
